

Microchip Technology PIC18 LITE Macro Assembler V1.45 build -152302408 
                                                                                               Fri Jan 23 14:05:19 2026

Microchip Technology Omniscient Code Generator v1.45 (Free mode) build 201711160504
     1                           	processor	18F47K40
     2                           	fnconf	rparam,??,?,0
     3                           	opt	pw 120
     4                           	opt	lm
     5                           	psect	idataBANK0,global,class=CODE,delta=1,noexec
     6                           	psect	nvBANK0,global,class=BANK0,space=1,delta=1,lowdata,noexec
     7                           	psect	nvBANK1,global,class=BANK1,space=1,delta=1,lowdata,noexec
     8                           	psect	smallconst,global,reloc=2,class=SMALLCONST,delta=1,noexec
     9                           	psect	cinit,global,reloc=2,class=CODE,delta=1
    10                           	psect	bssCOMRAM,global,class=COMRAM,space=1,delta=1,noexec
    11                           	psect	bssBANK0,global,class=BANK0,space=1,delta=1,lowdata,noexec
    12                           	psect	dataBANK0,global,class=BANK0,space=1,delta=1,lowdata,noexec
    13                           	psect	bssBANK1,global,class=BANK1,space=1,delta=1,lowdata,noexec
    14                           	psect	cstackBANK1,global,class=BANK1,space=1,delta=1,noexec
    15                           	psect	cstackBANK0,global,class=BANK0,space=1,delta=1,noexec
    16                           	psect	cstackCOMRAM,global,class=COMRAM,space=1,delta=1,noexec
    17                           	psect	text0,global,reloc=2,class=CODE,delta=1
    18                           	psect	text1,global,reloc=2,class=CODE,delta=1
    19                           	psect	text2,global,reloc=2,class=CODE,delta=1
    20                           	psect	text3,global,reloc=2,class=CODE,delta=1
    21                           	psect	text4,global,reloc=2,class=CODE,delta=1
    22                           	psect	text5,global,reloc=2,class=CODE,delta=1
    23                           	psect	text6,global,reloc=2,class=CODE,delta=1
    24                           	psect	text7,global,reloc=2,class=CODE,delta=1
    25                           	psect	text8,global,reloc=2,class=CODE,delta=1
    26                           	psect	text9,global,reloc=2,class=CODE,delta=1
    27                           	psect	text10,global,reloc=2,class=CODE,delta=1
    28                           	psect	text11,global,reloc=2,class=CODE,delta=1
    29                           	psect	text12,global,reloc=2,class=CODE,delta=1
    30                           	psect	text13,global,reloc=2,class=CODE,delta=1
    31                           	psect	text14,global,reloc=2,class=CODE,delta=1
    32                           	psect	text15,global,reloc=2,class=CODE,delta=1
    33                           	psect	text16,global,reloc=2,class=CODE,delta=1
    34                           	psect	text17,global,reloc=2,class=CODE,delta=1
    35                           	psect	text18,global,reloc=2,class=CODE,delta=1
    36                           	psect	text19,global,reloc=2,class=CODE,delta=1
    37                           	psect	text20,global,reloc=2,class=CODE,delta=1
    38                           	psect	text21,global,reloc=2,class=CODE,delta=1
    39                           	psect	text22,global,reloc=2,class=CODE,delta=1
    40                           	psect	text23,global,reloc=2,class=CODE,delta=1
    41                           	psect	text24,global,reloc=2,class=CODE,delta=1
    42                           	psect	text25,global,reloc=2,class=CODE,delta=1
    43                           	psect	text26,global,reloc=2,class=CODE,delta=1
    44                           	psect	text27,global,reloc=2,class=CODE,delta=1
    45                           	psect	text28,global,reloc=2,class=CODE,delta=1
    46                           	psect	text29,global,reloc=2,class=CODE,delta=1
    47                           	psect	text30,global,reloc=2,class=CODE,delta=1
    48                           	psect	text31,global,reloc=2,class=CODE,delta=1
    49                           	psect	text32,global,reloc=2,class=CODE,delta=1
    50                           	psect	text33,global,reloc=2,class=CODE,delta=1
    51                           	psect	text34,global,reloc=2,class=CODE,delta=1
    52                           	psect	text35,global,reloc=2,class=CODE,delta=1
    53                           	psect	text36,global,reloc=2,class=CODE,delta=1
    54                           	psect	text37,global,reloc=2,class=CODE,delta=1
    55                           	psect	text38,global,reloc=2,class=CODE,delta=1
    56                           	psect	text39,global,reloc=2,class=CODE,delta=1
    57                           	psect	text40,global,reloc=2,class=CODE,delta=1
    58                           	psect	intcode,global,reloc=2,class=CODE,delta=1
    59                           	psect	text42,global,reloc=2,class=CODE,delta=1
    60                           	psect	text43,global,reloc=2,class=CODE,delta=1
    61                           	psect	text44,global,reloc=2,class=CODE,delta=1,group=1
    62                           	psect	text45,global,reloc=2,class=CODE,delta=1,group=1
    63                           	psect	text46,global,reloc=2,class=CODE,delta=1,group=1
    64                           	psect	text47,global,reloc=2,class=CODE,delta=1,group=1
    65                           	psect	text48,global,reloc=2,class=CODE,delta=1
    66                           	psect	text49,global,reloc=2,class=CODE,delta=1
    67                           	psect	text50,global,reloc=2,class=CODE,delta=1
    68                           	psect	text51,global,reloc=2,class=CODE,delta=1
    69                           	psect	text52,global,reloc=2,class=CODE,delta=1
    70                           	psect	text53,global,reloc=2,class=CODE,delta=1
    71                           	psect	text54,global,reloc=2,class=CODE,delta=1
    72                           	psect	text55,global,reloc=2,class=CODE,delta=1
    73                           	psect	text56,global,reloc=2,class=CODE,delta=1
    74                           	psect	text57,global,reloc=2,class=CODE,delta=1
    75                           	psect	text58,global,reloc=2,class=CODE,delta=1
    76                           	psect	text59,global,reloc=2,class=CODE,delta=1
    77                           	psect	text60,global,reloc=2,class=CODE,delta=1
    78                           	psect	text61,global,reloc=2,class=CODE,delta=1
    79                           	psect	text62,global,reloc=2,class=CODE,delta=1
    80                           	psect	text63,global,reloc=2,class=CODE,delta=1
    81                           	psect	text64,global,reloc=2,class=CODE,delta=1
    82                           	psect	text65,global,reloc=2,class=CODE,delta=1
    83                           	psect	text66,global,reloc=2,class=CODE,delta=1
    84                           	psect	text67,global,reloc=2,class=CODE,delta=1
    85                           	psect	text68,global,reloc=2,class=CODE,delta=1
    86                           	psect	text69,global,reloc=2,class=CODE,delta=1,group=1
    87                           	psect	text70,global,reloc=2,class=CODE,delta=1
    88                           	psect	text71,global,reloc=2,class=CODE,delta=1
    89                           	psect	text72,global,reloc=2,class=CODE,delta=1
    90                           	psect	text73,global,reloc=2,class=CODE,delta=1
    91                           	psect	text74,global,reloc=2,class=CODE,delta=1
    92                           	psect	text75,global,reloc=2,class=CODE,delta=1
    93                           	psect	text76,global,reloc=2,class=CODE,delta=1
    94                           	psect	text77,global,reloc=2,class=CODE,delta=1
    95                           	psect	text78,global,reloc=2,class=CODE,delta=1
    96                           	psect	text79,global,reloc=2,class=CODE,delta=1
    97                           	psect	text80,global,reloc=2,class=CODE,delta=1
    98                           	psect	text81,global,reloc=2,class=CODE,delta=1
    99                           	psect	text82,global,reloc=2,class=CODE,delta=1
   100                           	psect	text83,global,reloc=2,class=CODE,delta=1
   101                           	psect	intsave_regs,global,class=BIGRAM,space=1,delta=1,noexec
   102                           	psect	text84,global,reloc=2,class=CODE,delta=1
   103                           	psect	rparam,global,class=COMRAM,space=1,delta=1,noexec
   104                           	psect	temp,global,ovrld,common,class=COMRAM,space=1,delta=1
   105  0000                     
   106                           ; Version 1.45
   107                           ; Generated 16/11/2017 GMT
   108                           ; 
   109                           ; Copyright © 2017, Microchip Technology Inc. and its subsidiaries ("Microchip")
   110                           ; All rights reserved.
   111                           ; 
   112                           ; This software is developed by Microchip Technology Inc. and its subsidiaries ("Microch
      +                          ip").
   113                           ; 
   114                           ; Redistribution and use in source and binary forms, with or without modification, are
   115                           ; permitted provided that the following conditions are met:
   116                           ; 
   117                           ;     1. Redistributions of source code must retain the above copyright notice, this lis
      +                          t of
   118                           ;        conditions and the following disclaimer.
   119                           ; 
   120                           ;     2. Redistributions in binary form must reproduce the above copyright notice, this 
      +                          list
   121                           ;        of conditions and the following disclaimer in the documentation and/or other
   122                           ;        materials provided with the distribution.
   123                           ; 
   124                           ;     3. Microchip's name may not be used to endorse or promote products derived from th
      +                          is
   125                           ;        software without specific prior written permission.
   126                           ; 
   127                           ; THIS SOFTWARE IS PROVIDED BY MICROCHIP "AS IS" AND ANY EXPRESS OR IMPLIED WARRANTIES,
   128                           ; INCLUDING, BUT NOT LIMITED TO, THE IMPLIED WARRANTIES OF MERCHANTABILITY AND FITNESS F
      +                          OR
   129                           ; PURPOSE ARE DISCLAIMED.  IN NO EVENT SHALL MICROCHIP BE LIABLE FOR ANY DIRECT, INDIREC
      +                          T,
   130                           ; INCIDENTAL, SPECIAL, EXEMPLARY, OR CONSEQUENTIAL DAMAGES (INCLUDING BUT NOT LIMITED TO
   131                           ; PROCUREMENT OF SUBSTITUTE GOODS OR SERVICES; LOSS OF USE, DATA OR PROFITS; OR BUSINESS
   132                           ; INTERRUPTION) HOWSOEVER CAUSED AND ON ANY THEORY OF LIABILITY, WHETHER IN CONTRACT, ST
      +                          RICT
   133                           ; LIABILITY, OR TORT (INCLUDING NEGLIGENCE OR OTHERWISE) ARISING IN ANY WAY OUT OF THE U
      +                          SE OF
   134                           ; THIS SOFTWARE, EVEN IF ADVISED OF THE POSSIBILITY OF SUCH DAMAGE.
   135                           ; 
   136                           ; 
   137                           ; Code-generator required, PIC18F47K40 Definitions
   138                           ; 
   139                           ; SFR Addresses
   140  0000                     
   141                           	psect	idataBANK0
   142  002C54                     __pidataBANK0:
   143                           	opt stack 0
   144                           
   145                           ;initializer for _laserAddresses
   146  002C54  29                 	db	41
   147  002C55  2A                 	db	42
   148  002C56  2B                 	db	43
   149                           
   150                           ;initializer for _ancien_dutyValue_D
   151  002C57  0190               	dw	400
   152                           
   153                           ;initializer for _ancien_dutyValue_G
   154  002C59  0190               	dw	400
   155                           
   156                           ;initializer for _Sigma_Erreur_Vitesse_Moteur_D
   157  002C5B  0190               	dw	400
   158                           
   159                           ;initializer for _Sigma_Erreur_Vitesse_Moteur_G
   160  002C5D  0190               	dw	400
   161                           
   162                           	psect	nvBANK0
   163  0000B4                     __pnvBANK0:
   164                           	opt stack 0
   165  0000B4                     _TMR3_InterruptHandler:
   166                           	opt stack 0
   167  0000B4                     	ds	3
   168  0000B7                     _TMR1_InterruptHandler:
   169                           	opt stack 0
   170  0000B7                     	ds	3
   171  0000BA                     _TMR4_InterruptHandler:
   172                           	opt stack 0
   173  0000BA                     	ds	3
   174  0000BD                     _TMR0_InterruptHandler:
   175                           	opt stack 0
   176  0000BD                     	ds	3
   177  0000C0                     _IOCCF0_InterruptHandler:
   178                           	opt stack 0
   179  0000C0                     	ds	3
   180  0000C3                     _IOCAF7_InterruptHandler:
   181                           	opt stack 0
   182  0000C3                     	ds	3
   183  0000C6                     _IOCAF6_InterruptHandler:
   184                           	opt stack 0
   185  0000C6                     	ds	3
   186  0000C9                     _IOCAF5_InterruptHandler:
   187                           	opt stack 0
   188  0000C9                     	ds	3
   189  0000CC                     _timer3ReloadVal:
   190                           	opt stack 0
   191  0000CC                     	ds	2
   192  0000CE                     _timer1ReloadVal:
   193                           	opt stack 0
   194  0000CE                     	ds	2
   195  0000D0                     _timer0ReloadVal16bit:
   196                           	opt stack 0
   197  0000D0                     	ds	2
   198  0000D2                     _eusart1TxBufferRemaining:
   199                           	opt stack 0
   200  0000D2                     	ds	1
   201                           
   202                           	psect	nvBANK1
   203  00017D                     __pnvBANK1:
   204                           	opt stack 0
   205  00017D                     _EUSART1_ErrorHandler:
   206                           	opt stack 0
   207  00017D                     	ds	3
   208  000180                     _EUSART1_OverrunErrorHandler:
   209                           	opt stack 0
   210  000180                     	ds	3
   211  000183                     _EUSART1_FramingErrorHandler:
   212                           	opt stack 0
   213  000183                     	ds	3
   214  000186                     _EUSART1_RxDefaultInterruptHandler:
   215                           	opt stack 0
   216  000186                     	ds	3
   217  000189                     _EUSART1_TxDefaultInterruptHandler:
   218                           	opt stack 0
   219  000189                     	ds	3
   220  0000                     _PMD5	set	3814
   221  0000                     _PMD4	set	3813
   222  0000                     _PMD3	set	3812
   223  0000                     _PMD2	set	3811
   224  0000                     _PMD1	set	3810
   225  0000                     _PMD0	set	3809
   226  0000                     _OSCTUNE	set	3805
   227  0000                     _OSCFRQ	set	3806
   228  0000                     _OSCEN	set	3804
   229  0000                     _OSCCON3	set	3802
   230  0000                     _OSCCON1	set	3800
   231  0000                     _PIR4bits	set	3790
   232  0000                     _PIE4bits	set	3782
   233  0000                     _PIR0bits	set	3786
   234  0000                     _PIE3bits	set	3781
   235  0000                     _PIR3bits	set	3789
   236  0000                     _SSP1DATPPS	set	3768
   237  0000                     _RC6PPS	set	3837
   238  0000                     _RC2PPS	set	3833
   239  0000                     _RC4PPS	set	3835
   240  0000                     _RC1PPS	set	3832
   241  0000                     _RC3PPS	set	3834
   242  0000                     _RX1PPS	set	3765
   243  0000                     _SSP1CLKPPS	set	3767
   244  0000                     _PIE0bits	set	3778
   245  0000                     _ADCON1bits	set	3929
   246  0000                     _ADCON2bits	set	3930
   247  0000                     _ADPRE	set	3934
   248  0000                     _ADCON3bits	set	3931
   249  0000                     _ADACQ	set	3932
   250  0000                     _ADCLK	set	3927
   251  0000                     _ADACT	set	3926
   252  0000                     _ADREF	set	3928
   253  0000                     _ADCON3	set	3931
   254  0000                     _ADCON2	set	3930
   255  0000                     _ADCON1	set	3929
   256  0000                     _ADCAP	set	3933
   257  0000                     _ADPCH	set	3935
   258  0000                     _IOCCPbits	set	3868
   259  0000                     _IOCCNbits	set	3867
   260  0000                     _IOCCFbits	set	3866
   261  0000                     _IOCAPbits	set	3852
   262  0000                     _IOCANbits	set	3851
   263  0000                     _IOCAFbits	set	3850
   264  0000                     _INLVLE	set	3882
   265  0000                     _INLVLD	set	3874
   266  0000                     _INLVLC	set	3869
   267  0000                     _INLVLB	set	3861
   268  0000                     _INLVLA	set	3853
   269  0000                     _SLRCONE	set	3883
   270  0000                     _SLRCOND	set	3875
   271  0000                     _SLRCONC	set	3870
   272  0000                     _SLRCONB	set	3862
   273  0000                     _SLRCONA	set	3854
   274  0000                     _ODCOND	set	3876
   275  0000                     _ODCONC	set	3871
   276  0000                     _ODCONB	set	3863
   277  0000                     _ODCONA	set	3855
   278  0000                     _ODCONE	set	3884
   279  0000                     _WPUC	set	3872
   280  0000                     _WPUA	set	3856
   281  0000                     _WPUB	set	3864
   282  0000                     _WPUE	set	3885
   283  0000                     _WPUD	set	3877
   284  0000                     _ANSELA	set	3857
   285  0000                     _ANSELE	set	3886
   286  0000                     _ANSELB	set	3865
   287  0000                     _ANSELC	set	3873
   288  0000                     _ANSELD	set	3878
   289  0000                     _NVMCON2	set	3970
   290  0000                     _NVMCON1bits	set	3969
   291  0000                     _NVMDAT	set	3968
   292  0000                     _NVMADRL	set	3966
   293  0000                     _NVMADRH	set	3967
   294  0000                     _LATDbits	set	3974
   295  0000                     _PORTBbits	set	3982
   296  0000                     _T3GCONbits	set	4042
   297  0000                     _T3CONbits	set	4041
   298  0000                     _T3CON	set	4041
   299  0000                     _TMR3L	set	4039
   300  0000                     _TMR3H	set	4040
   301  0000                     _T3CLK	set	4044
   302  0000                     _T3GATE	set	4043
   303  0000                     _T3GCON	set	4042
   304  0000                     _T1GCONbits	set	4048
   305  0000                     _T1CONbits	set	4047
   306  0000                     _T1CON	set	4047
   307  0000                     _TMR1L	set	4045
   308  0000                     _TMR1H	set	4046
   309  0000                     _T1CLK	set	4050
   310  0000                     _T1GATE	set	4049
   311  0000                     _T1GCON	set	4048
   312  0000                     _CCP2CONbits	set	4008
   313  0000                     _CCPR2L	set	4006
   314  0000                     _CCPR2H	set	4007
   315  0000                     _CCP2CON	set	4008
   316  0000                     _CCP1CONbits	set	4012
   317  0000                     _CCPTMRSbits	set	4014
   318  0000                     _CCPR1L	set	4010
   319  0000                     _CCPR1H	set	4011
   320  0000                     _CCP1CON	set	4012
   321  0000                     _PR4	set	4022
   322  0000                     _TMR4	set	4021
   323  0000                     _T4CONbits	set	4023
   324  0000                     _T4RSTbits	set	4026
   325  0000                     _T4HLTbits	set	4024
   326  0000                     _T4CON	set	4023
   327  0000                     _T4TMR	set	4021
   328  0000                     _T4PR	set	4022
   329  0000                     _T4RST	set	4026
   330  0000                     _T4HLT	set	4024
   331  0000                     _T4CLKCON	set	4025
   332  0000                     _PR2	set	4028
   333  0000                     _TMR2	set	4027
   334  0000                     _T2CONbits	set	4029
   335  0000                     _T2RSTbits	set	4032
   336  0000                     _T2HLTbits	set	4030
   337  0000                     _T2CON	set	4029
   338  0000                     _T2TMR	set	4027
   339  0000                     _T2PR	set	4028
   340  0000                     _T2RST	set	4032
   341  0000                     _T2HLT	set	4030
   342  0000                     _T2CLKCON	set	4031
   343  0000                     _RC1REG	set	3993
   344  0000                     _RC1STAbits	set	3997
   345  0000                     _TX1REG	set	3994
   346  0000                     _TX1STAbits	set	3998
   347  0000                     _SP1BRGH	set	3996
   348  0000                     _SP1BRGL	set	3995
   349  0000                     _TX1STA	set	3998
   350  0000                     _RC1STA	set	3997
   351  0000                     _BAUD1CON	set	3999
   352  0000                     _ADERRL	set	3950
   353  0000                     _ADERRH	set	3951
   354  0000                     _ADPREVL	set	3937
   355  0000                     _ADPREVH	set	3938
   356  0000                     _ADFLTRL	set	3954
   357  0000                     _ADFLTRH	set	3955
   358  0000                     _ADSTATbits	set	3941
   359  0000                     _ADACCL	set	3952
   360  0000                     _ADACCH	set	3953
   361  0000                     _ADCNT	set	3943
   362  0000                     _ADRESL	set	3939
   363  0000                     _ADRESH	set	3940
   364  0000                     _ADCON0bits	set	3936
   365  0000                     _ADCON0	set	3936
   366  0000                     _ADSTAT	set	3941
   367  0000                     _ADRPT	set	3942
   368  0000                     _ADSTPTH	set	3945
   369  0000                     _ADSTPTL	set	3944
   370  0000                     _ADUTHH	set	3949
   371  0000                     _ADUTHL	set	3948
   372  0000                     _ADLTHH	set	3947
   373  0000                     _ADLTHL	set	3946
   374  0000                     _T0CON0bits	set	4053
   375  0000                     _T0CON0	set	4053
   376  0000                     _TMR0L	set	4051
   377  0000                     _TMR0H	set	4052
   378  0000                     _T0CON1	set	4054
   379  0000                     _INTCONbits	set	4082
   380  0000                     _SSP1BUF	set	3986
   381  0000                     _SSP1CON2bits	set	3991
   382  0000                     _SSP1CON1bits	set	3990
   383  0000                     _SSP1ADD	set	3987
   384  0000                     _SSP1CON3	set	3992
   385  0000                     _SSP1CON1	set	3990
   386  0000                     _SSP1STAT	set	3989
   387  0000                     _PORTDbits	set	3984
   388  0000                     _PORTAbits	set	3981
   389  0000                     _PORTEbits	set	3985
   390  0000                     _TRISD	set	3979
   391  0000                     _TRISC	set	3978
   392  0000                     _TRISB	set	3977
   393  0000                     _TRISA	set	3976
   394  0000                     _TRISE	set	3980
   395  0000                     _LATC	set	3973
   396  0000                     _LATB	set	3972
   397  0000                     _LATA	set	3971
   398  0000                     _LATD	set	3974
   399  0000                     _LATE	set	3975
   400  0000                     _LATEbits	set	3975
   401  0000                     _LATAbits	set	3971
   402  0000                     _LATCbits	set	3973
   403  0000                     _LATBbits	set	3972
   404  0000                     _GIE	set	32663
   405                           
   406                           	psect	smallconst
   407  000F00                     __psmallconst:
   408                           	opt stack 0
   409  000F00  00                 	db	0
   410  000F01                     STR_1:
   411                           
   412                           ; BSR set to: 0
   413  000F01  20                 	db	32
   414  000F02  20                 	db	32
   415  000F03  20                 	db	32
   416  000F04  20                 	db	32
   417  000F05  20                 	db	32
   418  000F06  48                 	db	72	;'H'
   419  000F07  45                 	db	69	;'E'
   420  000F08  4C                 	db	76	;'L'
   421  000F09  4C                 	db	76	;'L'
   422  000F0A  4F                 	db	79	;'O'
   423  000F0B  20                 	db	32
   424  000F0C  20                 	db	32
   425  000F0D  20                 	db	32
   426  000F0E  20                 	db	32
   427  000F0F  20                 	db	32
   428  000F10  20                 	db	32
   429  000F11  00                 	db	0
   430  000F12                     STR_2:
   431                           
   432                           ; BSR set to: 0
   433  000F12  50                 	db	80	;'P'
   434  000F13  52                 	db	82	;'R'
   435  000F14  4F                 	db	79	;'O'
   436  000F15  47                 	db	71	;'G'
   437  000F16  52                 	db	82	;'R'
   438  000F17  41                 	db	65	;'A'
   439  000F18  4D                 	db	77	;'M'
   440  000F19  4D                 	db	77	;'M'
   441  000F1A  45                 	db	69	;'E'
   442  000F1B  20                 	db	32
   443  000F1C  4D                 	db	77	;'M'
   444  000F1D  4F                 	db	79	;'O'
   445  000F1E  49                 	db	73	;'I'
   446  000F1F  20                 	db	32
   447  000F20  21                 	db	33
   448  000F21  21                 	db	33
   449  000F22  00                 	db	0
   450  000F23                     
   451                           ; BSR set to: 0
   452  000F23  2D                 	db	45
   453  000F24  2D                 	db	45
   454  000F25  2D                 	db	45
   455  000F26  00                 	db	0
   456  000F27                     
   457                           ; BSR set to: 0
   458  000F27  58                 	db	88	;'X'
   459  000F28  41                 	db	65	;'A'
   460  000F29  4D                 	db	77	;'M'
   461  000F2A  00                 	db	0
   462                           
   463                           ; #config settings
   464  000F2B  00                 	db	0	; dummy byte at the end
   465  0000                     
   466                           	psect	cinit
   467  0024D2                     __pcinit:
   468                           	opt stack 0
   469  0024D2                     start_initialization:
   470                           	opt stack 0
   471  0024D2                     __initialization:
   472                           	opt stack 0
   473                           
   474                           ; Initialize objects allocated to BANK0 (11 bytes)
   475                           ; load TBLPTR registers with __pidataBANK0
   476  0024D2  0E54               	movlw	low __pidataBANK0
   477  0024D4  6EF6               	movwf	tblptrl,c
   478  0024D6  0E2C               	movlw	high __pidataBANK0
   479  0024D8  6EF7               	movwf	tblptrh,c
   480  0024DA  0E00               	movlw	low (__pidataBANK0 shr (0+16))
   481  0024DC  6EF8               	movwf	tblptru,c
   482  0024DE  EE00  F0E5         	lfsr	0,__pdataBANK0
   483  0024E2  EE10 F00B          	lfsr	1,11
   484  0024E6                     copy_data0:
   485  0024E6  0009               	tblrd		*+
   486  0024E8  CFF5 FFEE          	movff	tablat,postinc0
   487  0024EC  50E5               	movf	postdec1,w,c
   488  0024EE  50E1               	movf	fsr1l,w,c
   489  0024F0  E1FA               	bnz	copy_data0
   490                           
   491                           ; Clear objects allocated to BANK1 (125 bytes)
   492  0024F2  EE01  F000         	lfsr	0,__pbssBANK1
   493  0024F6  0E7D               	movlw	125
   494  0024F8                     clear_0:
   495  0024F8  6AEE               	clrf	postinc0,c
   496  0024FA  06E8               	decf	wreg,f,c
   497  0024FC  E1FD               	bnz	clear_0
   498                           
   499                           ; Clear objects allocated to BANK0 (84 bytes)
   500  0024FE  EE00  F060         	lfsr	0,__pbssBANK0
   501  002502  0E54               	movlw	84
   502  002504                     clear_1:
   503  002504  6AEE               	clrf	postinc0,c
   504  002506  06E8               	decf	wreg,f,c
   505  002508  E1FD               	bnz	clear_1
   506                           
   507                           ; Clear objects allocated to COMRAM (16 bytes)
   508  00250A  EE00  F04C         	lfsr	0,__pbssCOMRAM
   509  00250E  0E10               	movlw	16
   510  002510                     clear_2:
   511  002510  6AEE               	clrf	postinc0,c
   512  002512  06E8               	decf	wreg,f,c
   513  002514  E1FD               	bnz	clear_2
   514  002516                     end_of_initialization:
   515                           	opt stack 0
   516  002516                     __end_of__initialization:
   517                           	opt stack 0
   518  002516  905C               	bcf	int$flags,0,c	;clear compiler interrupt flag (level 1)
   519  002518  925C               	bcf	int$flags,1,c	;clear compiler interrupt flag (level 2)
   520  00251A  0100               	movlb	0
   521  00251C  EF68  F00D         	goto	_main	;jump to C main() function
   522                           tblptru	equ	0xFF8
   523                           tblptrh	equ	0xFF7
   524                           tblptrl	equ	0xFF6
   525                           tablat	equ	0xFF5
   526                           postinc0	equ	0xFEE
   527                           wreg	equ	0xFE8
   528                           postdec1	equ	0xFE5
   529                           fsr1l	equ	0xFE1
   530                           
   531                           	psect	bssCOMRAM
   532  00004C                     __pbssCOMRAM:
   533                           	opt stack 0
   534  00004C                     _dutyValue_D:
   535                           	opt stack 0
   536  00004C                     	ds	2
   537  00004E                     _dutyValue_G:
   538                           	opt stack 0
   539  00004E                     	ds	2
   540  000050                     _p_i2c1_trb_current:
   541                           	opt stack 0
   542  000050                     	ds	2
   543  000052                     _millisec:
   544                           	opt stack 0
   545  000052                     	ds	2
   546  000054                     _eusart1RxCount:
   547                           	opt stack 0
   548  000054                     	ds	1
   549  000055                     _eusart1RxTail:
   550                           	opt stack 0
   551  000055                     	ds	1
   552  000056                     I2C1_ISR@i2c_10bit_address_restart:
   553                           	opt stack 0
   554  000056                     	ds	1
   555  000057                     I2C1_ISR@i2c_bytes_left:
   556                           	opt stack 0
   557  000057                     	ds	1
   558  000058                     _i2c1_trb_count:
   559                           	opt stack 0
   560  000058                     	ds	1
   561  000059                     _i2c1_state:
   562                           	opt stack 0
   563  000059                     	ds	1
   564  00005A                     I2C1_ISR@i2c_address:
   565                           	opt stack 0
   566  00005A                     	ds	2
   567                           tblptru	equ	0xFF8
   568                           tblptrh	equ	0xFF7
   569                           tblptrl	equ	0xFF6
   570                           tablat	equ	0xFF5
   571                           postinc0	equ	0xFEE
   572                           wreg	equ	0xFE8
   573                           postdec1	equ	0xFE5
   574                           fsr1l	equ	0xFE1
   575                           
   576                           	psect	bssBANK0
   577  000060                     __pbssBANK0:
   578                           	opt stack 0
   579  000060                     _eusart1RxStatusBuffer:
   580                           	opt stack 0
   581  000060                     	ds	8
   582  000068                     _eusart1TxBuffer:
   583                           	opt stack 0
   584  000068                     	ds	8
   585  000070                     _i2c1_object:
   586                           	opt stack 0
   587  000070                     	ds	7
   588  000077                     _DMD:
   589                           	opt stack 0
   590  000077                     	ds	4
   591  00007B                     _DMG:
   592                           	opt stack 0
   593  00007B                     	ds	4
   594  00007F                     _R1:
   595                           	opt stack 0
   596  00007F                     	ds	4
   597  000083                     _R0:
   598                           	opt stack 0
   599  000083                     	ds	4
   600  000087                     _millisec_32bits:
   601                           	opt stack 0
   602  000087                     	ds	4
   603  00008B                     _Ancienne_Erreur_Vitesse_Moteur_D:
   604                           	opt stack 0
   605  00008B                     	ds	2
   606  00008D                     _Erreur_Vitesse_Moteur_D:
   607                           	opt stack 0
   608  00008D                     	ds	2
   609  00008F                     _Ancienne_Erreur_Vitesse_Moteur_G:
   610                           	opt stack 0
   611  00008F                     	ds	2
   612  000091                     _Erreur_Vitesse_Moteur_G:
   613                           	opt stack 0
   614  000091                     	ds	2
   615  000093                     _Consigne_Vitesse_Moteur_D:
   616                           	opt stack 0
   617  000093                     	ds	2
   618  000095                     _Consigne_Vitesse_Moteur_G:
   619                           	opt stack 0
   620  000095                     	ds	2
   621  000097                     I2C1_ISR@pi2c_buf_ptr:
   622                           	opt stack 0
   623  000097                     	ds	2
   624  000099                     _p_i2c1_current:
   625                           	opt stack 0
   626  000099                     	ds	2
   627  00009B                     _selection:
   628                           	opt stack 0
   629  00009B                     	ds	2
   630  00009D                     _Vitesse_Moteur_D:
   631                           	opt stack 0
   632  00009D                     	ds	2
   633  00009F                     _Vitesse_Moteur_G:
   634                           	opt stack 0
   635  00009F                     	ds	2
   636  0000A1                     _eusart1RxLastError:
   637                           	opt stack 0
   638  0000A1                     	ds	1
   639  0000A2                     _eusart1RxHead:
   640                           	opt stack 0
   641  0000A2                     	ds	1
   642  0000A3                     _eusart1TxTail:
   643                           	opt stack 0
   644  0000A3                     	ds	1
   645  0000A4                     _eusart1TxHead:
   646                           	opt stack 0
   647  0000A4                     	ds	1
   648  0000A5                     I2C1_MasterRead@trBlock:
   649                           	opt stack 0
   650  0000A5                     	ds	5
   651  0000AA                     I2C1_MasterWrite@trBlock:
   652                           	opt stack 0
   653  0000AA                     	ds	5
   654  0000AF                     _i2c1_tr_queue:
   655                           	opt stack 0
   656  0000AF                     	ds	5
   657                           tblptru	equ	0xFF8
   658                           tblptrh	equ	0xFF7
   659                           tblptrl	equ	0xFF6
   660                           tablat	equ	0xFF5
   661                           postinc0	equ	0xFEE
   662                           wreg	equ	0xFE8
   663                           postdec1	equ	0xFE5
   664                           fsr1l	equ	0xFE1
   665                           
   666                           	psect	dataBANK0
   667  0000E5                     __pdataBANK0:
   668                           	opt stack 0
   669  0000E5                     _laserAddresses:
   670                           	opt stack 0
   671  0000E5                     	ds	3
   672  0000E8                     _ancien_dutyValue_D:
   673                           	opt stack 0
   674  0000E8                     	ds	2
   675  0000EA                     _ancien_dutyValue_G:
   676                           	opt stack 0
   677  0000EA                     	ds	2
   678  0000EC                     _Sigma_Erreur_Vitesse_Moteur_D:
   679                           	opt stack 0
   680  0000EC                     	ds	2
   681  0000EE                     _Sigma_Erreur_Vitesse_Moteur_G:
   682                           	opt stack 0
   683  0000EE                     	ds	2
   684                           tblptru	equ	0xFF8
   685                           tblptrh	equ	0xFF7
   686                           tblptrl	equ	0xFF6
   687                           tablat	equ	0xFF5
   688                           postinc0	equ	0xFEE
   689                           wreg	equ	0xFE8
   690                           postdec1	equ	0xFE5
   691                           fsr1l	equ	0xFE1
   692                           
   693                           	psect	bssBANK1
   694  000100                     __pbssBANK1:
   695                           	opt stack 0
   696  000100                     _eusart1RxBuffer:
   697                           	opt stack 0
   698  000100                     	ds	8
   699  000108                     _vl53l0xDev:
   700                           	opt stack 0
   701  000108                     	ds	117
   702                           tblptru	equ	0xFF8
   703                           tblptrh	equ	0xFF7
   704                           tblptrl	equ	0xFF6
   705                           tablat	equ	0xFF5
   706                           postinc0	equ	0xFEE
   707                           wreg	equ	0xFE8
   708                           postdec1	equ	0xFE5
   709                           fsr1l	equ	0xFE1
   710                           
   711                           	psect	cstackBANK1
   712  00018C                     __pcstackBANK1:
   713                           	opt stack 0
   714  00018C                     ??_lcdNibble:
   715  00018C                     retroLCD@on_off:
   716                           	opt stack 0
   717  00018C                     Motors@on_off:
   718                           	opt stack 0
   719  00018C                     LED@on_off:
   720                           	opt stack 0
   721  00018C                     Ecrit_Valeur_selection@Val_sel:
   722                           	opt stack 0
   723  00018C                     Speed_Motors@Cons_Vit_Mot_G:
   724                           	opt stack 0
   725  00018C                     IOCAF5_SetInterruptHandler@InterruptHandler:
   726                           	opt stack 0
   727  00018C                     IOCAF6_SetInterruptHandler@InterruptHandler:
   728                           	opt stack 0
   729  00018C                     IOCAF7_SetInterruptHandler@InterruptHandler:
   730                           	opt stack 0
   731  00018C                     IOCCF0_SetInterruptHandler@InterruptHandler:
   732                           	opt stack 0
   733  00018C                     TMR0_SetInterruptHandler@InterruptHandler:
   734                           	opt stack 0
   735  00018C                     EUSART1_SetFramingErrorHandler@interruptHandler:
   736                           	opt stack 0
   737  00018C                     EUSART1_SetOverrunErrorHandler@interruptHandler:
   738                           	opt stack 0
   739  00018C                     EUSART1_SetErrorHandler@interruptHandler:
   740                           	opt stack 0
   741  00018C                     EUSART1_SetTxInterruptHandler@interruptHandler:
   742                           	opt stack 0
   743  00018C                     EUSART1_SetRxInterruptHandler@interruptHandler:
   744                           	opt stack 0
   745  00018C                     TMR4_SetInterruptHandler@InterruptHandler:
   746                           	opt stack 0
   747  00018C                     TMR1_SetInterruptHandler@InterruptHandler:
   748                           	opt stack 0
   749  00018C                     TMR3_SetInterruptHandler@InterruptHandler:
   750                           	opt stack 0
   751                           
   752                           ; 3 bytes @ 0x0
   753  00018C                     	ds	1
   754  00018D                     lcdNibble@nibble:
   755                           	opt stack 0
   756  00018D                     LED@io:
   757                           	opt stack 0
   758                           
   759                           ; 1 bytes @ 0x1
   760  00018D                     	ds	1
   761  00018E                     writeLCD@type:
   762                           	opt stack 0
   763  00018E                     Speed_Motors@Cons_Vit_Mot_D:
   764                           	opt stack 0
   765                           
   766                           ; 2 bytes @ 0x2
   767  00018E                     	ds	1
   768  00018F                     ??_TMR0_Initialize:
   769  00018F                     ??_TMR3_Initialize:
   770  00018F                     ??_TMR1_Initialize:
   771  00018F                     writeLCD@byte:
   772                           	opt stack 0
   773                           
   774                           ; 1 bytes @ 0x3
   775  00018F                     	ds	1
   776  000190                     ??_clearLCD:
   777  000190                     gotoLCD@colonne:
   778                           	opt stack 0
   779  000190                     printLCD@t:
   780                           	opt stack 0
   781                           
   782                           ; 2 bytes @ 0x4
   783  000190                     	ds	1
   784  000191                     ??_initLCD:
   785  000191                     gotoLCD@ligne:
   786                           	opt stack 0
   787                           
   788                           ; 1 bytes @ 0x5
   789  000191                     	ds	1
   790  000192                     
   791                           ; 1 bytes @ 0x6
   792  000192                     	ds	1
   793  000193                     ??_main:
   794                           
   795                           ; 1 bytes @ 0x7
   796  000193                     	ds	2
   797  000195                     main@calibration_state:
   798                           	opt stack 0
   799                           
   800                           ; 2 bytes @ 0x9
   801  000195                     	ds	2
   802  000197                     main@state:
   803                           	opt stack 0
   804                           
   805                           ; 2 bytes @ 0xB
   806  000197                     	ds	2
   807  000199                     main@counter:
   808                           	opt stack 0
   809                           
   810                           ; 2 bytes @ 0xD
   811  000199                     	ds	2
   812                           tblptru	equ	0xFF8
   813                           tblptrh	equ	0xFF7
   814                           tblptrl	equ	0xFF6
   815                           tablat	equ	0xFF5
   816                           postinc0	equ	0xFEE
   817                           wreg	equ	0xFE8
   818                           postdec1	equ	0xFE5
   819                           fsr1l	equ	0xFE1
   820                           
   821                           	psect	cstackBANK0
   822  0000D3                     __pcstackBANK0:
   823                           	opt stack 0
   824  0000D3                     ??_INTERRUPT_InterruptManager:
   825                           
   826                           ; 1 bytes @ 0x0
   827  0000D3                     	ds	18
   828                           tblptru	equ	0xFF8
   829                           tblptrh	equ	0xFF7
   830                           tblptrl	equ	0xFF6
   831                           tablat	equ	0xFF5
   832                           postinc0	equ	0xFEE
   833                           wreg	equ	0xFE8
   834                           postdec1	equ	0xFE5
   835                           fsr1l	equ	0xFE1
   836                           
   837                           	psect	cstackCOMRAM
   838  000001                     __pcstackCOMRAM:
   839                           	opt stack 0
   840  000001                     ??_IOCAF6_DefaultInterruptHandler:
   841  000001                     ??_I2C1_Stop:
   842  000001                     ?_TMR1_ReadTimer:
   843                           	opt stack 0
   844  000001                     ?_TMR3_ReadTimer:
   845                           	opt stack 0
   846  000001                     ?___xxtofl:
   847                           	opt stack 0
   848  000001                     PWM1_LoadDutyValue@dutyValue:
   849                           	opt stack 0
   850  000001                     PWM2_LoadDutyValue@dutyValue:
   851                           	opt stack 0
   852  000001                     TMR1_WriteTimer@timerVal:
   853                           	opt stack 0
   854  000001                     TMR3_WriteTimer@timerVal:
   855                           	opt stack 0
   856  000001                     ___xxtofl@val:
   857                           	opt stack 0
   858                           
   859                           ; 4 bytes @ 0x0
   860  000001                     	ds	1
   861  000002                     
   862                           ; 1 bytes @ 0x1
   863  000002                     	ds	1
   864  000003                     ??_TMR1_ReadTimer:
   865  000003                     ??_TMR3_ReadTimer:
   866  000003                     I2C1_Stop@completion_code:
   867                           	opt stack 0
   868                           
   869                           ; 1 bytes @ 0x2
   870  000003                     	ds	1
   871  000004                     ??_I2C1_ISR:
   872                           
   873                           ; 1 bytes @ 0x3
   874  000004                     	ds	1
   875  000005                     ??___xxtofl:
   876  000005                     TMR1_ReadTimer@readVal:
   877                           	opt stack 0
   878  000005                     TMR3_ReadTimer@readVal:
   879                           	opt stack 0
   880                           
   881                           ; 2 bytes @ 0x4
   882  000005                     	ds	2
   883  000007                     TMR1_ReadTimer@readValHigh:
   884                           	opt stack 0
   885  000007                     TMR3_ReadTimer@readValHigh:
   886                           	opt stack 0
   887                           
   888                           ; 1 bytes @ 0x6
   889  000007                     	ds	1
   890  000008                     TMR1_ReadTimer@readValLow:
   891                           	opt stack 0
   892  000008                     TMR3_ReadTimer@readValLow:
   893                           	opt stack 0
   894                           
   895                           ; 1 bytes @ 0x7
   896  000008                     	ds	1
   897  000009                     ?___aldiv:
   898                           	opt stack 0
   899  000009                     ___xxtofl@sign:
   900                           	opt stack 0
   901  000009                     ___aldiv@dividend:
   902                           	opt stack 0
   903                           
   904                           ; 4 bytes @ 0x8
   905  000009                     	ds	1
   906  00000A                     ___xxtofl@exp:
   907                           	opt stack 0
   908                           
   909                           ; 1 bytes @ 0x9
   910  00000A                     	ds	1
   911  00000B                     ___xxtofl@arg:
   912                           	opt stack 0
   913                           
   914                           ; 4 bytes @ 0xA
   915  00000B                     	ds	2
   916  00000D                     ___aldiv@divisor:
   917                           	opt stack 0
   918                           
   919                           ; 4 bytes @ 0xC
   920  00000D                     	ds	2
   921  00000F                     ?___flmul:
   922                           	opt stack 0
   923  00000F                     ___flmul@b:
   924                           	opt stack 0
   925                           
   926                           ; 4 bytes @ 0xE
   927  00000F                     	ds	2
   928  000011                     ___aldiv@counter:
   929                           	opt stack 0
   930                           
   931                           ; 1 bytes @ 0x10
   932  000011                     	ds	1
   933  000012                     ___aldiv@sign:
   934                           	opt stack 0
   935                           
   936                           ; 1 bytes @ 0x11
   937  000012                     	ds	1
   938  000013                     ___aldiv@quotient:
   939                           	opt stack 0
   940  000013                     ___flmul@a:
   941                           	opt stack 0
   942                           
   943                           ; 4 bytes @ 0x12
   944  000013                     	ds	4
   945  000017                     ??___flmul:
   946  000017                     
   947                           ; 1 bytes @ 0x16
   948  000017                     	ds	4
   949  00001B                     ___flmul@sign:
   950                           	opt stack 0
   951                           
   952                           ; 1 bytes @ 0x1A
   953  00001B                     	ds	1
   954  00001C                     ___flmul@grs:
   955                           	opt stack 0
   956                           
   957                           ; 4 bytes @ 0x1B
   958  00001C                     	ds	4
   959  000020                     ___flmul@aexp:
   960                           	opt stack 0
   961                           
   962                           ; 1 bytes @ 0x1F
   963  000020                     	ds	1
   964  000021                     ___flmul@bexp:
   965                           	opt stack 0
   966                           
   967                           ; 1 bytes @ 0x20
   968  000021                     	ds	1
   969  000022                     ___flmul@prod:
   970                           	opt stack 0
   971                           
   972                           ; 4 bytes @ 0x21
   973  000022                     	ds	4
   974  000026                     ___flmul@temp:
   975                           	opt stack 0
   976                           
   977                           ; 2 bytes @ 0x25
   978  000026                     	ds	2
   979  000028                     ?___fladd:
   980                           	opt stack 0
   981  000028                     ___fladd@b:
   982                           	opt stack 0
   983                           
   984                           ; 4 bytes @ 0x27
   985  000028                     	ds	4
   986  00002C                     ___fladd@a:
   987                           	opt stack 0
   988                           
   989                           ; 4 bytes @ 0x2B
   990  00002C                     	ds	4
   991  000030                     ??___fladd:
   992                           
   993                           ; 1 bytes @ 0x2F
   994  000030                     	ds	8
   995  000038                     ___fladd@signs:
   996                           	opt stack 0
   997                           
   998                           ; 1 bytes @ 0x37
   999  000038                     	ds	1
  1000  000039                     ___fladd@aexp:
  1001                           	opt stack 0
  1002                           
  1003                           ; 1 bytes @ 0x38
  1004  000039                     	ds	1
  1005  00003A                     ___fladd@bexp:
  1006                           	opt stack 0
  1007                           
  1008                           ; 1 bytes @ 0x39
  1009  00003A                     	ds	1
  1010  00003B                     ___fladd@grs:
  1011                           	opt stack 0
  1012                           
  1013                           ; 1 bytes @ 0x3A
  1014  00003B                     	ds	1
  1015  00003C                     ?___fltol:
  1016                           	opt stack 0
  1017  00003C                     ___fltol@f1:
  1018                           	opt stack 0
  1019                           
  1020                           ; 4 bytes @ 0x3B
  1021  00003C                     	ds	4
  1022  000040                     ??___fltol:
  1023                           
  1024                           ; 1 bytes @ 0x3F
  1025  000040                     	ds	4
  1026  000044                     ___fltol@sign1:
  1027                           	opt stack 0
  1028                           
  1029                           ; 1 bytes @ 0x43
  1030  000044                     	ds	1
  1031  000045                     ___fltol@exp1:
  1032                           	opt stack 0
  1033                           
  1034                           ; 1 bytes @ 0x44
  1035  000045                     	ds	1
  1036  000046                     ??_TMR4_DefaultInterruptHandler:
  1037                           
  1038                           ; 1 bytes @ 0x45
  1039  000046                     	ds	2
  1040  000048                     _TMR4_DefaultInterruptHandler$5370:
  1041                           	opt stack 0
  1042                           
  1043                           ; 4 bytes @ 0x47
  1044  000048                     	ds	4
  1045  00004C                     tblptru	equ	0xFF8
  1046                           tblptrh	equ	0xFF7
  1047                           tblptrl	equ	0xFF6
  1048                           tablat	equ	0xFF5
  1049                           postinc0	equ	0xFEE
  1050                           wreg	equ	0xFE8
  1051                           postdec1	equ	0xFE5
  1052                           fsr1l	equ	0xFE1
  1053                           
  1054                           ; 1 bytes @ 0x4B
  1055 ;;
  1056 ;;Main: autosize = 0, tempsize = 2, incstack = 0, save=0
  1057 ;;
  1058 ;; *************** function _main *****************
  1059 ;; Defined at:
  1060 ;;		line 11 in file "main.c"
  1061 ;; Parameters:    Size  Location     Type
  1062 ;;		None
  1063 ;; Auto vars:     Size  Location     Type
  1064 ;;  counter         2   13[BANK1 ] int 
  1065 ;;  state           2   11[BANK1 ] int 
  1066 ;;  calibration_    2    9[BANK1 ] int 
  1067 ;; Return value:  Size  Location     Type
  1068 ;;                  1    wreg      void 
  1069 ;; Registers used:
  1070 ;;		wreg, status,2, status,0, tblptrl, tblptrh, tblptru, cstack
  1071 ;; Tracked objects:
  1072 ;;		On entry : 0/0
  1073 ;;		On exit  : 0/0
  1074 ;;		Unchanged: 0/0
  1075 ;; Data sizes:     COMRAM   BANK0   BANK1   BANK2   BANK3   BANK4   BANK5   BANK6   BANK7   BANK8   BANK9  BANK10  BANK1
      +1  BANK12  BANK13  BANK14
  1076 ;;      Params:         0       0       0       0       0       0       0       0       0       0       0       0       
      +0       0       0       0
  1077 ;;      Locals:         0       0       6       0       0       0       0       0       0       0       0       0       
      +0       0       0       0
  1078 ;;      Temps:          0       0       2       0       0       0       0       0       0       0       0       0       
      +0       0       0       0
  1079 ;;      Totals:         0       0       8       0       0       0       0       0       0       0       0       0       
      +0       0       0       0
  1080 ;;Total ram usage:        8 bytes
  1081 ;; Hardware stack levels required when called:    9
  1082 ;; This function calls:
  1083 ;;		_BP_selection
  1084 ;;		_Ecrit_Valeur_selection
  1085 ;;		_LED
  1086 ;;		_Motors
  1087 ;;		_SYSTEM_Initialize
  1088 ;;		_Speed_Motors
  1089 ;;		_clearLCD
  1090 ;;		_gotoLCD
  1091 ;;		_initLCD
  1092 ;;		_printLCD
  1093 ;;		_retroLCD
  1094 ;; This function is called by:
  1095 ;;		Startup code after reset
  1096 ;; This function uses a non-reentrant model
  1097 ;;
  1098                           
  1099                           	psect	text0
  1100  001AD0                     __ptext0:
  1101                           	opt stack 0
  1102  001AD0                     _main:
  1103                           	opt stack 22
  1104                           
  1105                           ;main.c: 13: SYSTEM_Initialize();
  1106                           
  1107                           ;incstack = 0
  1108  001AD0  EC17  F013         	call	_SYSTEM_Initialize	;wreg free
  1109                           
  1110                           ;main.c: 14: (INTCONbits.GIE = 1);
  1111  001AD4  8EF2               	bsf	intcon,7,c	;volatile
  1112                           
  1113                           ;main.c: 15: (INTCONbits.PEIE = 1);
  1114  001AD6  8CF2               	bsf	intcon,6,c	;volatile
  1115                           
  1116                           ;main.c: 17: LED(0, 1);
  1117  001AD8  0E01               	movlw	1
  1118  001ADA  0101               	movlb	1	; () banked
  1119  001ADC  6F8C               	movwf	LED@on_off& (0+255),b
  1120  001ADE  0E00               	movlw	0
  1121  001AE0  EC87  F013         	call	_LED
  1122                           
  1123                           ;main.c: 18: LED(1, 0);
  1124  001AE4  0E00               	movlw	0
  1125  001AE6  0101               	movlb	1	; () banked
  1126  001AE8  6F8C               	movwf	LED@on_off& (0+255),b
  1127  001AEA  0E01               	movlw	1
  1128  001AEC  EC87  F013         	call	_LED
  1129                           
  1130                           ;main.c: 20: Motors(0);
  1131  001AF0  0E00               	movlw	0
  1132  001AF2  ECAC  F015         	call	_Motors
  1133                           
  1134                           ;main.c: 21: Speed_Motors( 0, 0 );
  1135  001AF6  0E00               	movlw	0
  1136  001AF8  0101               	movlb	1	; () banked
  1137  001AFA  6F8D               	movwf	(Speed_Motors@Cons_Vit_Mot_G+1)& (0+255),b
  1138  001AFC  0E00               	movlw	0
  1139  001AFE  6F8C               	movwf	Speed_Motors@Cons_Vit_Mot_G& (0+255),b
  1140  001B00  0E00               	movlw	0
  1141  001B02  6F8F               	movwf	(Speed_Motors@Cons_Vit_Mot_D+1)& (0+255),b
  1142  001B04  0E00               	movlw	0
  1143  001B06  6F8E               	movwf	Speed_Motors@Cons_Vit_Mot_D& (0+255),b
  1144  001B08  ECC0  F015         	call	_Speed_Motors	;wreg free
  1145                           
  1146                           ;main.c: 22: initLCD();
  1147  001B0C  EC8B  F00F         	call	_initLCD	;wreg free
  1148                           
  1149                           ;main.c: 23: clearLCD();
  1150  001B10  ECEF  F014         	call	_clearLCD	;wreg free
  1151                           
  1152                           ;main.c: 24: retroLCD(1);
  1153  001B14  0E01               	movlw	1
  1154  001B16  ECA2  F015         	call	_retroLCD
  1155                           
  1156                           ;main.c: 25: _delay((unsigned long)((50)*(64000000/4000.0)));
  1157  001B1A  0E05               	movlw	5
  1158  001B1C  0101               	movlb	1	; () banked
  1159  001B1E  6F94               	movwf	(??_main+1)& (0+255),b
  1160  001B20  0E0F               	movlw	15
  1161  001B22  6F93               	movwf	??_main& (0+255),b
  1162  001B24  0EF1               	movlw	241
  1163  001B26                     u6457:
  1164  001B26  2EE8               	decfsz	wreg,f,c
  1165  001B28  D7FE               	bra	u6457
  1166  001B2A  2F93               	decfsz	??_main& (0+255),f,b
  1167  001B2C  D7FC               	bra	u6457
  1168  001B2E  2F94               	decfsz	(??_main+1)& (0+255),f,b
  1169  001B30  D7FA               	bra	u6457
  1170                           
  1171                           ;main.c: 26: gotoLCD(0,0); printLCD("     HELLO      ");
  1172  001B32  0E00               	movlw	0
  1173  001B34  0101               	movlb	1	; () banked
  1174  001B36  6F90               	movwf	gotoLCD@colonne& (0+255),b
  1175  001B38  0E00               	movlw	0
  1176  001B3A  EC20  F014         	call	_gotoLCD
  1177  001B3E  0E01               	movlw	low STR_1
  1178  001B40  0101               	movlb	1	; () banked
  1179  001B42  6F90               	movwf	printLCD@t& (0+255),b
  1180  001B44  0E0F               	movlw	high STR_1
  1181  001B46  6F91               	movwf	(printLCD@t+1)& (0+255),b
  1182  001B48  ECFA  F012         	call	_printLCD	;wreg free
  1183                           
  1184                           ;main.c: 27: gotoLCD(1,0); printLCD("PROGRAMME MOI !!");
  1185  001B4C  0E00               	movlw	0
  1186  001B4E  0101               	movlb	1	; () banked
  1187  001B50  6F90               	movwf	gotoLCD@colonne& (0+255),b
  1188  001B52  0E01               	movlw	1
  1189  001B54  EC20  F014         	call	_gotoLCD
  1190  001B58  0E12               	movlw	low STR_2
  1191  001B5A  0101               	movlb	1	; () banked
  1192  001B5C  6F90               	movwf	printLCD@t& (0+255),b
  1193  001B5E  0E0F               	movlw	high STR_2
  1194  001B60  6F91               	movwf	(printLCD@t+1)& (0+255),b
  1195  001B62  ECFA  F012         	call	_printLCD	;wreg free
  1196                           
  1197                           ;main.c: 28: _delay((unsigned long)((3000)*(64000000/4000.0)));
  1198  001B66  0EF4               	movlw	244
  1199  001B68  0101               	movlb	1	; () banked
  1200  001B6A  6F94               	movwf	(??_main+1)& (0+255),b
  1201  001B6C  0E82               	movlw	130
  1202  001B6E  6F93               	movwf	??_main& (0+255),b
  1203  001B70  0E05               	movlw	5
  1204  001B72                     u6467:
  1205  001B72  2EE8               	decfsz	wreg,f,c
  1206  001B74  D7FE               	bra	u6467
  1207  001B76  2F93               	decfsz	??_main& (0+255),f,b
  1208  001B78  D7FC               	bra	u6467
  1209  001B7A  2F94               	decfsz	(??_main+1)& (0+255),f,b
  1210  001B7C  D7FA               	bra	u6467
  1211                           
  1212                           ;main.c: 30: Ecrit_Valeur_selection(0);
  1213  001B7E  0E00               	movlw	0
  1214  001B80  0101               	movlb	1	; () banked
  1215  001B82  6F8D               	movwf	(Ecrit_Valeur_selection@Val_sel+1)& (0+255),b
  1216  001B84  0E00               	movlw	0
  1217  001B86  6F8C               	movwf	Ecrit_Valeur_selection@Val_sel& (0+255),b
  1218  001B88  EC30  F016         	call	_Ecrit_Valeur_selection	;wreg free
  1219                           
  1220                           ;main.c: 31: int state = 0;
  1221  001B8C  0E00               	movlw	0
  1222  001B8E  0101               	movlb	1	; () banked
  1223  001B90  6F98               	movwf	(main@state+1)& (0+255),b
  1224  001B92  0E00               	movlw	0
  1225  001B94  6F97               	movwf	main@state& (0+255),b
  1226                           
  1227                           ; BSR set to: 1
  1228                           ;main.c: 32: int counter = 0;
  1229  001B96  0E00               	movlw	0
  1230  001B98  6F9A               	movwf	(main@counter+1)& (0+255),b
  1231  001B9A  0E00               	movlw	0
  1232  001B9C  6F99               	movwf	main@counter& (0+255),b
  1233                           
  1234                           ; BSR set to: 1
  1235                           ;main.c: 33: int calibration_state = 0;
  1236  001B9E  0E00               	movlw	0
  1237  001BA0  6F96               	movwf	(main@calibration_state+1)& (0+255),b
  1238  001BA2  0E00               	movlw	0
  1239  001BA4  6F95               	movwf	main@calibration_state& (0+255),b
  1240                           
  1241                           ; BSR set to: 1
  1242                           ;main.c: 36: {
  1243                           ;main.c: 37: switch(state)
  1244                           
  1245                           ;main.c: 35: while (1)
  1246  001BA6  D06D               	goto	l1689
  1247  001BA8                     
  1248                           ; BSR set to: 1
  1249                           ;main.c: 40: Motors(0);
  1250                           
  1251                           ; BSR set to: 1
  1252  001BA8  0E00               	movlw	0
  1253  001BAA  ECAC  F015         	call	_Motors
  1254                           
  1255                           ;main.c: 41: if(BP_selection()==0)
  1256  001BAE  EC24  F016         	call	_BP_selection	;wreg free
  1257  001BB2  0900               	iorlw	0
  1258  001BB4  A4D8               	btfss	status,2,c
  1259  001BB6  D078               	goto	l1692
  1260                           
  1261                           ;main.c: 42: {
  1262                           ;main.c: 43: state=1;
  1263  001BB8  0E00               	movlw	0
  1264  001BBA  0101               	movlb	1	; () banked
  1265  001BBC  6F98               	movwf	(main@state+1)& (0+255),b
  1266  001BBE  0E01               	movlw	1
  1267  001BC0  6F97               	movwf	main@state& (0+255),b
  1268                           
  1269                           ;main.c: 44: counter = 0;
  1270  001BC2  0E00               	movlw	0
  1271  001BC4  6F9A               	movwf	(main@counter+1)& (0+255),b
  1272  001BC6  0E00               	movlw	0
  1273  001BC8  6F99               	movwf	main@counter& (0+255),b
  1274                           
  1275                           ; BSR set to: 1
  1276                           ;main.c: 45: }
  1277                           ;main.c: 46: break;
  1278  001BCA  D06E               	goto	l1692
  1279  001BCC                     
  1280                           ; BSR set to: 1
  1281                           ;main.c: 49: counter++;
  1282                           
  1283                           ; BSR set to: 1
  1284  001BCC  4B99               	infsnz	main@counter& (0+255),f,b
  1285  001BCE  2B9A               	incf	(main@counter+1)& (0+255),f,b
  1286                           
  1287                           ; BSR set to: 1
  1288                           ;main.c: 50: Motors(1);
  1289  001BD0  0E01               	movlw	1
  1290  001BD2  ECAC  F015         	call	_Motors
  1291                           
  1292                           ;main.c: 51: Speed_Motors(10, -10);
  1293  001BD6  0E00               	movlw	0
  1294  001BD8  0101               	movlb	1	; () banked
  1295  001BDA  6F8D               	movwf	(Speed_Motors@Cons_Vit_Mot_G+1)& (0+255),b
  1296  001BDC  0E0A               	movlw	10
  1297  001BDE  6F8C               	movwf	Speed_Motors@Cons_Vit_Mot_G& (0+255),b
  1298  001BE0  0EFF               	movlw	255
  1299  001BE2  6F8F               	movwf	(Speed_Motors@Cons_Vit_Mot_D+1)& (0+255),b
  1300  001BE4  0EF6               	movlw	246
  1301  001BE6  6F8E               	movwf	Speed_Motors@Cons_Vit_Mot_D& (0+255),b
  1302  001BE8  ECC0  F015         	call	_Speed_Motors	;wreg free
  1303                           
  1304                           ;main.c: 52: LED(1, 1);
  1305  001BEC  0E01               	movlw	1
  1306  001BEE  0101               	movlb	1	; () banked
  1307  001BF0  6F8C               	movwf	LED@on_off& (0+255),b
  1308  001BF2  0E01               	movlw	1
  1309  001BF4  EC87  F013         	call	_LED
  1310                           
  1311                           ;main.c: 53: if(counter>=10)
  1312  001BF8  0101               	movlb	1	; () banked
  1313  001BFA  BF9A               	btfsc	(main@counter+1)& (0+255),7,b
  1314  001BFC  D055               	goto	l1692
  1315  001BFE  519A               	movf	(main@counter+1)& (0+255),w,b
  1316  001C00  E104               	bnz	u6260
  1317  001C02  0E0A               	movlw	10
  1318  001C04  5D99               	subwf	main@counter& (0+255),w,b
  1319  001C06  A0D8               	btfss	status,0,c
  1320  001C08  D04F               	goto	l1692
  1321  001C0A                     u6260:
  1322                           
  1323                           ; BSR set to: 1
  1324                           ;main.c: 54: {
  1325                           ;main.c: 55: state=2;
  1326  001C0A  0E00               	movlw	0
  1327  001C0C  6F98               	movwf	(main@state+1)& (0+255),b
  1328  001C0E  0E02               	movlw	2
  1329  001C10  6F97               	movwf	main@state& (0+255),b
  1330                           
  1331                           ;main.c: 56: counter = 0;
  1332  001C12  0E00               	movlw	0
  1333  001C14  6F9A               	movwf	(main@counter+1)& (0+255),b
  1334  001C16  0E00               	movlw	0
  1335  001C18  6F99               	movwf	main@counter& (0+255),b
  1336                           
  1337                           ; BSR set to: 1
  1338                           ;main.c: 57: LED(1, 0);
  1339  001C1A  0E00               	movlw	0
  1340  001C1C  6F8C               	movwf	LED@on_off& (0+255),b
  1341  001C1E  0E01               	movlw	1
  1342  001C20  EC87  F013         	call	_LED
  1343                           
  1344                           ;main.c: 58: }
  1345                           ;main.c: 59: break;
  1346  001C24  D041               	goto	l1692
  1347  001C26                     
  1348                           ;main.c: 62: counter++;
  1349  001C26  0101               	movlb	1	; () banked
  1350  001C28  4B99               	infsnz	main@counter& (0+255),f,b
  1351  001C2A  2B9A               	incf	(main@counter+1)& (0+255),f,b
  1352                           
  1353                           ; BSR set to: 1
  1354                           ;main.c: 63: Motors(1);
  1355  001C2C  0E01               	movlw	1
  1356  001C2E  ECAC  F015         	call	_Motors
  1357                           
  1358                           ;main.c: 64: Speed_Motors(10,0);
  1359  001C32  0E00               	movlw	0
  1360  001C34  0101               	movlb	1	; () banked
  1361  001C36  6F8D               	movwf	(Speed_Motors@Cons_Vit_Mot_G+1)& (0+255),b
  1362  001C38  0E0A               	movlw	10
  1363  001C3A  6F8C               	movwf	Speed_Motors@Cons_Vit_Mot_G& (0+255),b
  1364  001C3C  0E00               	movlw	0
  1365  001C3E  6F8F               	movwf	(Speed_Motors@Cons_Vit_Mot_D+1)& (0+255),b
  1366  001C40  0E00               	movlw	0
  1367  001C42  6F8E               	movwf	Speed_Motors@Cons_Vit_Mot_D& (0+255),b
  1368  001C44  ECC0  F015         	call	_Speed_Motors	;wreg free
  1369                           
  1370                           ;main.c: 65: LED(0, 1);
  1371  001C48  0E01               	movlw	1
  1372  001C4A  0101               	movlb	1	; () banked
  1373  001C4C  6F8C               	movwf	LED@on_off& (0+255),b
  1374  001C4E  0E00               	movlw	0
  1375  001C50  EC87  F013         	call	_LED
  1376                           
  1377                           ;main.c: 66: if(counter>=10){
  1378  001C54  0101               	movlb	1	; () banked
  1379  001C56  BF9A               	btfsc	(main@counter+1)& (0+255),7,b
  1380  001C58  D027               	goto	l1692
  1381  001C5A  519A               	movf	(main@counter+1)& (0+255),w,b
  1382  001C5C  E104               	bnz	u6270
  1383  001C5E  0E0A               	movlw	10
  1384  001C60  5D99               	subwf	main@counter& (0+255),w,b
  1385  001C62  A0D8               	btfss	status,0,c
  1386  001C64  D021               	goto	l1692
  1387  001C66                     u6270:
  1388                           
  1389                           ; BSR set to: 1
  1390                           ;main.c: 67: state=1;
  1391  001C66  0E00               	movlw	0
  1392  001C68  6F98               	movwf	(main@state+1)& (0+255),b
  1393  001C6A  0E01               	movlw	1
  1394  001C6C  6F97               	movwf	main@state& (0+255),b
  1395                           
  1396                           ;main.c: 68: counter = 0;
  1397  001C6E  0E00               	movlw	0
  1398  001C70  6F9A               	movwf	(main@counter+1)& (0+255),b
  1399  001C72  0E00               	movlw	0
  1400  001C74  6F99               	movwf	main@counter& (0+255),b
  1401                           
  1402                           ; BSR set to: 1
  1403                           ;main.c: 69: LED(0, 0);
  1404  001C76  0E00               	movlw	0
  1405  001C78  6F8C               	movwf	LED@on_off& (0+255),b
  1406  001C7A  0E00               	movlw	0
  1407  001C7C  EC87  F013         	call	_LED
  1408                           
  1409                           ;main.c: 72: }
  1410                           
  1411                           ;main.c: 70: }
  1412                           ;main.c: 71: break;
  1413  001C80  D013               	goto	l1692
  1414  001C82                     l1689:
  1415  001C82  C197  F193         	movff	main@state,??_main
  1416  001C86  C198  F194         	movff	main@state+1,??_main+1
  1417                           
  1418                           ; Switch on 2 bytes has been partitioned into a top level switch of size 1, and 1 sub-sw
      +                          itches
  1419                           ; Switch size 1, requested type "space"
  1420                           ; Number of cases is 1, Range of values is 0 to 0
  1421                           ; switch strategies available:
  1422                           ; Name         Instructions Cycles
  1423                           ; simple_byte            4     3 (average)
  1424                           ;	Chosen strategy is simple_byte
  1425  001C8A  0101               	movlb	1	; () banked
  1426  001C8C  5194               	movf	(??_main+1)& (0+255),w,b
  1427  001C8E  0A00               	xorlw	0	; case 0
  1428  001C90  A4D8               	btfss	status,2,c
  1429  001C92  D00A               	goto	l1692
  1430                           
  1431                           ; BSR set to: 1
  1432                           ; Switch size 1, requested type "space"
  1433                           ; Number of cases is 3, Range of values is 0 to 2
  1434                           ; switch strategies available:
  1435                           ; Name         Instructions Cycles
  1436                           ; simple_byte           10     6 (average)
  1437                           ;	Chosen strategy is simple_byte
  1438  001C94  5193               	movf	??_main& (0+255),w,b
  1439  001C96  0A00               	xorlw	0	; case 0
  1440  001C98  B4D8               	btfsc	status,2,c
  1441  001C9A  D786               	goto	l1690
  1442  001C9C  0A01               	xorlw	1	; case 1
  1443  001C9E  B4D8               	btfsc	status,2,c
  1444  001CA0  D795               	goto	l1693
  1445  001CA2  0A03               	xorlw	3	; case 2
  1446  001CA4  B4D8               	btfsc	status,2,c
  1447  001CA6  D7BF               	goto	l1695
  1448  001CA8                     l1692:
  1449                           
  1450                           ;main.c: 73: _delay((unsigned long)((100)*(64000000/4000.0)));
  1451                           
  1452                           ; BSR set to: 1
  1453  001CA8  0E09               	movlw	9
  1454  001CAA  0101               	movlb	1	; () banked
  1455  001CAC  6F94               	movwf	(??_main+1)& (0+255),b
  1456  001CAE  0E1E               	movlw	30
  1457  001CB0  6F93               	movwf	??_main& (0+255),b
  1458  001CB2  0EE4               	movlw	228
  1459  001CB4                     u6477:
  1460  001CB4  2EE8               	decfsz	wreg,f,c
  1461  001CB6  D7FE               	bra	u6477
  1462  001CB8  2F93               	decfsz	??_main& (0+255),f,b
  1463  001CBA  D7FC               	bra	u6477
  1464  001CBC  2F94               	decfsz	(??_main+1)& (0+255),f,b
  1465  001CBE  D7FA               	bra	u6477
  1466  001CC0  F000               	nop	
  1467  001CC2  D7DF               	goto	l1689
  1468  001CC4                     __end_of_main:
  1469                           	opt stack 0
  1470                           tblptru	equ	0xFF8
  1471                           tblptrh	equ	0xFF7
  1472                           tblptrl	equ	0xFF6
  1473                           tablat	equ	0xFF5
  1474                           intcon	equ	0xFF2
  1475                           postinc0	equ	0xFEE
  1476                           wreg	equ	0xFE8
  1477                           postdec1	equ	0xFE5
  1478                           fsr1l	equ	0xFE1
  1479                           status	equ	0xFD8
  1480                           
  1481 ;; *************** function _retroLCD *****************
  1482 ;; Defined at:
  1483 ;;		line 176 in file "drivers/LCD.c"
  1484 ;; Parameters:    Size  Location     Type
  1485 ;;  on_off          1    wreg     unsigned char 
  1486 ;; Auto vars:     Size  Location     Type
  1487 ;;  on_off          1    0[BANK1 ] unsigned char 
  1488 ;; Return value:  Size  Location     Type
  1489 ;;                  1    wreg      void 
  1490 ;; Registers used:
  1491 ;;		wreg, status,2
  1492 ;; Tracked objects:
  1493 ;;		On entry : 0/0
  1494 ;;		On exit  : 0/0
  1495 ;;		Unchanged: 0/0
  1496 ;; Data sizes:     COMRAM   BANK0   BANK1   BANK2   BANK3   BANK4   BANK5   BANK6   BANK7   BANK8   BANK9  BANK10  BANK1
      +1  BANK12  BANK13  BANK14
  1497 ;;      Params:         0       0       0       0       0       0       0       0       0       0       0       0       
      +0       0       0       0
  1498 ;;      Locals:         0       0       1       0       0       0       0       0       0       0       0       0       
      +0       0       0       0
  1499 ;;      Temps:          0       0       0       0       0       0       0       0       0       0       0       0       
      +0       0       0       0
  1500 ;;      Totals:         0       0       1       0       0       0       0       0       0       0       0       0       
      +0       0       0       0
  1501 ;;Total ram usage:        1 bytes
  1502 ;; Hardware stack levels used:    1
  1503 ;; Hardware stack levels required when called:    5
  1504 ;; This function calls:
  1505 ;;		Nothing
  1506 ;; This function is called by:
  1507 ;;		_main
  1508 ;; This function uses a non-reentrant model
  1509 ;;
  1510                           
  1511                           	psect	text1
  1512  002B44                     __ptext1:
  1513                           	opt stack 0
  1514  002B44                     _retroLCD:
  1515                           	opt stack 25
  1516                           
  1517                           ;incstack = 0
  1518                           ;retroLCD@on_off stored from wreg
  1519  002B44  0101               	movlb	1	; () banked
  1520  002B46  6F8C               	movwf	retroLCD@on_off& (0+255),b
  1521                           
  1522                           ;LCD.c: 178: if(on_off)
  1523  002B48  0101               	movlb	1	; () banked
  1524  002B4A  518C               	movf	retroLCD@on_off& (0+255),w,b
  1525  002B4C  B4D8               	btfsc	status,2,c
  1526  002B4E  D002               	goto	l399
  1527                           
  1528                           ; BSR set to: 1
  1529                           ;LCD.c: 179: {
  1530                           ;LCD.c: 180: LATEbits.LATE2 = 1;
  1531  002B50  8487               	bsf	3975,2,c	;volatile
  1532                           
  1533                           ;LCD.c: 181: }
  1534  002B52  0012               	return	
  1535  002B54                     l399:
  1536                           
  1537                           ; BSR set to: 1
  1538                           ;LCD.c: 182: else
  1539                           ;LCD.c: 183: {
  1540                           ;LCD.c: 184: LATEbits.LATE2 = 0;
  1541  002B54  9487               	bcf	3975,2,c	;volatile
  1542  002B56  0012               	return	
  1543  002B58                     __end_of_retroLCD:
  1544                           	opt stack 0
  1545                           tblptru	equ	0xFF8
  1546                           tblptrh	equ	0xFF7
  1547                           tblptrl	equ	0xFF6
  1548                           tablat	equ	0xFF5
  1549                           intcon	equ	0xFF2
  1550                           postinc0	equ	0xFEE
  1551                           wreg	equ	0xFE8
  1552                           postdec1	equ	0xFE5
  1553                           fsr1l	equ	0xFE1
  1554                           status	equ	0xFD8
  1555                           
  1556 ;; *************** function _printLCD *****************
  1557 ;; Defined at:
  1558 ;;		line 132 in file "drivers/LCD.c"
  1559 ;; Parameters:    Size  Location     Type
  1560 ;;  t               2    4[BANK1 ] PTR unsigned char 
  1561 ;;		 -> STR_4(4), STR_3(4), STR_2(17), STR_1(17), 
  1562 ;; Auto vars:     Size  Location     Type
  1563 ;;		None
  1564 ;; Return value:  Size  Location     Type
  1565 ;;                  1    wreg      void 
  1566 ;; Registers used:
  1567 ;;		wreg, status,2, status,0, tblptrl, tblptrh, tblptru, cstack
  1568 ;; Tracked objects:
  1569 ;;		On entry : 0/0
  1570 ;;		On exit  : 0/0
  1571 ;;		Unchanged: 0/0
  1572 ;; Data sizes:     COMRAM   BANK0   BANK1   BANK2   BANK3   BANK4   BANK5   BANK6   BANK7   BANK8   BANK9  BANK10  BANK1
      +1  BANK12  BANK13  BANK14
  1573 ;;      Params:         0       0       2       0       0       0       0       0       0       0       0       0       
      +0       0       0       0
  1574 ;;      Locals:         0       0       0       0       0       0       0       0       0       0       0       0       
      +0       0       0       0
  1575 ;;      Temps:          0       0       0       0       0       0       0       0       0       0       0       0       
      +0       0       0       0
  1576 ;;      Totals:         0       0       2       0       0       0       0       0       0       0       0       0       
      +0       0       0       0
  1577 ;;Total ram usage:        2 bytes
  1578 ;; Hardware stack levels used:    1
  1579 ;; Hardware stack levels required when called:    7
  1580 ;; This function calls:
  1581 ;;		_writeLCD
  1582 ;; This function is called by:
  1583 ;;		_main
  1584 ;;		_LCDvalue_laser_Range
  1585 ;; This function uses a non-reentrant model
  1586 ;;
  1587                           
  1588                           	psect	text2
  1589  0025F4                     __ptext2:
  1590                           	opt stack 0
  1591  0025F4                     _printLCD:
  1592                           	opt stack 23
  1593                           
  1594                           ;LCD.c: 133: while(*t != '\0'){
  1595                           
  1596                           ; BSR set to: 1
  1597                           ;incstack = 0
  1598  0025F4  D010               	goto	l387
  1599  0025F6                     
  1600                           ;LCD.c: 134: writeLCD(*t++, DATA);
  1601  0025F6  0E01               	movlw	1
  1602  0025F8  0101               	movlb	1	; () banked
  1603  0025FA  6F8E               	movwf	writeLCD@type& (0+255),b
  1604  0025FC  C190  FFF6         	movff	printLCD@t,tblptrl
  1605  002600  C191  FFF7         	movff	printLCD@t+1,tblptrh
  1606  002604                     	if	0	;tblptru may be non-zero
  1607  002604                     	endif
  1608  002604                     	if	1	;Program memory is > 0xFFFF, there are 3 active tblptr bytes
  1609  002604  0E00               	movlw	low (__mediumconst shr (0+16))
  1610  002606  6EF8               	movwf	tblptru,c
  1611  002608                     	endif
  1612  002608  0008               	tblrd		*
  1613  00260A  50F5               	movf	tablat,w,c
  1614  00260C  EC51  F013         	call	_writeLCD
  1615  002610  0101               	movlb	1	; () banked
  1616  002612  4B90               	infsnz	printLCD@t& (0+255),f,b
  1617  002614  2B91               	incf	(printLCD@t+1)& (0+255),f,b
  1618  002616                     l387:
  1619                           
  1620                           ; BSR set to: 1
  1621  002616  C190  FFF6         	movff	printLCD@t,tblptrl
  1622  00261A  C191  FFF7         	movff	printLCD@t+1,tblptrh
  1623  00261E                     	if	0	;tblptru may be non-zero
  1624  00261E                     	endif
  1625  00261E                     	if	1	;Program memory is > 0xFFFF, there are 3 active tblptr bytes
  1626  00261E  0E00               	movlw	low (__mediumconst shr (0+16))
  1627  002620  6EF8               	movwf	tblptru,c
  1628  002622                     	endif
  1629  002622  0008               	tblrd		*
  1630  002624  50F5               	movf	tablat,w,c
  1631  002626  0900               	iorlw	0
  1632  002628  B4D8               	btfsc	status,2,c
  1633  00262A  0012               	return	
  1634  00262C  D7E4               	goto	l388
  1635  00262E                     __end_of_printLCD:
  1636                           	opt stack 0
  1637                           tblptru	equ	0xFF8
  1638                           tblptrh	equ	0xFF7
  1639                           tblptrl	equ	0xFF6
  1640                           tablat	equ	0xFF5
  1641                           intcon	equ	0xFF2
  1642                           postinc0	equ	0xFEE
  1643                           wreg	equ	0xFE8
  1644                           postdec1	equ	0xFE5
  1645                           fsr1l	equ	0xFE1
  1646                           status	equ	0xFD8
  1647                           
  1648 ;; *************** function _initLCD *****************
  1649 ;; Defined at:
  1650 ;;		line 44 in file "drivers/LCD.c"
  1651 ;; Parameters:    Size  Location     Type
  1652 ;;		None
  1653 ;; Auto vars:     Size  Location     Type
  1654 ;;		None
  1655 ;; Return value:  Size  Location     Type
  1656 ;;                  1    wreg      void 
  1657 ;; Registers used:
  1658 ;;		wreg, status,2, status,0, cstack
  1659 ;; Tracked objects:
  1660 ;;		On entry : 0/0
  1661 ;;		On exit  : 0/0
  1662 ;;		Unchanged: 0/0
  1663 ;; Data sizes:     COMRAM   BANK0   BANK1   BANK2   BANK3   BANK4   BANK5   BANK6   BANK7   BANK8   BANK9  BANK10  BANK1
      +1  BANK12  BANK13  BANK14
  1664 ;;      Params:         0       0       0       0       0       0       0       0       0       0       0       0       
      +0       0       0       0
  1665 ;;      Locals:         0       0       0       0       0       0       0       0       0       0       0       0       
      +0       0       0       0
  1666 ;;      Temps:          0       0       2       0       0       0       0       0       0       0       0       0       
      +0       0       0       0
  1667 ;;      Totals:         0       0       2       0       0       0       0       0       0       0       0       0       
      +0       0       0       0
  1668 ;;Total ram usage:        2 bytes
  1669 ;; Hardware stack levels used:    1
  1670 ;; Hardware stack levels required when called:    8
  1671 ;; This function calls:
  1672 ;;		_clearLCD
  1673 ;;		_lcdNibble
  1674 ;;		_writeLCD
  1675 ;; This function is called by:
  1676 ;;		_main
  1677 ;; This function uses a non-reentrant model
  1678 ;;
  1679                           
  1680                           	psect	text3
  1681  001F16                     __ptext3:
  1682                           	opt stack 0
  1683  001F16                     _initLCD:
  1684                           	opt stack 22
  1685                           
  1686                           ;LCD.c: 45: LATAbits.LATA0 = 0;
  1687                           
  1688                           ;incstack = 0
  1689  001F16  9083               	bcf	3971,0,c	;volatile
  1690                           
  1691                           ;LCD.c: 46: LATAbits.LATA1 = 0;
  1692  001F18  9283               	bcf	3971,1,c	;volatile
  1693                           
  1694                           ;LCD.c: 48: _delay((unsigned long)((40)*(64000000/4000.0)));
  1695  001F1A  0E04               	movlw	4
  1696  001F1C  0101               	movlb	1	; () banked
  1697  001F1E  6F92               	movwf	(??_initLCD+1)& (0+255),b
  1698  001F20  0E40               	movlw	64
  1699  001F22  6F91               	movwf	??_initLCD& (0+255),b
  1700  001F24  0E26               	movlw	38
  1701  001F26                     u6487:
  1702  001F26  2EE8               	decfsz	wreg,f,c
  1703  001F28  D7FE               	bra	u6487
  1704  001F2A  2F91               	decfsz	??_initLCD& (0+255),f,b
  1705  001F2C  D7FC               	bra	u6487
  1706  001F2E  2F92               	decfsz	(??_initLCD+1)& (0+255),f,b
  1707  001F30  D7FA               	bra	u6487
  1708  001F32  F000               	nop	
  1709                           
  1710                           ;LCD.c: 52: lcdNibble(0b0011);
  1711  001F34  0E03               	movlw	3
  1712  001F36  EC7F  F011         	call	_lcdNibble
  1713                           
  1714                           ;LCD.c: 53: _delay((unsigned long)((5)*(64000000/4000.0)));
  1715  001F3A  0E68               	movlw	104
  1716  001F3C  0101               	movlb	1	; () banked
  1717  001F3E  6F91               	movwf	??_initLCD& (0+255),b
  1718  001F40  0EE4               	movlw	228
  1719  001F42                     u6497:
  1720  001F42  2EE8               	decfsz	wreg,f,c
  1721  001F44  D7FE               	bra	u6497
  1722  001F46  2F91               	decfsz	??_initLCD& (0+255),f,b
  1723  001F48  D7FC               	bra	u6497
  1724  001F4A  F000               	nop	
  1725                           
  1726                           ;LCD.c: 54: lcdNibble(0b0011);
  1727  001F4C  0E03               	movlw	3
  1728  001F4E  EC7F  F011         	call	_lcdNibble
  1729                           
  1730                           ;LCD.c: 55: _delay((unsigned long)((5)*(64000000/4000.0)));
  1731  001F52  0E68               	movlw	104
  1732  001F54  0101               	movlb	1	; () banked
  1733  001F56  6F91               	movwf	??_initLCD& (0+255),b
  1734  001F58  0EE4               	movlw	228
  1735  001F5A                     u6507:
  1736  001F5A  2EE8               	decfsz	wreg,f,c
  1737  001F5C  D7FE               	bra	u6507
  1738  001F5E  2F91               	decfsz	??_initLCD& (0+255),f,b
  1739  001F60  D7FC               	bra	u6507
  1740  001F62  F000               	nop	
  1741                           
  1742                           ;LCD.c: 56: lcdNibble(0b0011);
  1743  001F64  0E03               	movlw	3
  1744  001F66  EC7F  F011         	call	_lcdNibble
  1745                           
  1746                           ;LCD.c: 57: _delay((unsigned long)((5)*(64000000/4000.0)));
  1747  001F6A  0E68               	movlw	104
  1748  001F6C  0101               	movlb	1	; () banked
  1749  001F6E  6F91               	movwf	??_initLCD& (0+255),b
  1750  001F70  0EE4               	movlw	228
  1751  001F72                     u6517:
  1752  001F72  2EE8               	decfsz	wreg,f,c
  1753  001F74  D7FE               	bra	u6517
  1754  001F76  2F91               	decfsz	??_initLCD& (0+255),f,b
  1755  001F78  D7FC               	bra	u6517
  1756  001F7A  F000               	nop	
  1757                           
  1758                           ;LCD.c: 58: lcdNibble(0b0010);
  1759  001F7C  0E02               	movlw	2
  1760  001F7E  EC7F  F011         	call	_lcdNibble
  1761                           
  1762                           ;LCD.c: 59: _delay((unsigned long)((5)*(64000000/4000.0)));
  1763  001F82  0E68               	movlw	104
  1764  001F84  0101               	movlb	1	; () banked
  1765  001F86  6F91               	movwf	??_initLCD& (0+255),b
  1766  001F88  0EE4               	movlw	228
  1767  001F8A                     u6527:
  1768  001F8A  2EE8               	decfsz	wreg,f,c
  1769  001F8C  D7FE               	bra	u6527
  1770  001F8E  2F91               	decfsz	??_initLCD& (0+255),f,b
  1771  001F90  D7FC               	bra	u6527
  1772  001F92  F000               	nop	
  1773                           
  1774                           ;LCD.c: 71: writeLCD(((0b0010 << 4) | (1 << 3)), COMMAND);
  1775  001F94  0E00               	movlw	0
  1776  001F96  0101               	movlb	1	; () banked
  1777  001F98  6F8E               	movwf	writeLCD@type& (0+255),b
  1778  001F9A  0E28               	movlw	40
  1779  001F9C  EC51  F013         	call	_writeLCD
  1780                           
  1781                           ;LCD.c: 72: _delay((unsigned long)((5)*(64000000/4000.0)));
  1782  001FA0  0E68               	movlw	104
  1783  001FA2  0101               	movlb	1	; () banked
  1784  001FA4  6F91               	movwf	??_initLCD& (0+255),b
  1785  001FA6  0EE4               	movlw	228
  1786  001FA8                     u6537:
  1787  001FA8  2EE8               	decfsz	wreg,f,c
  1788  001FAA  D7FE               	bra	u6537
  1789  001FAC  2F91               	decfsz	??_initLCD& (0+255),f,b
  1790  001FAE  D7FC               	bra	u6537
  1791  001FB0  F000               	nop	
  1792                           
  1793                           ;LCD.c: 73: writeLCD(((0b1100) | (0 << 1) | (0 << 0)), COMMAND);
  1794  001FB2  0E00               	movlw	0
  1795  001FB4  0101               	movlb	1	; () banked
  1796  001FB6  6F8E               	movwf	writeLCD@type& (0+255),b
  1797  001FB8  0E0C               	movlw	12
  1798  001FBA  EC51  F013         	call	_writeLCD
  1799                           
  1800                           ;LCD.c: 74: _delay((unsigned long)((8)*(64000000/4000.0)));
  1801  001FBE  0EA7               	movlw	167
  1802  001FC0  0101               	movlb	1	; () banked
  1803  001FC2  6F91               	movwf	??_initLCD& (0+255),b
  1804  001FC4  0E3A               	movlw	58
  1805  001FC6                     u6547:
  1806  001FC6  2EE8               	decfsz	wreg,f,c
  1807  001FC8  D7FE               	bra	u6547
  1808  001FCA  2F91               	decfsz	??_initLCD& (0+255),f,b
  1809  001FCC  D7FC               	bra	u6547
  1810  001FCE  F000               	nop	
  1811                           
  1812                           ;LCD.c: 75: clearLCD();
  1813  001FD0  ECEF  F014         	call	_clearLCD	;wreg free
  1814                           
  1815                           ;LCD.c: 76: _delay((unsigned long)((5)*(64000000/4000.0)));
  1816  001FD4  0E68               	movlw	104
  1817  001FD6  0101               	movlb	1	; () banked
  1818  001FD8  6F91               	movwf	??_initLCD& (0+255),b
  1819  001FDA  0EE4               	movlw	228
  1820  001FDC                     u6557:
  1821  001FDC  2EE8               	decfsz	wreg,f,c
  1822  001FDE  D7FE               	bra	u6557
  1823  001FE0  2F91               	decfsz	??_initLCD& (0+255),f,b
  1824  001FE2  D7FC               	bra	u6557
  1825  001FE4  F000               	nop	
  1826                           
  1827                           ;LCD.c: 77: writeLCD(0x06, COMMAND);
  1828  001FE6  0E00               	movlw	0
  1829  001FE8  0101               	movlb	1	; () banked
  1830  001FEA  6F8E               	movwf	writeLCD@type& (0+255),b
  1831  001FEC  0E06               	movlw	6
  1832  001FEE  EC51  F013         	call	_writeLCD
  1833                           
  1834                           ;LCD.c: 78: _delay((unsigned long)((5)*(64000000/4000.0)));
  1835  001FF2  0E68               	movlw	104
  1836  001FF4  0101               	movlb	1	; () banked
  1837  001FF6  6F91               	movwf	??_initLCD& (0+255),b
  1838  001FF8  0EE4               	movlw	228
  1839  001FFA                     u6567:
  1840  001FFA  2EE8               	decfsz	wreg,f,c
  1841  001FFC  D7FE               	bra	u6567
  1842  001FFE  2F91               	decfsz	??_initLCD& (0+255),f,b
  1843  002000  D7FC               	bra	u6567
  1844  002002  F000               	nop	
  1845                           
  1846                           ;LCD.c: 79: clearLCD();
  1847  002004  ECEF  F014         	call	_clearLCD	;wreg free
  1848                           
  1849                           ;LCD.c: 81: LATAbits.LATA0 = 1;
  1850  002008  8083               	bsf	3971,0,c	;volatile
  1851  00200A  0012               	return		;funcret
  1852  00200C                     __end_of_initLCD:
  1853                           	opt stack 0
  1854                           tblptru	equ	0xFF8
  1855                           tblptrh	equ	0xFF7
  1856                           tblptrl	equ	0xFF6
  1857                           tablat	equ	0xFF5
  1858                           intcon	equ	0xFF2
  1859                           postinc0	equ	0xFEE
  1860                           wreg	equ	0xFE8
  1861                           postdec1	equ	0xFE5
  1862                           fsr1l	equ	0xFE1
  1863                           status	equ	0xFD8
  1864                           
  1865 ;; *************** function _clearLCD *****************
  1866 ;; Defined at:
  1867 ;;		line 103 in file "drivers/LCD.c"
  1868 ;; Parameters:    Size  Location     Type
  1869 ;;		None
  1870 ;; Auto vars:     Size  Location     Type
  1871 ;;		None
  1872 ;; Return value:  Size  Location     Type
  1873 ;;                  1    wreg      void 
  1874 ;; Registers used:
  1875 ;;		wreg, status,2, status,0, cstack
  1876 ;; Tracked objects:
  1877 ;;		On entry : 0/0
  1878 ;;		On exit  : 0/0
  1879 ;;		Unchanged: 0/0
  1880 ;; Data sizes:     COMRAM   BANK0   BANK1   BANK2   BANK3   BANK4   BANK5   BANK6   BANK7   BANK8   BANK9  BANK10  BANK1
      +1  BANK12  BANK13  BANK14
  1881 ;;      Params:         0       0       0       0       0       0       0       0       0       0       0       0       
      +0       0       0       0
  1882 ;;      Locals:         0       0       0       0       0       0       0       0       0       0       0       0       
      +0       0       0       0
  1883 ;;      Temps:          0       0       1       0       0       0       0       0       0       0       0       0       
      +0       0       0       0
  1884 ;;      Totals:         0       0       1       0       0       0       0       0       0       0       0       0       
      +0       0       0       0
  1885 ;;Total ram usage:        1 bytes
  1886 ;; Hardware stack levels used:    1
  1887 ;; Hardware stack levels required when called:    7
  1888 ;; This function calls:
  1889 ;;		_writeLCD
  1890 ;; This function is called by:
  1891 ;;		_initLCD
  1892 ;;		_main
  1893 ;; This function uses a non-reentrant model
  1894 ;;
  1895                           
  1896                           	psect	text4
  1897  0029DE                     __ptext4:
  1898                           	opt stack 0
  1899  0029DE                     _clearLCD:
  1900                           	opt stack 22
  1901                           
  1902                           ;LCD.c: 104: writeLCD(0x01, COMMAND);
  1903                           
  1904                           ;incstack = 0
  1905  0029DE  0E00               	movlw	0
  1906  0029E0  0101               	movlb	1	; () banked
  1907  0029E2  6F8E               	movwf	writeLCD@type& (0+255),b
  1908  0029E4  0E01               	movlw	1
  1909  0029E6  EC51  F013         	call	_writeLCD
  1910                           
  1911                           ;LCD.c: 105: _delay((unsigned long)((2)*(64000000/4000.0)));
  1912  0029EA  0E2A               	movlw	42
  1913  0029EC  0101               	movlb	1	; () banked
  1914  0029EE  6F90               	movwf	??_clearLCD& (0+255),b
  1915  0029F0  0E8D               	movlw	141
  1916  0029F2                     u6577:
  1917  0029F2  2EE8               	decfsz	wreg,f,c
  1918  0029F4  D7FE               	bra	u6577
  1919  0029F6  2F90               	decfsz	??_clearLCD& (0+255),f,b
  1920  0029F8  D7FC               	bra	u6577
  1921  0029FA  D000               	nop2	
  1922  0029FC  0012               	return		;funcret
  1923  0029FE                     __end_of_clearLCD:
  1924                           	opt stack 0
  1925                           tblptru	equ	0xFF8
  1926                           tblptrh	equ	0xFF7
  1927                           tblptrl	equ	0xFF6
  1928                           tablat	equ	0xFF5
  1929                           intcon	equ	0xFF2
  1930                           postinc0	equ	0xFEE
  1931                           wreg	equ	0xFE8
  1932                           postdec1	equ	0xFE5
  1933                           fsr1l	equ	0xFE1
  1934                           status	equ	0xFD8
  1935                           
  1936 ;; *************** function _gotoLCD *****************
  1937 ;; Defined at:
  1938 ;;		line 90 in file "drivers/LCD.c"
  1939 ;; Parameters:    Size  Location     Type
  1940 ;;  ligne           1    wreg     unsigned char 
  1941 ;;  colonne         1    4[BANK1 ] unsigned char 
  1942 ;; Auto vars:     Size  Location     Type
  1943 ;;  ligne           1    5[BANK1 ] unsigned char 
  1944 ;; Return value:  Size  Location     Type
  1945 ;;                  1    wreg      void 
  1946 ;; Registers used:
  1947 ;;		wreg, status,2, status,0, cstack
  1948 ;; Tracked objects:
  1949 ;;		On entry : 0/0
  1950 ;;		On exit  : 0/0
  1951 ;;		Unchanged: 0/0
  1952 ;; Data sizes:     COMRAM   BANK0   BANK1   BANK2   BANK3   BANK4   BANK5   BANK6   BANK7   BANK8   BANK9  BANK10  BANK1
      +1  BANK12  BANK13  BANK14
  1953 ;;      Params:         0       0       1       0       0       0       0       0       0       0       0       0       
      +0       0       0       0
  1954 ;;      Locals:         0       0       1       0       0       0       0       0       0       0       0       0       
      +0       0       0       0
  1955 ;;      Temps:          0       0       0       0       0       0       0       0       0       0       0       0       
      +0       0       0       0
  1956 ;;      Totals:         0       0       2       0       0       0       0       0       0       0       0       0       
      +0       0       0       0
  1957 ;;Total ram usage:        2 bytes
  1958 ;; Hardware stack levels used:    1
  1959 ;; Hardware stack levels required when called:    7
  1960 ;; This function calls:
  1961 ;;		_writeLCD
  1962 ;; This function is called by:
  1963 ;;		_main
  1964 ;; This function uses a non-reentrant model
  1965 ;;
  1966                           
  1967                           	psect	text5
  1968  002840                     __ptext5:
  1969                           	opt stack 0
  1970  002840                     _gotoLCD:
  1971                           	opt stack 23
  1972                           
  1973                           ;incstack = 0
  1974                           ;gotoLCD@ligne stored from wreg
  1975  002840  0101               	movlb	1	; () banked
  1976  002842  6F91               	movwf	gotoLCD@ligne& (0+255),b
  1977                           
  1978                           ;LCD.c: 92: LATAbits.LATA0 = 0;
  1979  002844  9083               	bcf	3971,0,c	;volatile
  1980                           
  1981                           ;LCD.c: 94: if(ligne == 0)
  1982  002846  0101               	movlb	1	; () banked
  1983  002848  5191               	movf	gotoLCD@ligne& (0+255),w,b
  1984  00284A  A4D8               	btfss	status,2,c
  1985  00284C  D007               	goto	l374
  1986                           
  1987                           ; BSR set to: 1
  1988                           ;LCD.c: 95: writeLCD(0x80 + colonne, COMMAND);
  1989  00284E  0E00               	movlw	0
  1990  002850  6F8E               	movwf	writeLCD@type& (0+255),b
  1991  002852  5190               	movf	gotoLCD@colonne& (0+255),w,b
  1992  002854  0F80               	addlw	128
  1993  002856  EC51  F013         	call	_writeLCD
  1994  00285A  0012               	return	
  1995  00285C                     l374:
  1996                           
  1997                           ;LCD.c: 96: else
  1998                           ;LCD.c: 97: writeLCD(0x80 + 0x40 + colonne, COMMAND);
  1999  00285C  0E00               	movlw	0
  2000  00285E  0101               	movlb	1	; () banked
  2001  002860  6F8E               	movwf	writeLCD@type& (0+255),b
  2002  002862  5190               	movf	gotoLCD@colonne& (0+255),w,b
  2003  002864  0FC0               	addlw	192
  2004  002866  EC51  F013         	call	_writeLCD
  2005  00286A  0012               	return	
  2006  00286C                     __end_of_gotoLCD:
  2007                           	opt stack 0
  2008                           tblptru	equ	0xFF8
  2009                           tblptrh	equ	0xFF7
  2010                           tblptrl	equ	0xFF6
  2011                           tablat	equ	0xFF5
  2012                           intcon	equ	0xFF2
  2013                           postinc0	equ	0xFEE
  2014                           wreg	equ	0xFE8
  2015                           postdec1	equ	0xFE5
  2016                           fsr1l	equ	0xFE1
  2017                           status	equ	0xFD8
  2018                           
  2019 ;; *************** function _writeLCD *****************
  2020 ;; Defined at:
  2021 ;;		line 113 in file "drivers/LCD.c"
  2022 ;; Parameters:    Size  Location     Type
  2023 ;;  byte            1    wreg     unsigned char 
  2024 ;;  type            1    2[BANK1 ] enum E11607
  2025 ;; Auto vars:     Size  Location     Type
  2026 ;;  byte            1    3[BANK1 ] unsigned char 
  2027 ;; Return value:  Size  Location     Type
  2028 ;;                  1    wreg      void 
  2029 ;; Registers used:
  2030 ;;		wreg, status,2, status,0, cstack
  2031 ;; Tracked objects:
  2032 ;;		On entry : 0/0
  2033 ;;		On exit  : 0/0
  2034 ;;		Unchanged: 0/0
  2035 ;; Data sizes:     COMRAM   BANK0   BANK1   BANK2   BANK3   BANK4   BANK5   BANK6   BANK7   BANK8   BANK9  BANK10  BANK1
      +1  BANK12  BANK13  BANK14
  2036 ;;      Params:         0       0       1       0       0       0       0       0       0       0       0       0       
      +0       0       0       0
  2037 ;;      Locals:         0       0       1       0       0       0       0       0       0       0       0       0       
      +0       0       0       0
  2038 ;;      Temps:          0       0       0       0       0       0       0       0       0       0       0       0       
      +0       0       0       0
  2039 ;;      Totals:         0       0       2       0       0       0       0       0       0       0       0       0       
      +0       0       0       0
  2040 ;;Total ram usage:        2 bytes
  2041 ;; Hardware stack levels used:    1
  2042 ;; Hardware stack levels required when called:    6
  2043 ;; This function calls:
  2044 ;;		_lcdNibble
  2045 ;; This function is called by:
  2046 ;;		_initLCD
  2047 ;;		_gotoLCD
  2048 ;;		_clearLCD
  2049 ;;		_printLCD
  2050 ;;		_LCDvalue8fp
  2051 ;;		_LCDvalue16fp
  2052 ;;		_LCDvalue_laser_Range
  2053 ;;		_LCDvalue32
  2054 ;;		_LCDvalue_Boolean
  2055 ;; This function uses a non-reentrant model
  2056 ;;
  2057                           
  2058                           	psect	text6
  2059  0026A2                     __ptext6:
  2060                           	opt stack 0
  2061  0026A2                     _writeLCD:
  2062                           	opt stack 23
  2063                           
  2064                           ;incstack = 0
  2065                           ;writeLCD@byte stored from wreg
  2066  0026A2  0101               	movlb	1	; () banked
  2067  0026A4  6F8F               	movwf	writeLCD@byte& (0+255),b
  2068                           
  2069                           ;LCD.c: 114: if(type == COMMAND)
  2070  0026A6  0101               	movlb	1	; () banked
  2071  0026A8  518E               	movf	writeLCD@type& (0+255),w,b
  2072  0026AA  A4D8               	btfss	status,2,c
  2073  0026AC  D002               	goto	l382
  2074                           
  2075                           ; BSR set to: 1
  2076                           ;LCD.c: 115: LATAbits.LATA0 = 0;
  2077  0026AE  9083               	bcf	3971,0,c	;volatile
  2078  0026B0  D001               	goto	l383
  2079  0026B2                     l382:
  2080                           
  2081                           ; BSR set to: 1
  2082                           ;LCD.c: 116: else
  2083                           ;LCD.c: 117: LATAbits.LATA0 = 1;
  2084  0026B2  8083               	bsf	3971,0,c	;volatile
  2085  0026B4                     l383:
  2086                           
  2087                           ; BSR set to: 1
  2088                           ;LCD.c: 119: _delay((unsigned long)((100)*(64000000/4000000.0)));
  2089                           
  2090                           ; BSR set to: 1
  2091  0026B4  0EE4               	movlw	228
  2092  0026B6                     u6587:
  2093  0026B6  D000               	nop2	
  2094  0026B8  D000               	nop2	
  2095  0026BA  2EE8               	decfsz	wreg,f,c
  2096  0026BC  D7FC               	bra	u6587
  2097  0026BE  D000               	nop2	
  2098  0026C0  D000               	nop2	
  2099                           
  2100                           ;LCD.c: 121: lcdNibble(byte >> 4);
  2101  0026C2  0101               	movlb	1	; () banked
  2102  0026C4  398F               	swapf	writeLCD@byte& (0+255),w,b
  2103  0026C6  0B0F               	andlw	15
  2104  0026C8  EC7F  F011         	call	_lcdNibble
  2105                           
  2106                           ;LCD.c: 122: lcdNibble(byte & 0x0F);
  2107  0026CC  0101               	movlb	1	; () banked
  2108  0026CE  518F               	movf	writeLCD@byte& (0+255),w,b
  2109  0026D0  0B0F               	andlw	15
  2110  0026D2  EC7F  F011         	call	_lcdNibble
  2111  0026D6  0012               	return		;funcret
  2112  0026D8                     __end_of_writeLCD:
  2113                           	opt stack 0
  2114                           tblptru	equ	0xFF8
  2115                           tblptrh	equ	0xFF7
  2116                           tblptrl	equ	0xFF6
  2117                           tablat	equ	0xFF5
  2118                           intcon	equ	0xFF2
  2119                           postinc0	equ	0xFEE
  2120                           wreg	equ	0xFE8
  2121                           postdec1	equ	0xFE5
  2122                           fsr1l	equ	0xFE1
  2123                           status	equ	0xFD8
  2124                           
  2125 ;; *************** function _lcdNibble *****************
  2126 ;; Defined at:
  2127 ;;		line 142 in file "drivers/LCD.c"
  2128 ;; Parameters:    Size  Location     Type
  2129 ;;  nibble          1    wreg     unsigned char 
  2130 ;; Auto vars:     Size  Location     Type
  2131 ;;  nibble          1    1[BANK1 ] unsigned char 
  2132 ;; Return value:  Size  Location     Type
  2133 ;;                  1    wreg      void 
  2134 ;; Registers used:
  2135 ;;		wreg, status,2, status,0
  2136 ;; Tracked objects:
  2137 ;;		On entry : 0/0
  2138 ;;		On exit  : 0/0
  2139 ;;		Unchanged: 0/0
  2140 ;; Data sizes:     COMRAM   BANK0   BANK1   BANK2   BANK3   BANK4   BANK5   BANK6   BANK7   BANK8   BANK9  BANK10  BANK1
      +1  BANK12  BANK13  BANK14
  2141 ;;      Params:         0       0       0       0       0       0       0       0       0       0       0       0       
      +0       0       0       0
  2142 ;;      Locals:         0       0       1       0       0       0       0       0       0       0       0       0       
      +0       0       0       0
  2143 ;;      Temps:          0       0       1       0       0       0       0       0       0       0       0       0       
      +0       0       0       0
  2144 ;;      Totals:         0       0       2       0       0       0       0       0       0       0       0       0       
      +0       0       0       0
  2145 ;;Total ram usage:        2 bytes
  2146 ;; Hardware stack levels used:    1
  2147 ;; Hardware stack levels required when called:    5
  2148 ;; This function calls:
  2149 ;;		Nothing
  2150 ;; This function is called by:
  2151 ;;		_initLCD
  2152 ;;		_writeLCD
  2153 ;; This function uses a non-reentrant model
  2154 ;;
  2155                           
  2156                           	psect	text7
  2157  0022FE                     __ptext7:
  2158                           	opt stack 0
  2159  0022FE                     _lcdNibble:
  2160                           	opt stack 23
  2161                           
  2162                           ;incstack = 0
  2163                           ;lcdNibble@nibble stored from wreg
  2164  0022FE  0101               	movlb	1	; () banked
  2165  002300  6F8D               	movwf	lcdNibble@nibble& (0+255),b
  2166                           
  2167                           ;LCD.c: 143: LATAbits.LATA2 = (nibble & 0x01) ? 1 : 0;
  2168  002302  0101               	movlb	1	; () banked
  2169  002304  A18D               	btfss	lcdNibble@nibble& (0+255),0,b
  2170  002306  D003               	goto	u6090
  2171  002308  6B8C               	clrf	??_lcdNibble& (0+255),b
  2172  00230A  2B8C               	incf	??_lcdNibble& (0+255),f,b
  2173  00230C  D002               	goto	u6108
  2174  00230E                     u6090:
  2175  00230E  0101               	movlb	1	; () banked
  2176  002310  6B8C               	clrf	??_lcdNibble& (0+255),b
  2177  002312                     u6108:
  2178  002312  478C               	rlncf	??_lcdNibble& (0+255),f,b
  2179  002314  478C               	rlncf	??_lcdNibble& (0+255),f,b
  2180  002316  5083               	movf	3971,w,c	;volatile
  2181  002318  198C               	xorwf	??_lcdNibble& (0+255),w,b
  2182  00231A  0BFB               	andlw	-5
  2183  00231C  198C               	xorwf	??_lcdNibble& (0+255),w,b
  2184  00231E  6E83               	movwf	3971,c	;volatile
  2185                           
  2186                           ;LCD.c: 144: LATAbits.LATA3 = (nibble & 0x02) ? 1 : 0;
  2187  002320  A38D               	btfss	lcdNibble@nibble& (0+255),1,b
  2188  002322  D003               	goto	u6110
  2189  002324  6B8C               	clrf	??_lcdNibble& (0+255),b
  2190  002326  2B8C               	incf	??_lcdNibble& (0+255),f,b
  2191  002328  D002               	goto	u6128
  2192  00232A                     u6110:
  2193  00232A  0101               	movlb	1	; () banked
  2194  00232C  6B8C               	clrf	??_lcdNibble& (0+255),b
  2195  00232E                     u6128:
  2196  00232E  478C               	rlncf	??_lcdNibble& (0+255),f,b
  2197  002330  478C               	rlncf	??_lcdNibble& (0+255),f,b
  2198  002332  478C               	rlncf	??_lcdNibble& (0+255),f,b
  2199  002334  5083               	movf	3971,w,c	;volatile
  2200  002336  198C               	xorwf	??_lcdNibble& (0+255),w,b
  2201  002338  0BF7               	andlw	-9
  2202  00233A  198C               	xorwf	??_lcdNibble& (0+255),w,b
  2203  00233C  6E83               	movwf	3971,c	;volatile
  2204                           
  2205                           ;LCD.c: 145: LATAbits.LATA4 = (nibble & 0x04) ? 1 : 0;
  2206  00233E  A58D               	btfss	lcdNibble@nibble& (0+255),2,b
  2207  002340  D003               	goto	u6130
  2208  002342  6B8C               	clrf	??_lcdNibble& (0+255),b
  2209  002344  2B8C               	incf	??_lcdNibble& (0+255),f,b
  2210  002346  D002               	goto	u6148
  2211  002348                     u6130:
  2212  002348  0101               	movlb	1	; () banked
  2213  00234A  6B8C               	clrf	??_lcdNibble& (0+255),b
  2214  00234C                     u6148:
  2215  00234C  3B8C               	swapf	??_lcdNibble& (0+255),f,b
  2216  00234E  5083               	movf	3971,w,c	;volatile
  2217  002350  198C               	xorwf	??_lcdNibble& (0+255),w,b
  2218  002352  0BEF               	andlw	-17
  2219  002354  198C               	xorwf	??_lcdNibble& (0+255),w,b
  2220  002356  6E83               	movwf	3971,c	;volatile
  2221                           
  2222                           ;LCD.c: 146: LATEbits.LATE0 = (nibble & 0x08) ? 1 : 0;
  2223  002358  A78D               	btfss	lcdNibble@nibble& (0+255),3,b
  2224  00235A  D003               	goto	u6150
  2225  00235C  6B8C               	clrf	??_lcdNibble& (0+255),b
  2226  00235E  2B8C               	incf	??_lcdNibble& (0+255),f,b
  2227  002360  D002               	goto	u6168
  2228  002362                     u6150:
  2229  002362  0101               	movlb	1	; () banked
  2230  002364  6B8C               	clrf	??_lcdNibble& (0+255),b
  2231  002366                     u6168:
  2232  002366  5087               	movf	3975,w,c	;volatile
  2233  002368  198C               	xorwf	??_lcdNibble& (0+255),w,b
  2234  00236A  0BFE               	andlw	-2
  2235  00236C  198C               	xorwf	??_lcdNibble& (0+255),w,b
  2236  00236E  6E87               	movwf	3975,c	;volatile
  2237                           
  2238                           ; BSR set to: 1
  2239                           ;LCD.c: 149: LATAbits.LATA1 = 1;
  2240  002370  8283               	bsf	3971,1,c	;volatile
  2241                           
  2242                           ; BSR set to: 1
  2243                           ;LCD.c: 150: _delay((unsigned long)((100)*(64000000/4000000.0)));
  2244  002372  0EE4               	movlw	228
  2245  002374                     u6597:
  2246  002374  D000               	nop2	
  2247  002376  D000               	nop2	
  2248  002378  2EE8               	decfsz	wreg,f,c
  2249  00237A  D7FC               	bra	u6597
  2250  00237C  D000               	nop2	
  2251  00237E  D000               	nop2	
  2252                           
  2253                           ;LCD.c: 151: LATAbits.LATA1 = 0;
  2254  002380  9283               	bcf	3971,1,c	;volatile
  2255                           
  2256                           ;LCD.c: 152: _delay((unsigned long)((100)*(64000000/4000000.0)));
  2257  002382  0EE4               	movlw	228
  2258  002384                     u6607:
  2259  002384  D000               	nop2	
  2260  002386  D000               	nop2	
  2261  002388  2EE8               	decfsz	wreg,f,c
  2262  00238A  D7FC               	bra	u6607
  2263  00238C  D000               	nop2	
  2264  00238E  D000               	nop2	
  2265  002390  0012               	return		;funcret
  2266  002392                     __end_of_lcdNibble:
  2267                           	opt stack 0
  2268                           tblptru	equ	0xFF8
  2269                           tblptrh	equ	0xFF7
  2270                           tblptrl	equ	0xFF6
  2271                           tablat	equ	0xFF5
  2272                           intcon	equ	0xFF2
  2273                           postinc0	equ	0xFEE
  2274                           wreg	equ	0xFE8
  2275                           postdec1	equ	0xFE5
  2276                           fsr1l	equ	0xFE1
  2277                           status	equ	0xFD8
  2278                           
  2279 ;; *************** function _Speed_Motors *****************
  2280 ;; Defined at:
  2281 ;;		line 189 in file "commandes.c"
  2282 ;; Parameters:    Size  Location     Type
  2283 ;;  Cons_Vit_Mot    2    0[BANK1 ] int 
  2284 ;;  Cons_Vit_Mot    2    2[BANK1 ] int 
  2285 ;; Auto vars:     Size  Location     Type
  2286 ;;		None
  2287 ;; Return value:  Size  Location     Type
  2288 ;;                  1    wreg      void 
  2289 ;; Registers used:
  2290 ;;		None
  2291 ;; Tracked objects:
  2292 ;;		On entry : 0/0
  2293 ;;		On exit  : 0/0
  2294 ;;		Unchanged: 0/0
  2295 ;; Data sizes:     COMRAM   BANK0   BANK1   BANK2   BANK3   BANK4   BANK5   BANK6   BANK7   BANK8   BANK9  BANK10  BANK1
      +1  BANK12  BANK13  BANK14
  2296 ;;      Params:         0       0       4       0       0       0       0       0       0       0       0       0       
      +0       0       0       0
  2297 ;;      Locals:         0       0       0       0       0       0       0       0       0       0       0       0       
      +0       0       0       0
  2298 ;;      Temps:          0       0       0       0       0       0       0       0       0       0       0       0       
      +0       0       0       0
  2299 ;;      Totals:         0       0       4       0       0       0       0       0       0       0       0       0       
      +0       0       0       0
  2300 ;;Total ram usage:        4 bytes
  2301 ;; Hardware stack levels used:    1
  2302 ;; Hardware stack levels required when called:    5
  2303 ;; This function calls:
  2304 ;;		Nothing
  2305 ;; This function is called by:
  2306 ;;		_main
  2307 ;; This function uses a non-reentrant model
  2308 ;;
  2309                           
  2310                           	psect	text8
  2311  002B80                     __ptext8:
  2312                           	opt stack 0
  2313  002B80                     _Speed_Motors:
  2314                           	opt stack 25
  2315                           
  2316                           ;commandes.c: 191: Consigne_Vitesse_Moteur_G = Cons_Vit_Mot_G;
  2317                           
  2318                           ;incstack = 0
  2319  002B80  C18C  F095         	movff	Speed_Motors@Cons_Vit_Mot_G,_Consigne_Vitesse_Moteur_G
  2320  002B84  C18D  F096         	movff	Speed_Motors@Cons_Vit_Mot_G+1,_Consigne_Vitesse_Moteur_G+1
  2321                           
  2322                           ;commandes.c: 192: Consigne_Vitesse_Moteur_D = Cons_Vit_Mot_D;
  2323  002B88  C18E  F093         	movff	Speed_Motors@Cons_Vit_Mot_D,_Consigne_Vitesse_Moteur_D
  2324  002B8C  C18F  F094         	movff	Speed_Motors@Cons_Vit_Mot_D+1,_Consigne_Vitesse_Moteur_D+1
  2325  002B90  0012               	return		;funcret
  2326  002B92                     __end_of_Speed_Motors:
  2327                           	opt stack 0
  2328                           tblptru	equ	0xFF8
  2329                           tblptrh	equ	0xFF7
  2330                           tblptrl	equ	0xFF6
  2331                           tablat	equ	0xFF5
  2332                           intcon	equ	0xFF2
  2333                           postinc0	equ	0xFEE
  2334                           wreg	equ	0xFE8
  2335                           postdec1	equ	0xFE5
  2336                           fsr1l	equ	0xFE1
  2337                           status	equ	0xFD8
  2338                           
  2339 ;; *************** function _SYSTEM_Initialize *****************
  2340 ;; Defined at:
  2341 ;;		line 50 in file "mcc_generated_files/mcc.c"
  2342 ;; Parameters:    Size  Location     Type
  2343 ;;		None
  2344 ;; Auto vars:     Size  Location     Type
  2345 ;;		None
  2346 ;; Return value:  Size  Location     Type
  2347 ;;                  1    wreg      void 
  2348 ;; Registers used:
  2349 ;;		wreg, status,2, status,0, cstack
  2350 ;; Tracked objects:
  2351 ;;		On entry : 0/0
  2352 ;;		On exit  : 0/0
  2353 ;;		Unchanged: 0/0
  2354 ;; Data sizes:     COMRAM   BANK0   BANK1   BANK2   BANK3   BANK4   BANK5   BANK6   BANK7   BANK8   BANK9  BANK10  BANK1
      +1  BANK12  BANK13  BANK14
  2355 ;;      Params:         0       0       0       0       0       0       0       0       0       0       0       0       
      +0       0       0       0
  2356 ;;      Locals:         0       0       0       0       0       0       0       0       0       0       0       0       
      +0       0       0       0
  2357 ;;      Temps:          0       0       0       0       0       0       0       0       0       0       0       0       
      +0       0       0       0
  2358 ;;      Totals:         0       0       0       0       0       0       0       0       0       0       0       0       
      +0       0       0       0
  2359 ;;Total ram usage:        0 bytes
  2360 ;; Hardware stack levels used:    1
  2361 ;; Hardware stack levels required when called:    7
  2362 ;; This function calls:
  2363 ;;		_ADCC_Initialize
  2364 ;;		_EUSART1_Initialize
  2365 ;;		_I2C1_Initialize
  2366 ;;		_INTERRUPT_Initialize
  2367 ;;		_OSCILLATOR_Initialize
  2368 ;;		_PIN_MANAGER_Initialize
  2369 ;;		_PMD_Initialize
  2370 ;;		_PWM1_Initialize
  2371 ;;		_PWM2_Initialize
  2372 ;;		_TMR0_Initialize
  2373 ;;		_TMR1_Initialize
  2374 ;;		_TMR2_Initialize
  2375 ;;		_TMR3_Initialize
  2376 ;;		_TMR4_Initialize
  2377 ;; This function is called by:
  2378 ;;		_main
  2379 ;; This function uses a non-reentrant model
  2380 ;;
  2381                           
  2382                           	psect	text9
  2383  00262E                     __ptext9:
  2384                           	opt stack 0
  2385  00262E                     _SYSTEM_Initialize:
  2386                           	opt stack 23
  2387                           
  2388                           ;mcc.c: 52: INTERRUPT_Initialize();
  2389                           
  2390                           ;incstack = 0
  2391  00262E  EC3E  F016         	call	_INTERRUPT_Initialize	;wreg free
  2392                           
  2393                           ;mcc.c: 53: PMD_Initialize();
  2394  002632  EC2E  F015         	call	_PMD_Initialize	;wreg free
  2395                           
  2396                           ;mcc.c: 54: PIN_MANAGER_Initialize();
  2397  002636  EC0A  F00F         	call	_PIN_MANAGER_Initialize	;wreg free
  2398                           
  2399                           ;mcc.c: 55: OSCILLATOR_Initialize();
  2400  00263A  EC74  F015         	call	_OSCILLATOR_Initialize	;wreg free
  2401                           
  2402                           ;mcc.c: 56: I2C1_Initialize();
  2403  00263E  EC6C  F013         	call	_I2C1_Initialize	;wreg free
  2404                           
  2405                           ;mcc.c: 57: PWM2_Initialize();
  2406  002642  EC8C  F015         	call	_PWM2_Initialize	;wreg free
  2407                           
  2408                           ;mcc.c: 58: ADCC_Initialize();
  2409  002646  EC90  F012         	call	_ADCC_Initialize	;wreg free
  2410                           
  2411                           ;mcc.c: 59: TMR4_Initialize();
  2412  00264A  ECD6  F013         	call	_TMR4_Initialize	;wreg free
  2413                           
  2414                           ;mcc.c: 60: TMR2_Initialize();
  2415  00264E  EC1F  F015         	call	_TMR2_Initialize	;wreg free
  2416                           
  2417                           ;mcc.c: 61: TMR0_Initialize();
  2418  002652  ECB6  F012         	call	_TMR0_Initialize	;wreg free
  2419                           
  2420                           ;mcc.c: 62: PWM1_Initialize();
  2421  002656  EC97  F015         	call	_PWM1_Initialize	;wreg free
  2422                           
  2423                           ;mcc.c: 63: TMR3_Initialize();
  2424  00265A  ECC9  F011         	call	_TMR3_Initialize	;wreg free
  2425                           
  2426                           ;mcc.c: 64: TMR1_Initialize();
  2427  00265E  ECF1  F011         	call	_TMR1_Initialize	;wreg free
  2428                           
  2429                           ;mcc.c: 65: EUSART1_Initialize();
  2430  002662  EC32  F011         	call	_EUSART1_Initialize	;wreg free
  2431  002666  0012               	return		;funcret
  2432  002668                     __end_of_SYSTEM_Initialize:
  2433                           	opt stack 0
  2434                           tblptru	equ	0xFF8
  2435                           tblptrh	equ	0xFF7
  2436                           tblptrl	equ	0xFF6
  2437                           tablat	equ	0xFF5
  2438                           intcon	equ	0xFF2
  2439                           postinc0	equ	0xFEE
  2440                           wreg	equ	0xFE8
  2441                           postdec1	equ	0xFE5
  2442                           fsr1l	equ	0xFE1
  2443                           status	equ	0xFD8
  2444                           
  2445 ;; *************** function _TMR4_Initialize *****************
  2446 ;; Defined at:
  2447 ;;		line 96 in file "mcc_generated_files/tmr4.c"
  2448 ;; Parameters:    Size  Location     Type
  2449 ;;		None
  2450 ;; Auto vars:     Size  Location     Type
  2451 ;;		None
  2452 ;; Return value:  Size  Location     Type
  2453 ;;                  1    wreg      void 
  2454 ;; Registers used:
  2455 ;;		wreg, status,2, status,0, cstack
  2456 ;; Tracked objects:
  2457 ;;		On entry : 0/0
  2458 ;;		On exit  : 0/0
  2459 ;;		Unchanged: 0/0
  2460 ;; Data sizes:     COMRAM   BANK0   BANK1   BANK2   BANK3   BANK4   BANK5   BANK6   BANK7   BANK8   BANK9  BANK10  BANK1
      +1  BANK12  BANK13  BANK14
  2461 ;;      Params:         0       0       0       0       0       0       0       0       0       0       0       0       
      +0       0       0       0
  2462 ;;      Locals:         0       0       0       0       0       0       0       0       0       0       0       0       
      +0       0       0       0
  2463 ;;      Temps:          0       0       0       0       0       0       0       0       0       0       0       0       
      +0       0       0       0
  2464 ;;      Totals:         0       0       0       0       0       0       0       0       0       0       0       0       
      +0       0       0       0
  2465 ;;Total ram usage:        0 bytes
  2466 ;; Hardware stack levels used:    1
  2467 ;; Hardware stack levels required when called:    6
  2468 ;; This function calls:
  2469 ;;		_TMR4_SetInterruptHandler
  2470 ;; This function is called by:
  2471 ;;		_SYSTEM_Initialize
  2472 ;; This function uses a non-reentrant model
  2473 ;;
  2474                           
  2475                           	psect	text10
  2476  0027AC                     __ptext10:
  2477                           	opt stack 0
  2478  0027AC                     _TMR4_Initialize:
  2479                           	opt stack 23
  2480                           
  2481                           ;tmr4.c: 101: T4CLKCON = 0x04;
  2482                           
  2483                           ;incstack = 0
  2484  0027AC  0E04               	movlw	4
  2485  0027AE  6EB9               	movwf	4025,c	;volatile
  2486                           
  2487                           ;tmr4.c: 104: T4HLT = 0x00;
  2488  0027B0  0E00               	movlw	0
  2489  0027B2  6EB8               	movwf	4024,c	;volatile
  2490                           
  2491                           ;tmr4.c: 107: T4RST = 0x00;
  2492  0027B4  0E00               	movlw	0
  2493  0027B6  6EBA               	movwf	4026,c	;volatile
  2494                           
  2495                           ;tmr4.c: 110: T4PR = 0x4D;
  2496  0027B8  0E4D               	movlw	77
  2497  0027BA  6EB6               	movwf	4022,c	;volatile
  2498                           
  2499                           ;tmr4.c: 113: T4TMR = 0x00;
  2500  0027BC  0E00               	movlw	0
  2501  0027BE  6EB5               	movwf	4021,c	;volatile
  2502                           
  2503                           ;tmr4.c: 116: PIR4bits.TMR4IF = 0;
  2504  0027C0  010E               	movlb	14	; () banked
  2505  0027C2  97CE               	bcf	206,3,b	;volatile
  2506                           
  2507                           ; BSR set to: 14
  2508                           ;tmr4.c: 119: PIE4bits.TMR4IE = 1;
  2509  0027C4  87C6               	bsf	198,3,b	;volatile
  2510                           
  2511                           ; BSR set to: 14
  2512                           ;tmr4.c: 122: TMR4_SetInterruptHandler(TMR4_DefaultInterruptHandler);
  2513  0027C6  0EB8               	movlw	low _TMR4_DefaultInterruptHandler
  2514  0027C8  0101               	movlb	1	; () banked
  2515  0027CA  6F8C               	movwf	TMR4_SetInterruptHandler@InterruptHandler& (0+255),b
  2516  0027CC  0E15               	movlw	high _TMR4_DefaultInterruptHandler
  2517  0027CE  6F8D               	movwf	(TMR4_SetInterruptHandler@InterruptHandler+1)& (0+255),b
  2518  0027D0  0E00               	movlw	low (_TMR4_DefaultInterruptHandler shr (0+16))
  2519  0027D2  6F8E               	movwf	(TMR4_SetInterruptHandler@InterruptHandler+2)& (0+255),b
  2520  0027D4  ECC9  F015         	call	_TMR4_SetInterruptHandler	;wreg free
  2521                           
  2522                           ;tmr4.c: 125: T4CON = 0xA0;
  2523  0027D8  0EA0               	movlw	160
  2524  0027DA  6EB7               	movwf	4023,c	;volatile
  2525  0027DC  0012               	return		;funcret
  2526  0027DE                     __end_of_TMR4_Initialize:
  2527                           	opt stack 0
  2528                           tblptru	equ	0xFF8
  2529                           tblptrh	equ	0xFF7
  2530                           tblptrl	equ	0xFF6
  2531                           tablat	equ	0xFF5
  2532                           intcon	equ	0xFF2
  2533                           postinc0	equ	0xFEE
  2534                           wreg	equ	0xFE8
  2535                           postdec1	equ	0xFE5
  2536                           fsr1l	equ	0xFE1
  2537                           status	equ	0xFD8
  2538                           
  2539 ;; *************** function _TMR4_SetInterruptHandler *****************
  2540 ;; Defined at:
  2541 ;;		line 210 in file "mcc_generated_files/tmr4.c"
  2542 ;; Parameters:    Size  Location     Type
  2543 ;;  InterruptHan    3    0[BANK1 ] PTR FTN()void 
  2544 ;;		 -> TMR4_DefaultInterruptHandler(1), 
  2545 ;; Auto vars:     Size  Location     Type
  2546 ;;		None
  2547 ;; Return value:  Size  Location     Type
  2548 ;;                  1    wreg      void 
  2549 ;; Registers used:
  2550 ;;		wreg, status,2, status,0
  2551 ;; Tracked objects:
  2552 ;;		On entry : 0/0
  2553 ;;		On exit  : 0/0
  2554 ;;		Unchanged: 0/0
  2555 ;; Data sizes:     COMRAM   BANK0   BANK1   BANK2   BANK3   BANK4   BANK5   BANK6   BANK7   BANK8   BANK9  BANK10  BANK1
      +1  BANK12  BANK13  BANK14
  2556 ;;      Params:         0       0       3       0       0       0       0       0       0       0       0       0       
      +0       0       0       0
  2557 ;;      Locals:         0       0       0       0       0       0       0       0       0       0       0       0       
      +0       0       0       0
  2558 ;;      Temps:          0       0       0       0       0       0       0       0       0       0       0       0       
      +0       0       0       0
  2559 ;;      Totals:         0       0       3       0       0       0       0       0       0       0       0       0       
      +0       0       0       0
  2560 ;;Total ram usage:        3 bytes
  2561 ;; Hardware stack levels used:    1
  2562 ;; Hardware stack levels required when called:    5
  2563 ;; This function calls:
  2564 ;;		Nothing
  2565 ;; This function is called by:
  2566 ;;		_TMR4_Initialize
  2567 ;; This function uses a non-reentrant model
  2568 ;;
  2569                           
  2570                           	psect	text11
  2571  002B92                     __ptext11:
  2572                           	opt stack 0
  2573  002B92                     _TMR4_SetInterruptHandler:
  2574                           	opt stack 23
  2575                           
  2576                           ;tmr4.c: 211: TMR4_InterruptHandler = InterruptHandler;
  2577                           
  2578                           ;incstack = 0
  2579  002B92  C18C  F0BA         	movff	TMR4_SetInterruptHandler@InterruptHandler,_TMR4_InterruptHandler
  2580  002B96  C18D  F0BB         	movff	TMR4_SetInterruptHandler@InterruptHandler+1,_TMR4_InterruptHandler+1
  2581  002B9A  C18E  F0BC         	movff	TMR4_SetInterruptHandler@InterruptHandler+2,_TMR4_InterruptHandler+2
  2582  002B9E  0012               	return		;funcret
  2583  002BA0                     __end_of_TMR4_SetInterruptHandler:
  2584                           	opt stack 0
  2585                           tblptru	equ	0xFF8
  2586                           tblptrh	equ	0xFF7
  2587                           tblptrl	equ	0xFF6
  2588                           tablat	equ	0xFF5
  2589                           intcon	equ	0xFF2
  2590                           postinc0	equ	0xFEE
  2591                           wreg	equ	0xFE8
  2592                           postdec1	equ	0xFE5
  2593                           fsr1l	equ	0xFE1
  2594                           status	equ	0xFD8
  2595                           
  2596 ;; *************** function _TMR3_Initialize *****************
  2597 ;; Defined at:
  2598 ;;		line 66 in file "mcc_generated_files/tmr3.c"
  2599 ;; Parameters:    Size  Location     Type
  2600 ;;		None
  2601 ;; Auto vars:     Size  Location     Type
  2602 ;;		None
  2603 ;; Return value:  Size  Location     Type
  2604 ;;                  1    wreg      void 
  2605 ;; Registers used:
  2606 ;;		wreg, status,2, status,0, cstack
  2607 ;; Tracked objects:
  2608 ;;		On entry : 0/0
  2609 ;;		On exit  : 0/0
  2610 ;;		Unchanged: 0/0
  2611 ;; Data sizes:     COMRAM   BANK0   BANK1   BANK2   BANK3   BANK4   BANK5   BANK6   BANK7   BANK8   BANK9  BANK10  BANK1
      +1  BANK12  BANK13  BANK14
  2612 ;;      Params:         0       0       0       0       0       0       0       0       0       0       0       0       
      +0       0       0       0
  2613 ;;      Locals:         0       0       0       0       0       0       0       0       0       0       0       0       
      +0       0       0       0
  2614 ;;      Temps:          0       0       2       0       0       0       0       0       0       0       0       0       
      +0       0       0       0
  2615 ;;      Totals:         0       0       2       0       0       0       0       0       0       0       0       0       
      +0       0       0       0
  2616 ;;Total ram usage:        2 bytes
  2617 ;; Hardware stack levels used:    1
  2618 ;; Hardware stack levels required when called:    6
  2619 ;; This function calls:
  2620 ;;		_TMR3_SetInterruptHandler
  2621 ;; This function is called by:
  2622 ;;		_SYSTEM_Initialize
  2623 ;; This function uses a non-reentrant model
  2624 ;;
  2625                           
  2626                           	psect	text12
  2627  002392                     __ptext12:
  2628                           	opt stack 0
  2629  002392                     _TMR3_Initialize:
  2630                           	opt stack 23
  2631                           
  2632                           ;tmr3.c: 71: T3GCON = 0x00;
  2633                           
  2634                           ;incstack = 0
  2635  002392  0E00               	movlw	0
  2636  002394  6ECA               	movwf	4042,c	;volatile
  2637                           
  2638                           ;tmr3.c: 74: T3GATE = 0x00;
  2639  002396  0E00               	movlw	0
  2640  002398  6ECB               	movwf	4043,c	;volatile
  2641                           
  2642                           ;tmr3.c: 77: T3CLK = 0x01;
  2643  00239A  0E01               	movlw	1
  2644  00239C  6ECC               	movwf	4044,c	;volatile
  2645                           
  2646                           ;tmr3.c: 80: TMR3H = 0x00;
  2647  00239E  0E00               	movlw	0
  2648  0023A0  6EC8               	movwf	4040,c	;volatile
  2649                           
  2650                           ;tmr3.c: 83: TMR3L = 0x00;
  2651  0023A2  0E00               	movlw	0
  2652  0023A4  6EC7               	movwf	4039,c	;volatile
  2653                           
  2654                           ;tmr3.c: 86: timer3ReloadVal=(uint16_t)((TMR3H << 8) | TMR3L);
  2655  0023A6  50C7               	movf	4039,w,c	;volatile
  2656  0023A8  CFC8 F18F          	movff	4040,??_TMR3_Initialize	;volatile
  2657  0023AC  0101               	movlb	1	; () banked
  2658  0023AE  6B90               	clrf	(??_TMR3_Initialize+1)& (0+255),b
  2659  0023B0  C18F  F190         	movff	??_TMR3_Initialize,??_TMR3_Initialize+1
  2660  0023B4  6B8F               	clrf	??_TMR3_Initialize& (0+255),b
  2661  0023B6  118F               	iorwf	??_TMR3_Initialize& (0+255),w,b
  2662  0023B8  0100               	movlb	0	; () banked
  2663  0023BA  6FCC               	movwf	_timer3ReloadVal& (0+255),b	;volatile
  2664  0023BC  0101               	movlb	1	; () banked
  2665  0023BE  5190               	movf	(??_TMR3_Initialize+1)& (0+255),w,b
  2666  0023C0  0100               	movlb	0	; () banked
  2667  0023C2  6FCD               	movwf	(_timer3ReloadVal+1)& (0+255),b	;volatile
  2668                           
  2669                           ; BSR set to: 0
  2670                           ;tmr3.c: 89: PIR4bits.TMR3IF = 0;
  2671  0023C4  010E               	movlb	14	; () banked
  2672  0023C6  95CE               	bcf	206,2,b	;volatile
  2673                           
  2674                           ; BSR set to: 14
  2675                           ;tmr3.c: 92: PIE4bits.TMR3IE = 1;
  2676  0023C8  85C6               	bsf	198,2,b	;volatile
  2677                           
  2678                           ; BSR set to: 14
  2679                           ;tmr3.c: 95: TMR3_SetInterruptHandler(TMR3_DefaultInterruptHandler);
  2680  0023CA  0E78               	movlw	low _TMR3_DefaultInterruptHandler
  2681  0023CC  0101               	movlb	1	; () banked
  2682  0023CE  6F8C               	movwf	TMR3_SetInterruptHandler@InterruptHandler& (0+255),b
  2683  0023D0  0E2A               	movlw	high _TMR3_DefaultInterruptHandler
  2684  0023D2  6F8D               	movwf	(TMR3_SetInterruptHandler@InterruptHandler+1)& (0+255),b
  2685  0023D4  0E00               	movlw	low (_TMR3_DefaultInterruptHandler shr (0+16))
  2686  0023D6  6F8E               	movwf	(TMR3_SetInterruptHandler@InterruptHandler+2)& (0+255),b
  2687  0023D8  ECD0  F015         	call	_TMR3_SetInterruptHandler	;wreg free
  2688                           
  2689                           ;tmr3.c: 98: T3CON = 0x30;
  2690  0023DC  0E30               	movlw	48
  2691  0023DE  6EC9               	movwf	4041,c	;volatile
  2692  0023E0  0012               	return		;funcret
  2693  0023E2                     __end_of_TMR3_Initialize:
  2694                           	opt stack 0
  2695                           tblptru	equ	0xFF8
  2696                           tblptrh	equ	0xFF7
  2697                           tblptrl	equ	0xFF6
  2698                           tablat	equ	0xFF5
  2699                           intcon	equ	0xFF2
  2700                           postinc0	equ	0xFEE
  2701                           wreg	equ	0xFE8
  2702                           postdec1	equ	0xFE5
  2703                           fsr1l	equ	0xFE1
  2704                           status	equ	0xFD8
  2705                           
  2706 ;; *************** function _TMR3_SetInterruptHandler *****************
  2707 ;; Defined at:
  2708 ;;		line 180 in file "mcc_generated_files/tmr3.c"
  2709 ;; Parameters:    Size  Location     Type
  2710 ;;  InterruptHan    3    0[BANK1 ] PTR FTN()void 
  2711 ;;		 -> TMR3_DefaultInterruptHandler(1), 
  2712 ;; Auto vars:     Size  Location     Type
  2713 ;;		None
  2714 ;; Return value:  Size  Location     Type
  2715 ;;                  1    wreg      void 
  2716 ;; Registers used:
  2717 ;;		wreg, status,2, status,0
  2718 ;; Tracked objects:
  2719 ;;		On entry : 0/0
  2720 ;;		On exit  : 0/0
  2721 ;;		Unchanged: 0/0
  2722 ;; Data sizes:     COMRAM   BANK0   BANK1   BANK2   BANK3   BANK4   BANK5   BANK6   BANK7   BANK8   BANK9  BANK10  BANK1
      +1  BANK12  BANK13  BANK14
  2723 ;;      Params:         0       0       3       0       0       0       0       0       0       0       0       0       
      +0       0       0       0
  2724 ;;      Locals:         0       0       0       0       0       0       0       0       0       0       0       0       
      +0       0       0       0
  2725 ;;      Temps:          0       0       0       0       0       0       0       0       0       0       0       0       
      +0       0       0       0
  2726 ;;      Totals:         0       0       3       0       0       0       0       0       0       0       0       0       
      +0       0       0       0
  2727 ;;Total ram usage:        3 bytes
  2728 ;; Hardware stack levels used:    1
  2729 ;; Hardware stack levels required when called:    5
  2730 ;; This function calls:
  2731 ;;		Nothing
  2732 ;; This function is called by:
  2733 ;;		_TMR3_Initialize
  2734 ;; This function uses a non-reentrant model
  2735 ;;
  2736                           
  2737                           	psect	text13
  2738  002BA0                     __ptext13:
  2739                           	opt stack 0
  2740  002BA0                     _TMR3_SetInterruptHandler:
  2741                           	opt stack 23
  2742                           
  2743                           ;tmr3.c: 181: TMR3_InterruptHandler = InterruptHandler;
  2744                           
  2745                           ;incstack = 0
  2746  002BA0  C18C  F0B4         	movff	TMR3_SetInterruptHandler@InterruptHandler,_TMR3_InterruptHandler
  2747  002BA4  C18D  F0B5         	movff	TMR3_SetInterruptHandler@InterruptHandler+1,_TMR3_InterruptHandler+1
  2748  002BA8  C18E  F0B6         	movff	TMR3_SetInterruptHandler@InterruptHandler+2,_TMR3_InterruptHandler+2
  2749  002BAC  0012               	return		;funcret
  2750  002BAE                     __end_of_TMR3_SetInterruptHandler:
  2751                           	opt stack 0
  2752                           tblptru	equ	0xFF8
  2753                           tblptrh	equ	0xFF7
  2754                           tblptrl	equ	0xFF6
  2755                           tablat	equ	0xFF5
  2756                           intcon	equ	0xFF2
  2757                           postinc0	equ	0xFEE
  2758                           wreg	equ	0xFE8
  2759                           postdec1	equ	0xFE5
  2760                           fsr1l	equ	0xFE1
  2761                           status	equ	0xFD8
  2762                           
  2763 ;; *************** function _TMR2_Initialize *****************
  2764 ;; Defined at:
  2765 ;;		line 62 in file "mcc_generated_files/tmr2.c"
  2766 ;; Parameters:    Size  Location     Type
  2767 ;;		None
  2768 ;; Auto vars:     Size  Location     Type
  2769 ;;		None
  2770 ;; Return value:  Size  Location     Type
  2771 ;;                  1    wreg      void 
  2772 ;; Registers used:
  2773 ;;		wreg, status,2
  2774 ;; Tracked objects:
  2775 ;;		On entry : 0/0
  2776 ;;		On exit  : 0/0
  2777 ;;		Unchanged: 0/0
  2778 ;; Data sizes:     COMRAM   BANK0   BANK1   BANK2   BANK3   BANK4   BANK5   BANK6   BANK7   BANK8   BANK9  BANK10  BANK1
      +1  BANK12  BANK13  BANK14
  2779 ;;      Params:         0       0       0       0       0       0       0       0       0       0       0       0       
      +0       0       0       0
  2780 ;;      Locals:         0       0       0       0       0       0       0       0       0       0       0       0       
      +0       0       0       0
  2781 ;;      Temps:          0       0       0       0       0       0       0       0       0       0       0       0       
      +0       0       0       0
  2782 ;;      Totals:         0       0       0       0       0       0       0       0       0       0       0       0       
      +0       0       0       0
  2783 ;;Total ram usage:        0 bytes
  2784 ;; Hardware stack levels used:    1
  2785 ;; Hardware stack levels required when called:    5
  2786 ;; This function calls:
  2787 ;;		Nothing
  2788 ;; This function is called by:
  2789 ;;		_SYSTEM_Initialize
  2790 ;; This function uses a non-reentrant model
  2791 ;;
  2792                           
  2793                           	psect	text14
  2794  002A3E                     __ptext14:
  2795                           	opt stack 0
  2796  002A3E                     _TMR2_Initialize:
  2797                           	opt stack 24
  2798                           
  2799                           ;tmr2.c: 67: T2CLKCON = 0x01;
  2800                           
  2801                           ;incstack = 0
  2802  002A3E  0E01               	movlw	1
  2803  002A40  6EBF               	movwf	4031,c	;volatile
  2804                           
  2805                           ;tmr2.c: 70: T2HLT = 0x00;
  2806  002A42  0E00               	movlw	0
  2807  002A44  6EBE               	movwf	4030,c	;volatile
  2808                           
  2809                           ;tmr2.c: 73: T2RST = 0x00;
  2810  002A46  0E00               	movlw	0
  2811  002A48  6EC0               	movwf	4032,c	;volatile
  2812                           
  2813                           ;tmr2.c: 76: T2PR = 0xC7;
  2814  002A4A  0EC7               	movlw	199
  2815  002A4C  6EBC               	movwf	4028,c	;volatile
  2816                           
  2817                           ;tmr2.c: 79: T2TMR = 0x00;
  2818  002A4E  0E00               	movlw	0
  2819  002A50  6EBB               	movwf	4027,c	;volatile
  2820                           
  2821                           ;tmr2.c: 82: PIR4bits.TMR2IF = 0;
  2822  002A52  010E               	movlb	14	; () banked
  2823  002A54  93CE               	bcf	206,1,b	;volatile
  2824                           
  2825                           ;tmr2.c: 85: T2CON = 0xA0;
  2826  002A56  0EA0               	movlw	160
  2827  002A58  6EBD               	movwf	4029,c	;volatile
  2828                           
  2829                           ; BSR set to: 14
  2830  002A5A  0012               	return		;funcret
  2831  002A5C                     __end_of_TMR2_Initialize:
  2832                           	opt stack 0
  2833                           tblptru	equ	0xFF8
  2834                           tblptrh	equ	0xFF7
  2835                           tblptrl	equ	0xFF6
  2836                           tablat	equ	0xFF5
  2837                           intcon	equ	0xFF2
  2838                           postinc0	equ	0xFEE
  2839                           wreg	equ	0xFE8
  2840                           postdec1	equ	0xFE5
  2841                           fsr1l	equ	0xFE1
  2842                           status	equ	0xFD8
  2843                           
  2844 ;; *************** function _TMR1_Initialize *****************
  2845 ;; Defined at:
  2846 ;;		line 66 in file "mcc_generated_files/tmr1.c"
  2847 ;; Parameters:    Size  Location     Type
  2848 ;;		None
  2849 ;; Auto vars:     Size  Location     Type
  2850 ;;		None
  2851 ;; Return value:  Size  Location     Type
  2852 ;;                  1    wreg      void 
  2853 ;; Registers used:
  2854 ;;		wreg, status,2, status,0, cstack
  2855 ;; Tracked objects:
  2856 ;;		On entry : 0/0
  2857 ;;		On exit  : 0/0
  2858 ;;		Unchanged: 0/0
  2859 ;; Data sizes:     COMRAM   BANK0   BANK1   BANK2   BANK3   BANK4   BANK5   BANK6   BANK7   BANK8   BANK9  BANK10  BANK1
      +1  BANK12  BANK13  BANK14
  2860 ;;      Params:         0       0       0       0       0       0       0       0       0       0       0       0       
      +0       0       0       0
  2861 ;;      Locals:         0       0       0       0       0       0       0       0       0       0       0       0       
      +0       0       0       0
  2862 ;;      Temps:          0       0       2       0       0       0       0       0       0       0       0       0       
      +0       0       0       0
  2863 ;;      Totals:         0       0       2       0       0       0       0       0       0       0       0       0       
      +0       0       0       0
  2864 ;;Total ram usage:        2 bytes
  2865 ;; Hardware stack levels used:    1
  2866 ;; Hardware stack levels required when called:    6
  2867 ;; This function calls:
  2868 ;;		_TMR1_SetInterruptHandler
  2869 ;; This function is called by:
  2870 ;;		_SYSTEM_Initialize
  2871 ;; This function uses a non-reentrant model
  2872 ;;
  2873                           
  2874                           	psect	text15
  2875  0023E2                     __ptext15:
  2876                           	opt stack 0
  2877  0023E2                     _TMR1_Initialize:
  2878                           	opt stack 23
  2879                           
  2880                           ;tmr1.c: 71: T1GCON = 0x00;
  2881                           
  2882                           ; BSR set to: 14
  2883                           ;incstack = 0
  2884  0023E2  0E00               	movlw	0
  2885  0023E4  6ED0               	movwf	4048,c	;volatile
  2886                           
  2887                           ;tmr1.c: 74: T1GATE = 0x00;
  2888  0023E6  0E00               	movlw	0
  2889  0023E8  6ED1               	movwf	4049,c	;volatile
  2890                           
  2891                           ;tmr1.c: 77: T1CLK = 0x01;
  2892  0023EA  0E01               	movlw	1
  2893  0023EC  6ED2               	movwf	4050,c	;volatile
  2894                           
  2895                           ;tmr1.c: 80: TMR1H = 0x00;
  2896  0023EE  0E00               	movlw	0
  2897  0023F0  6ECE               	movwf	4046,c	;volatile
  2898                           
  2899                           ;tmr1.c: 83: TMR1L = 0x00;
  2900  0023F2  0E00               	movlw	0
  2901  0023F4  6ECD               	movwf	4045,c	;volatile
  2902                           
  2903                           ;tmr1.c: 86: timer1ReloadVal=(uint16_t)((TMR1H << 8) | TMR1L);
  2904  0023F6  50CD               	movf	4045,w,c	;volatile
  2905  0023F8  CFCE F18F          	movff	4046,??_TMR1_Initialize	;volatile
  2906  0023FC  0101               	movlb	1	; () banked
  2907  0023FE  6B90               	clrf	(??_TMR1_Initialize+1)& (0+255),b
  2908  002400  C18F  F190         	movff	??_TMR1_Initialize,??_TMR1_Initialize+1
  2909  002404  6B8F               	clrf	??_TMR1_Initialize& (0+255),b
  2910  002406  118F               	iorwf	??_TMR1_Initialize& (0+255),w,b
  2911  002408  0100               	movlb	0	; () banked
  2912  00240A  6FCE               	movwf	_timer1ReloadVal& (0+255),b	;volatile
  2913  00240C  0101               	movlb	1	; () banked
  2914  00240E  5190               	movf	(??_TMR1_Initialize+1)& (0+255),w,b
  2915  002410  0100               	movlb	0	; () banked
  2916  002412  6FCF               	movwf	(_timer1ReloadVal+1)& (0+255),b	;volatile
  2917                           
  2918                           ; BSR set to: 0
  2919                           ;tmr1.c: 89: PIR4bits.TMR1IF = 0;
  2920  002414  010E               	movlb	14	; () banked
  2921  002416  91CE               	bcf	206,0,b	;volatile
  2922                           
  2923                           ; BSR set to: 14
  2924                           ;tmr1.c: 92: PIE4bits.TMR1IE = 1;
  2925  002418  81C6               	bsf	198,0,b	;volatile
  2926                           
  2927                           ; BSR set to: 14
  2928                           ;tmr1.c: 95: TMR1_SetInterruptHandler(TMR1_DefaultInterruptHandler);
  2929  00241A  0E94               	movlw	low _TMR1_DefaultInterruptHandler
  2930  00241C  0101               	movlb	1	; () banked
  2931  00241E  6F8C               	movwf	TMR1_SetInterruptHandler@InterruptHandler& (0+255),b
  2932  002420  0E2A               	movlw	high _TMR1_DefaultInterruptHandler
  2933  002422  6F8D               	movwf	(TMR1_SetInterruptHandler@InterruptHandler+1)& (0+255),b
  2934  002424  0E00               	movlw	low (_TMR1_DefaultInterruptHandler shr (0+16))
  2935  002426  6F8E               	movwf	(TMR1_SetInterruptHandler@InterruptHandler+2)& (0+255),b
  2936  002428  ECD7  F015         	call	_TMR1_SetInterruptHandler	;wreg free
  2937                           
  2938                           ;tmr1.c: 98: T1CON = 0x30;
  2939  00242C  0E30               	movlw	48
  2940  00242E  6ECF               	movwf	4047,c	;volatile
  2941  002430  0012               	return		;funcret
  2942  002432                     __end_of_TMR1_Initialize:
  2943                           	opt stack 0
  2944                           tblptru	equ	0xFF8
  2945                           tblptrh	equ	0xFF7
  2946                           tblptrl	equ	0xFF6
  2947                           tablat	equ	0xFF5
  2948                           intcon	equ	0xFF2
  2949                           postinc0	equ	0xFEE
  2950                           wreg	equ	0xFE8
  2951                           postdec1	equ	0xFE5
  2952                           fsr1l	equ	0xFE1
  2953                           status	equ	0xFD8
  2954                           
  2955 ;; *************** function _TMR1_SetInterruptHandler *****************
  2956 ;; Defined at:
  2957 ;;		line 180 in file "mcc_generated_files/tmr1.c"
  2958 ;; Parameters:    Size  Location     Type
  2959 ;;  InterruptHan    3    0[BANK1 ] PTR FTN()void 
  2960 ;;		 -> TMR1_DefaultInterruptHandler(1), 
  2961 ;; Auto vars:     Size  Location     Type
  2962 ;;		None
  2963 ;; Return value:  Size  Location     Type
  2964 ;;                  1    wreg      void 
  2965 ;; Registers used:
  2966 ;;		wreg, status,2, status,0
  2967 ;; Tracked objects:
  2968 ;;		On entry : 0/0
  2969 ;;		On exit  : 0/0
  2970 ;;		Unchanged: 0/0
  2971 ;; Data sizes:     COMRAM   BANK0   BANK1   BANK2   BANK3   BANK4   BANK5   BANK6   BANK7   BANK8   BANK9  BANK10  BANK1
      +1  BANK12  BANK13  BANK14
  2972 ;;      Params:         0       0       3       0       0       0       0       0       0       0       0       0       
      +0       0       0       0
  2973 ;;      Locals:         0       0       0       0       0       0       0       0       0       0       0       0       
      +0       0       0       0
  2974 ;;      Temps:          0       0       0       0       0       0       0       0       0       0       0       0       
      +0       0       0       0
  2975 ;;      Totals:         0       0       3       0       0       0       0       0       0       0       0       0       
      +0       0       0       0
  2976 ;;Total ram usage:        3 bytes
  2977 ;; Hardware stack levels used:    1
  2978 ;; Hardware stack levels required when called:    5
  2979 ;; This function calls:
  2980 ;;		Nothing
  2981 ;; This function is called by:
  2982 ;;		_TMR1_Initialize
  2983 ;; This function uses a non-reentrant model
  2984 ;;
  2985                           
  2986                           	psect	text16
  2987  002BAE                     __ptext16:
  2988                           	opt stack 0
  2989  002BAE                     _TMR1_SetInterruptHandler:
  2990                           	opt stack 23
  2991                           
  2992                           ;tmr1.c: 181: TMR1_InterruptHandler = InterruptHandler;
  2993                           
  2994                           ;incstack = 0
  2995  002BAE  C18C  F0B7         	movff	TMR1_SetInterruptHandler@InterruptHandler,_TMR1_InterruptHandler
  2996  002BB2  C18D  F0B8         	movff	TMR1_SetInterruptHandler@InterruptHandler+1,_TMR1_InterruptHandler+1
  2997  002BB6  C18E  F0B9         	movff	TMR1_SetInterruptHandler@InterruptHandler+2,_TMR1_InterruptHandler+2
  2998  002BBA  0012               	return		;funcret
  2999  002BBC                     __end_of_TMR1_SetInterruptHandler:
  3000                           	opt stack 0
  3001                           tblptru	equ	0xFF8
  3002                           tblptrh	equ	0xFF7
  3003                           tblptrl	equ	0xFF6
  3004                           tablat	equ	0xFF5
  3005                           intcon	equ	0xFF2
  3006                           postinc0	equ	0xFEE
  3007                           wreg	equ	0xFE8
  3008                           postdec1	equ	0xFE5
  3009                           fsr1l	equ	0xFE1
  3010                           status	equ	0xFD8
  3011                           
  3012 ;; *************** function _TMR0_Initialize *****************
  3013 ;; Defined at:
  3014 ;;		line 67 in file "mcc_generated_files/tmr0.c"
  3015 ;; Parameters:    Size  Location     Type
  3016 ;;		None
  3017 ;; Auto vars:     Size  Location     Type
  3018 ;;		None
  3019 ;; Return value:  Size  Location     Type
  3020 ;;                  1    wreg      void 
  3021 ;; Registers used:
  3022 ;;		wreg, status,2, status,0, cstack
  3023 ;; Tracked objects:
  3024 ;;		On entry : 0/0
  3025 ;;		On exit  : 0/0
  3026 ;;		Unchanged: 0/0
  3027 ;; Data sizes:     COMRAM   BANK0   BANK1   BANK2   BANK3   BANK4   BANK5   BANK6   BANK7   BANK8   BANK9  BANK10  BANK1
      +1  BANK12  BANK13  BANK14
  3028 ;;      Params:         0       0       0       0       0       0       0       0       0       0       0       0       
      +0       0       0       0
  3029 ;;      Locals:         0       0       0       0       0       0       0       0       0       0       0       0       
      +0       0       0       0
  3030 ;;      Temps:          0       0       2       0       0       0       0       0       0       0       0       0       
      +0       0       0       0
  3031 ;;      Totals:         0       0       2       0       0       0       0       0       0       0       0       0       
      +0       0       0       0
  3032 ;;Total ram usage:        2 bytes
  3033 ;; Hardware stack levels used:    1
  3034 ;; Hardware stack levels required when called:    6
  3035 ;; This function calls:
  3036 ;;		_TMR0_SetInterruptHandler
  3037 ;; This function is called by:
  3038 ;;		_SYSTEM_Initialize
  3039 ;; This function uses a non-reentrant model
  3040 ;;
  3041                           
  3042                           	psect	text17
  3043  00256C                     __ptext17:
  3044                           	opt stack 0
  3045  00256C                     _TMR0_Initialize:
  3046                           	opt stack 23
  3047                           
  3048                           ;tmr0.c: 72: T0CON1 = 0x40;
  3049                           
  3050                           ;incstack = 0
  3051  00256C  0E40               	movlw	64
  3052  00256E  6ED6               	movwf	4054,c	;volatile
  3053                           
  3054                           ;tmr0.c: 75: TMR0H = 0xC1;
  3055  002570  0EC1               	movlw	193
  3056  002572  6ED4               	movwf	4052,c	;volatile
  3057                           
  3058                           ;tmr0.c: 78: TMR0L = 0x80;
  3059  002574  0E80               	movlw	128
  3060  002576  6ED3               	movwf	4051,c	;volatile
  3061                           
  3062                           ;tmr0.c: 81: timer0ReloadVal16bit = (TMR0H << 8) | TMR0L;
  3063  002578  50D3               	movf	4051,w,c	;volatile
  3064  00257A  CFD4 F18F          	movff	4052,??_TMR0_Initialize	;volatile
  3065  00257E  0101               	movlb	1	; () banked
  3066  002580  6B90               	clrf	(??_TMR0_Initialize+1)& (0+255),b
  3067  002582  C18F  F190         	movff	??_TMR0_Initialize,??_TMR0_Initialize+1
  3068  002586  6B8F               	clrf	??_TMR0_Initialize& (0+255),b
  3069  002588  118F               	iorwf	??_TMR0_Initialize& (0+255),w,b
  3070  00258A  0100               	movlb	0	; () banked
  3071  00258C  6FD0               	movwf	_timer0ReloadVal16bit& (0+255),b	;volatile
  3072  00258E  0101               	movlb	1	; () banked
  3073  002590  5190               	movf	(??_TMR0_Initialize+1)& (0+255),w,b
  3074  002592  0100               	movlb	0	; () banked
  3075  002594  6FD1               	movwf	(_timer0ReloadVal16bit+1)& (0+255),b	;volatile
  3076                           
  3077                           ; BSR set to: 0
  3078                           ;tmr0.c: 84: PIR0bits.TMR0IF = 0;
  3079  002596  010E               	movlb	14	; () banked
  3080  002598  9BCA               	bcf	202,5,b	;volatile
  3081                           
  3082                           ; BSR set to: 14
  3083                           ;tmr0.c: 87: PIE0bits.TMR0IE = 1;
  3084  00259A  8BC2               	bsf	194,5,b	;volatile
  3085                           
  3086                           ; BSR set to: 14
  3087                           ;tmr0.c: 90: TMR0_SetInterruptHandler(TMR0_DefaultInterruptHandler);
  3088  00259C  0E6C               	movlw	low _TMR0_DefaultInterruptHandler
  3089  00259E  0101               	movlb	1	; () banked
  3090  0025A0  6F8C               	movwf	TMR0_SetInterruptHandler@InterruptHandler& (0+255),b
  3091  0025A2  0E2B               	movlw	high _TMR0_DefaultInterruptHandler
  3092  0025A4  6F8D               	movwf	(TMR0_SetInterruptHandler@InterruptHandler+1)& (0+255),b
  3093  0025A6  0E00               	movlw	low (_TMR0_DefaultInterruptHandler shr (0+16))
  3094  0025A8  6F8E               	movwf	(TMR0_SetInterruptHandler@InterruptHandler+2)& (0+255),b
  3095  0025AA  ECDE  F015         	call	_TMR0_SetInterruptHandler	;wreg free
  3096                           
  3097                           ;tmr0.c: 93: T0CON0 = 0x90;
  3098  0025AE  0E90               	movlw	144
  3099  0025B0  6ED5               	movwf	4053,c	;volatile
  3100  0025B2  0012               	return		;funcret
  3101  0025B4                     __end_of_TMR0_Initialize:
  3102                           	opt stack 0
  3103                           tblptru	equ	0xFF8
  3104                           tblptrh	equ	0xFF7
  3105                           tblptrl	equ	0xFF6
  3106                           tablat	equ	0xFF5
  3107                           intcon	equ	0xFF2
  3108                           postinc0	equ	0xFEE
  3109                           wreg	equ	0xFE8
  3110                           postdec1	equ	0xFE5
  3111                           fsr1l	equ	0xFE1
  3112                           status	equ	0xFD8
  3113                           
  3114 ;; *************** function _TMR0_SetInterruptHandler *****************
  3115 ;; Defined at:
  3116 ;;		line 152 in file "mcc_generated_files/tmr0.c"
  3117 ;; Parameters:    Size  Location     Type
  3118 ;;  InterruptHan    3    0[BANK1 ] PTR FTN()void 
  3119 ;;		 -> TMR0_DefaultInterruptHandler(1), 
  3120 ;; Auto vars:     Size  Location     Type
  3121 ;;		None
  3122 ;; Return value:  Size  Location     Type
  3123 ;;                  1    wreg      void 
  3124 ;; Registers used:
  3125 ;;		wreg, status,2, status,0
  3126 ;; Tracked objects:
  3127 ;;		On entry : 0/0
  3128 ;;		On exit  : 0/0
  3129 ;;		Unchanged: 0/0
  3130 ;; Data sizes:     COMRAM   BANK0   BANK1   BANK2   BANK3   BANK4   BANK5   BANK6   BANK7   BANK8   BANK9  BANK10  BANK1
      +1  BANK12  BANK13  BANK14
  3131 ;;      Params:         0       0       3       0       0       0       0       0       0       0       0       0       
      +0       0       0       0
  3132 ;;      Locals:         0       0       0       0       0       0       0       0       0       0       0       0       
      +0       0       0       0
  3133 ;;      Temps:          0       0       0       0       0       0       0       0       0       0       0       0       
      +0       0       0       0
  3134 ;;      Totals:         0       0       3       0       0       0       0       0       0       0       0       0       
      +0       0       0       0
  3135 ;;Total ram usage:        3 bytes
  3136 ;; Hardware stack levels used:    1
  3137 ;; Hardware stack levels required when called:    5
  3138 ;; This function calls:
  3139 ;;		Nothing
  3140 ;; This function is called by:
  3141 ;;		_TMR0_Initialize
  3142 ;; This function uses a non-reentrant model
  3143 ;;
  3144                           
  3145                           	psect	text18
  3146  002BBC                     __ptext18:
  3147                           	opt stack 0
  3148  002BBC                     _TMR0_SetInterruptHandler:
  3149                           	opt stack 23
  3150                           
  3151                           ;tmr0.c: 153: TMR0_InterruptHandler = InterruptHandler;
  3152                           
  3153                           ;incstack = 0
  3154  002BBC  C18C  F0BD         	movff	TMR0_SetInterruptHandler@InterruptHandler,_TMR0_InterruptHandler
  3155  002BC0  C18D  F0BE         	movff	TMR0_SetInterruptHandler@InterruptHandler+1,_TMR0_InterruptHandler+1
  3156  002BC4  C18E  F0BF         	movff	TMR0_SetInterruptHandler@InterruptHandler+2,_TMR0_InterruptHandler+2
  3157  002BC8  0012               	return		;funcret
  3158  002BCA                     __end_of_TMR0_SetInterruptHandler:
  3159                           	opt stack 0
  3160                           tblptru	equ	0xFF8
  3161                           tblptrh	equ	0xFF7
  3162                           tblptrl	equ	0xFF6
  3163                           tablat	equ	0xFF5
  3164                           intcon	equ	0xFF2
  3165                           postinc0	equ	0xFEE
  3166                           wreg	equ	0xFE8
  3167                           postdec1	equ	0xFE5
  3168                           fsr1l	equ	0xFE1
  3169                           status	equ	0xFD8
  3170                           
  3171 ;; *************** function _PWM2_Initialize *****************
  3172 ;; Defined at:
  3173 ;;		line 64 in file "mcc_generated_files/pwm2.c"
  3174 ;; Parameters:    Size  Location     Type
  3175 ;;		None
  3176 ;; Auto vars:     Size  Location     Type
  3177 ;;		None
  3178 ;; Return value:  Size  Location     Type
  3179 ;;                  1    wreg      void 
  3180 ;; Registers used:
  3181 ;;		wreg, status,2
  3182 ;; Tracked objects:
  3183 ;;		On entry : 0/0
  3184 ;;		On exit  : 0/0
  3185 ;;		Unchanged: 0/0
  3186 ;; Data sizes:     COMRAM   BANK0   BANK1   BANK2   BANK3   BANK4   BANK5   BANK6   BANK7   BANK8   BANK9  BANK10  BANK1
      +1  BANK12  BANK13  BANK14
  3187 ;;      Params:         0       0       0       0       0       0       0       0       0       0       0       0       
      +0       0       0       0
  3188 ;;      Locals:         0       0       0       0       0       0       0       0       0       0       0       0       
      +0       0       0       0
  3189 ;;      Temps:          0       0       0       0       0       0       0       0       0       0       0       0       
      +0       0       0       0
  3190 ;;      Totals:         0       0       0       0       0       0       0       0       0       0       0       0       
      +0       0       0       0
  3191 ;;Total ram usage:        0 bytes
  3192 ;; Hardware stack levels used:    1
  3193 ;; Hardware stack levels required when called:    5
  3194 ;; This function calls:
  3195 ;;		Nothing
  3196 ;; This function is called by:
  3197 ;;		_SYSTEM_Initialize
  3198 ;; This function uses a non-reentrant model
  3199 ;;
  3200                           
  3201                           	psect	text19
  3202  002B18                     __ptext19:
  3203                           	opt stack 0
  3204  002B18                     _PWM2_Initialize:
  3205                           	opt stack 24
  3206                           
  3207                           ;pwm2.c: 69: CCP2CON = 0x8C;
  3208                           
  3209                           ;incstack = 0
  3210  002B18  0E8C               	movlw	140
  3211  002B1A  6EA8               	movwf	4008,c	;volatile
  3212                           
  3213                           ;pwm2.c: 72: CCPR2H = 0x01;
  3214  002B1C  0E01               	movlw	1
  3215  002B1E  6EA7               	movwf	4007,c	;volatile
  3216                           
  3217                           ;pwm2.c: 75: CCPR2L = 0x8F;
  3218  002B20  0E8F               	movlw	143
  3219  002B22  6EA6               	movwf	4006,c	;volatile
  3220                           
  3221                           ;pwm2.c: 78: CCPTMRSbits.C2TSEL = 0x1;
  3222  002B24  50AE               	movf	4014,w,c	;volatile
  3223  002B26  0BF3               	andlw	-13
  3224  002B28  0904               	iorlw	4
  3225  002B2A  6EAE               	movwf	4014,c	;volatile
  3226  002B2C  0012               	return		;funcret
  3227  002B2E                     __end_of_PWM2_Initialize:
  3228                           	opt stack 0
  3229                           tblptru	equ	0xFF8
  3230                           tblptrh	equ	0xFF7
  3231                           tblptrl	equ	0xFF6
  3232                           tablat	equ	0xFF5
  3233                           intcon	equ	0xFF2
  3234                           postinc0	equ	0xFEE
  3235                           wreg	equ	0xFE8
  3236                           postdec1	equ	0xFE5
  3237                           fsr1l	equ	0xFE1
  3238                           status	equ	0xFD8
  3239                           
  3240 ;; *************** function _PWM1_Initialize *****************
  3241 ;; Defined at:
  3242 ;;		line 64 in file "mcc_generated_files/pwm1.c"
  3243 ;; Parameters:    Size  Location     Type
  3244 ;;		None
  3245 ;; Auto vars:     Size  Location     Type
  3246 ;;		None
  3247 ;; Return value:  Size  Location     Type
  3248 ;;                  1    wreg      void 
  3249 ;; Registers used:
  3250 ;;		wreg, status,2
  3251 ;; Tracked objects:
  3252 ;;		On entry : 0/0
  3253 ;;		On exit  : 0/0
  3254 ;;		Unchanged: 0/0
  3255 ;; Data sizes:     COMRAM   BANK0   BANK1   BANK2   BANK3   BANK4   BANK5   BANK6   BANK7   BANK8   BANK9  BANK10  BANK1
      +1  BANK12  BANK13  BANK14
  3256 ;;      Params:         0       0       0       0       0       0       0       0       0       0       0       0       
      +0       0       0       0
  3257 ;;      Locals:         0       0       0       0       0       0       0       0       0       0       0       0       
      +0       0       0       0
  3258 ;;      Temps:          0       0       0       0       0       0       0       0       0       0       0       0       
      +0       0       0       0
  3259 ;;      Totals:         0       0       0       0       0       0       0       0       0       0       0       0       
      +0       0       0       0
  3260 ;;Total ram usage:        0 bytes
  3261 ;; Hardware stack levels used:    1
  3262 ;; Hardware stack levels required when called:    5
  3263 ;; This function calls:
  3264 ;;		Nothing
  3265 ;; This function is called by:
  3266 ;;		_SYSTEM_Initialize
  3267 ;; This function uses a non-reentrant model
  3268 ;;
  3269                           
  3270                           	psect	text20
  3271  002B2E                     __ptext20:
  3272                           	opt stack 0
  3273  002B2E                     _PWM1_Initialize:
  3274                           	opt stack 24
  3275                           
  3276                           ;pwm1.c: 69: CCP1CON = 0x8C;
  3277                           
  3278                           ;incstack = 0
  3279  002B2E  0E8C               	movlw	140
  3280  002B30  6EAC               	movwf	4012,c	;volatile
  3281                           
  3282                           ;pwm1.c: 72: CCPR1H = 0x01;
  3283  002B32  0E01               	movlw	1
  3284  002B34  6EAB               	movwf	4011,c	;volatile
  3285                           
  3286                           ;pwm1.c: 75: CCPR1L = 0x8F;
  3287  002B36  0E8F               	movlw	143
  3288  002B38  6EAA               	movwf	4010,c	;volatile
  3289                           
  3290                           ;pwm1.c: 78: CCPTMRSbits.C1TSEL = 0x1;
  3291  002B3A  50AE               	movf	4014,w,c	;volatile
  3292  002B3C  0BFC               	andlw	-4
  3293  002B3E  0901               	iorlw	1
  3294  002B40  6EAE               	movwf	4014,c	;volatile
  3295  002B42  0012               	return		;funcret
  3296  002B44                     __end_of_PWM1_Initialize:
  3297                           	opt stack 0
  3298                           tblptru	equ	0xFF8
  3299                           tblptrh	equ	0xFF7
  3300                           tblptrl	equ	0xFF6
  3301                           tablat	equ	0xFF5
  3302                           intcon	equ	0xFF2
  3303                           postinc0	equ	0xFEE
  3304                           wreg	equ	0xFE8
  3305                           postdec1	equ	0xFE5
  3306                           fsr1l	equ	0xFE1
  3307                           status	equ	0xFD8
  3308                           
  3309 ;; *************** function _PMD_Initialize *****************
  3310 ;; Defined at:
  3311 ;;		line 82 in file "mcc_generated_files/mcc.c"
  3312 ;; Parameters:    Size  Location     Type
  3313 ;;		None
  3314 ;; Auto vars:     Size  Location     Type
  3315 ;;		None
  3316 ;; Return value:  Size  Location     Type
  3317 ;;                  1    wreg      void 
  3318 ;; Registers used:
  3319 ;;		wreg, status,2
  3320 ;; Tracked objects:
  3321 ;;		On entry : 0/0
  3322 ;;		On exit  : 0/0
  3323 ;;		Unchanged: 0/0
  3324 ;; Data sizes:     COMRAM   BANK0   BANK1   BANK2   BANK3   BANK4   BANK5   BANK6   BANK7   BANK8   BANK9  BANK10  BANK1
      +1  BANK12  BANK13  BANK14
  3325 ;;      Params:         0       0       0       0       0       0       0       0       0       0       0       0       
      +0       0       0       0
  3326 ;;      Locals:         0       0       0       0       0       0       0       0       0       0       0       0       
      +0       0       0       0
  3327 ;;      Temps:          0       0       0       0       0       0       0       0       0       0       0       0       
      +0       0       0       0
  3328 ;;      Totals:         0       0       0       0       0       0       0       0       0       0       0       0       
      +0       0       0       0
  3329 ;;Total ram usage:        0 bytes
  3330 ;; Hardware stack levels used:    1
  3331 ;; Hardware stack levels required when called:    5
  3332 ;; This function calls:
  3333 ;;		Nothing
  3334 ;; This function is called by:
  3335 ;;		_SYSTEM_Initialize
  3336 ;; This function uses a non-reentrant model
  3337 ;;
  3338                           
  3339                           	psect	text21
  3340  002A5C                     __ptext21:
  3341                           	opt stack 0
  3342  002A5C                     _PMD_Initialize:
  3343                           	opt stack 24
  3344                           
  3345                           ;mcc.c: 85: PMD0 = 0x00;
  3346                           
  3347                           ;incstack = 0
  3348  002A5C  0E00               	movlw	0
  3349  002A5E  010E               	movlb	14	; () banked
  3350  002A60  6FE1               	movwf	225,b	;volatile
  3351                           
  3352                           ;mcc.c: 87: PMD1 = 0x00;
  3353  002A62  0E00               	movlw	0
  3354  002A64  6FE2               	movwf	226,b	;volatile
  3355                           
  3356                           ;mcc.c: 89: PMD2 = 0x00;
  3357  002A66  0E00               	movlw	0
  3358  002A68  6FE3               	movwf	227,b	;volatile
  3359                           
  3360                           ;mcc.c: 91: PMD3 = 0x00;
  3361  002A6A  0E00               	movlw	0
  3362  002A6C  6FE4               	movwf	228,b	;volatile
  3363                           
  3364                           ;mcc.c: 93: PMD4 = 0x00;
  3365  002A6E  0E00               	movlw	0
  3366  002A70  6FE5               	movwf	229,b	;volatile
  3367                           
  3368                           ;mcc.c: 95: PMD5 = 0x00;
  3369  002A72  0E00               	movlw	0
  3370  002A74  6FE6               	movwf	230,b	;volatile
  3371                           
  3372                           ; BSR set to: 14
  3373  002A76  0012               	return		;funcret
  3374  002A78                     __end_of_PMD_Initialize:
  3375                           	opt stack 0
  3376                           tblptru	equ	0xFF8
  3377                           tblptrh	equ	0xFF7
  3378                           tblptrl	equ	0xFF6
  3379                           tablat	equ	0xFF5
  3380                           intcon	equ	0xFF2
  3381                           postinc0	equ	0xFEE
  3382                           wreg	equ	0xFE8
  3383                           postdec1	equ	0xFE5
  3384                           fsr1l	equ	0xFE1
  3385                           status	equ	0xFD8
  3386                           
  3387 ;; *************** function _PIN_MANAGER_Initialize *****************
  3388 ;; Defined at:
  3389 ;;		line 66 in file "mcc_generated_files/pin_manager.c"
  3390 ;; Parameters:    Size  Location     Type
  3391 ;;		None
  3392 ;; Auto vars:     Size  Location     Type
  3393 ;;		None
  3394 ;; Return value:  Size  Location     Type
  3395 ;;                  1    wreg      void 
  3396 ;; Registers used:
  3397 ;;		wreg, status,2, status,0, cstack
  3398 ;; Tracked objects:
  3399 ;;		On entry : 0/0
  3400 ;;		On exit  : 0/0
  3401 ;;		Unchanged: 0/0
  3402 ;; Data sizes:     COMRAM   BANK0   BANK1   BANK2   BANK3   BANK4   BANK5   BANK6   BANK7   BANK8   BANK9  BANK10  BANK1
      +1  BANK12  BANK13  BANK14
  3403 ;;      Params:         0       0       0       0       0       0       0       0       0       0       0       0       
      +0       0       0       0
  3404 ;;      Locals:         0       0       0       0       0       0       0       0       0       0       0       0       
      +0       0       0       0
  3405 ;;      Temps:          0       0       0       0       0       0       0       0       0       0       0       0       
      +0       0       0       0
  3406 ;;      Totals:         0       0       0       0       0       0       0       0       0       0       0       0       
      +0       0       0       0
  3407 ;;Total ram usage:        0 bytes
  3408 ;; Hardware stack levels used:    1
  3409 ;; Hardware stack levels required when called:    6
  3410 ;; This function calls:
  3411 ;;		_IOCAF5_SetInterruptHandler
  3412 ;;		_IOCAF6_SetInterruptHandler
  3413 ;;		_IOCAF7_SetInterruptHandler
  3414 ;;		_IOCCF0_SetInterruptHandler
  3415 ;; This function is called by:
  3416 ;;		_SYSTEM_Initialize
  3417 ;; This function uses a non-reentrant model
  3418 ;;
  3419                           
  3420                           	psect	text22
  3421  001E14                     __ptext22:
  3422                           	opt stack 0
  3423  001E14                     _PIN_MANAGER_Initialize:
  3424                           	opt stack 23
  3425                           
  3426                           ;pin_manager.c: 71: LATE = 0x00;
  3427                           
  3428                           ; BSR set to: 14
  3429                           ;incstack = 0
  3430  001E14  0E00               	movlw	0
  3431  001E16  6E87               	movwf	3975,c	;volatile
  3432                           
  3433                           ;pin_manager.c: 72: LATD = 0x00;
  3434  001E18  0E00               	movlw	0
  3435  001E1A  6E86               	movwf	3974,c	;volatile
  3436                           
  3437                           ;pin_manager.c: 73: LATA = 0x00;
  3438  001E1C  0E00               	movlw	0
  3439  001E1E  6E83               	movwf	3971,c	;volatile
  3440                           
  3441                           ;pin_manager.c: 74: LATB = 0x00;
  3442  001E20  0E00               	movlw	0
  3443  001E22  6E84               	movwf	3972,c	;volatile
  3444                           
  3445                           ;pin_manager.c: 75: LATC = 0x00;
  3446  001E24  0E00               	movlw	0
  3447  001E26  6E85               	movwf	3973,c	;volatile
  3448                           
  3449                           ;pin_manager.c: 80: TRISE = 0x02;
  3450  001E28  0E02               	movlw	2
  3451  001E2A  6E8C               	movwf	3980,c	;volatile
  3452                           
  3453                           ;pin_manager.c: 81: TRISA = 0xE0;
  3454  001E2C  0EE0               	movlw	224
  3455  001E2E  6E88               	movwf	3976,c	;volatile
  3456                           
  3457                           ;pin_manager.c: 82: TRISB = 0xC7;
  3458  001E30  0EC7               	movlw	199
  3459  001E32  6E89               	movwf	3977,c	;volatile
  3460                           
  3461                           ;pin_manager.c: 83: TRISC = 0x99;
  3462  001E34  0E99               	movlw	153
  3463  001E36  6E8A               	movwf	3978,c	;volatile
  3464                           
  3465                           ;pin_manager.c: 84: TRISD = 0xE3;
  3466  001E38  0EE3               	movlw	227
  3467  001E3A  6E8B               	movwf	3979,c	;volatile
  3468                           
  3469                           ;pin_manager.c: 89: ANSELD = 0x1C;
  3470  001E3C  0E1C               	movlw	28
  3471  001E3E  010F               	movlb	15	; () banked
  3472  001E40  6F26               	movwf	38,b	;volatile
  3473                           
  3474                           ;pin_manager.c: 90: ANSELC = 0x66;
  3475  001E42  0E66               	movlw	102
  3476  001E44  6F21               	movwf	33,b	;volatile
  3477                           
  3478                           ;pin_manager.c: 91: ANSELB = 0xF8;
  3479  001E46  0EF8               	movlw	248
  3480  001E48  6F19               	movwf	25,b	;volatile
  3481                           
  3482                           ;pin_manager.c: 92: ANSELE = 0x05;
  3483  001E4A  0E05               	movlw	5
  3484  001E4C  6F2E               	movwf	46,b	;volatile
  3485                           
  3486                           ;pin_manager.c: 93: ANSELA = 0x1F;
  3487  001E4E  0E1F               	movlw	31
  3488  001E50  6F11               	movwf	17,b	;volatile
  3489                           
  3490                           ;pin_manager.c: 98: WPUD = 0x06;
  3491  001E52  0E06               	movlw	6
  3492  001E54  6F25               	movwf	37,b	;volatile
  3493                           
  3494                           ;pin_manager.c: 99: WPUE = 0x00;
  3495  001E56  0E00               	movlw	0
  3496  001E58  6F2D               	movwf	45,b	;volatile
  3497                           
  3498                           ;pin_manager.c: 100: WPUB = 0x00;
  3499  001E5A  0E00               	movlw	0
  3500  001E5C  6F18               	movwf	24,b	;volatile
  3501                           
  3502                           ;pin_manager.c: 101: WPUA = 0xC0;
  3503  001E5E  0EC0               	movlw	192
  3504  001E60  6F10               	movwf	16,b	;volatile
  3505                           
  3506                           ;pin_manager.c: 102: WPUC = 0x00;
  3507  001E62  0E00               	movlw	0
  3508  001E64  6F20               	movwf	32,b	;volatile
  3509                           
  3510                           ;pin_manager.c: 107: ODCONE = 0x00;
  3511  001E66  0E00               	movlw	0
  3512  001E68  6F2C               	movwf	44,b	;volatile
  3513                           
  3514                           ;pin_manager.c: 108: ODCONA = 0x00;
  3515  001E6A  0E00               	movlw	0
  3516  001E6C  6F0F               	movwf	15,b	;volatile
  3517                           
  3518                           ;pin_manager.c: 109: ODCONB = 0x00;
  3519  001E6E  0E00               	movlw	0
  3520  001E70  6F17               	movwf	23,b	;volatile
  3521                           
  3522                           ;pin_manager.c: 110: ODCONC = 0x00;
  3523  001E72  0E00               	movlw	0
  3524  001E74  6F1F               	movwf	31,b	;volatile
  3525                           
  3526                           ;pin_manager.c: 111: ODCOND = 0x00;
  3527  001E76  0E00               	movlw	0
  3528  001E78  6F24               	movwf	36,b	;volatile
  3529                           
  3530                           ; BSR set to: 15
  3531                           ;pin_manager.c: 116: SLRCONA = 0xFF;
  3532  001E7A  690E               	setf	14,b	;volatile
  3533                           
  3534                           ; BSR set to: 15
  3535                           ;pin_manager.c: 117: SLRCONB = 0xFF;
  3536  001E7C  6916               	setf	22,b	;volatile
  3537                           
  3538                           ; BSR set to: 15
  3539                           ;pin_manager.c: 118: SLRCONC = 0xFF;
  3540  001E7E  691E               	setf	30,b	;volatile
  3541                           
  3542                           ; BSR set to: 15
  3543                           ;pin_manager.c: 119: SLRCOND = 0xFF;
  3544  001E80  6923               	setf	35,b	;volatile
  3545                           
  3546                           ;pin_manager.c: 120: SLRCONE = 0x07;
  3547  001E82  0E07               	movlw	7
  3548  001E84  6F2B               	movwf	43,b	;volatile
  3549                           
  3550                           ; BSR set to: 15
  3551                           ;pin_manager.c: 125: INLVLA = 0xFF;
  3552  001E86  690D               	setf	13,b	;volatile
  3553                           
  3554                           ; BSR set to: 15
  3555                           ;pin_manager.c: 126: INLVLB = 0xFF;
  3556  001E88  6915               	setf	21,b	;volatile
  3557                           
  3558                           ; BSR set to: 15
  3559                           ;pin_manager.c: 127: INLVLC = 0xFF;
  3560  001E8A  691D               	setf	29,b	;volatile
  3561                           
  3562                           ; BSR set to: 15
  3563                           ;pin_manager.c: 128: INLVLD = 0xFF;
  3564  001E8C  6922               	setf	34,b	;volatile
  3565                           
  3566                           ;pin_manager.c: 129: INLVLE = 0x0F;
  3567  001E8E  0E0F               	movlw	15
  3568  001E90  6F2A               	movwf	42,b	;volatile
  3569                           
  3570                           ; BSR set to: 15
  3571                           ;pin_manager.c: 136: IOCAFbits.IOCAF5 = 0;
  3572  001E92  9B0A               	bcf	10,5,b	;volatile
  3573                           
  3574                           ; BSR set to: 15
  3575                           ;pin_manager.c: 138: IOCAFbits.IOCAF6 = 0;
  3576  001E94  9D0A               	bcf	10,6,b	;volatile
  3577                           
  3578                           ; BSR set to: 15
  3579                           ;pin_manager.c: 140: IOCAFbits.IOCAF7 = 0;
  3580  001E96  9F0A               	bcf	10,7,b	;volatile
  3581                           
  3582                           ; BSR set to: 15
  3583                           ;pin_manager.c: 142: IOCANbits.IOCAN5 = 1;
  3584  001E98  8B0B               	bsf	11,5,b	;volatile
  3585                           
  3586                           ; BSR set to: 15
  3587                           ;pin_manager.c: 144: IOCANbits.IOCAN6 = 1;
  3588  001E9A  8D0B               	bsf	11,6,b	;volatile
  3589                           
  3590                           ; BSR set to: 15
  3591                           ;pin_manager.c: 146: IOCANbits.IOCAN7 = 1;
  3592  001E9C  8F0B               	bsf	11,7,b	;volatile
  3593                           
  3594                           ; BSR set to: 15
  3595                           ;pin_manager.c: 148: IOCAPbits.IOCAP5 = 0;
  3596  001E9E  9B0C               	bcf	12,5,b	;volatile
  3597                           
  3598                           ; BSR set to: 15
  3599                           ;pin_manager.c: 150: IOCAPbits.IOCAP7 = 0;
  3600  001EA0  9F0C               	bcf	12,7,b	;volatile
  3601                           
  3602                           ; BSR set to: 15
  3603                           ;pin_manager.c: 152: IOCCFbits.IOCCF0 = 0;
  3604  001EA2  911A               	bcf	26,0,b	;volatile
  3605                           
  3606                           ; BSR set to: 15
  3607                           ;pin_manager.c: 154: IOCCNbits.IOCCN0 = 1;
  3608  001EA4  811B               	bsf	27,0,b	;volatile
  3609                           
  3610                           ; BSR set to: 15
  3611                           ;pin_manager.c: 156: IOCCPbits.IOCCP0 = 0;
  3612  001EA6  911C               	bcf	28,0,b	;volatile
  3613                           
  3614                           ; BSR set to: 15
  3615                           ;pin_manager.c: 161: IOCAF5_SetInterruptHandler(IOCAF5_DefaultInterruptHandler);
  3616  001EA8  0E82               	movlw	low _IOCAF5_DefaultInterruptHandler
  3617  001EAA  0101               	movlb	1	; () banked
  3618  001EAC  6F8C               	movwf	IOCAF5_SetInterruptHandler@InterruptHandler& (0+255),b
  3619  001EAE  0E24               	movlw	high _IOCAF5_DefaultInterruptHandler
  3620  001EB0  6F8D               	movwf	(IOCAF5_SetInterruptHandler@InterruptHandler+1)& (0+255),b
  3621  001EB2  0E00               	movlw	low (_IOCAF5_DefaultInterruptHandler shr (0+16))
  3622  001EB4  6F8E               	movwf	(IOCAF5_SetInterruptHandler@InterruptHandler+2)& (0+255),b
  3623  001EB6  ECFA  F015         	call	_IOCAF5_SetInterruptHandler	;wreg free
  3624                           
  3625                           ;pin_manager.c: 162: IOCAF6_SetInterruptHandler(IOCAF6_DefaultInterruptHandler);
  3626  001EBA  0E68               	movlw	low _IOCAF6_DefaultInterruptHandler
  3627  001EBC  0101               	movlb	1	; () banked
  3628  001EBE  6F8C               	movwf	IOCAF6_SetInterruptHandler@InterruptHandler& (0+255),b
  3629  001EC0  0E26               	movlw	high _IOCAF6_DefaultInterruptHandler
  3630  001EC2  6F8D               	movwf	(IOCAF6_SetInterruptHandler@InterruptHandler+1)& (0+255),b
  3631  001EC4  0E00               	movlw	low (_IOCAF6_DefaultInterruptHandler shr (0+16))
  3632  001EC6  6F8E               	movwf	(IOCAF6_SetInterruptHandler@InterruptHandler+2)& (0+255),b
  3633  001EC8  ECF3  F015         	call	_IOCAF6_SetInterruptHandler	;wreg free
  3634                           
  3635                           ;pin_manager.c: 163: IOCAF7_SetInterruptHandler(IOCAF7_DefaultInterruptHandler);
  3636  001ECC  0E90               	movlw	low _IOCAF7_DefaultInterruptHandler
  3637  001ECE  0101               	movlb	1	; () banked
  3638  001ED0  6F8C               	movwf	IOCAF7_SetInterruptHandler@InterruptHandler& (0+255),b
  3639  001ED2  0E2C               	movlw	high _IOCAF7_DefaultInterruptHandler
  3640  001ED4  6F8D               	movwf	(IOCAF7_SetInterruptHandler@InterruptHandler+1)& (0+255),b
  3641  001ED6  0E00               	movlw	low (_IOCAF7_DefaultInterruptHandler shr (0+16))
  3642  001ED8  6F8E               	movwf	(IOCAF7_SetInterruptHandler@InterruptHandler+2)& (0+255),b
  3643  001EDA  ECEC  F015         	call	_IOCAF7_SetInterruptHandler	;wreg free
  3644                           
  3645                           ;pin_manager.c: 164: IOCCF0_SetInterruptHandler(IOCCF0_DefaultInterruptHandler);
  3646  001EDE  0E32               	movlw	low _IOCCF0_DefaultInterruptHandler
  3647  001EE0  0101               	movlb	1	; () banked
  3648  001EE2  6F8C               	movwf	IOCCF0_SetInterruptHandler@InterruptHandler& (0+255),b
  3649  001EE4  0E24               	movlw	high _IOCCF0_DefaultInterruptHandler
  3650  001EE6  6F8D               	movwf	(IOCCF0_SetInterruptHandler@InterruptHandler+1)& (0+255),b
  3651  001EE8  0E00               	movlw	low (_IOCCF0_DefaultInterruptHandler shr (0+16))
  3652  001EEA  6F8E               	movwf	(IOCCF0_SetInterruptHandler@InterruptHandler+2)& (0+255),b
  3653  001EEC  ECE5  F015         	call	_IOCCF0_SetInterruptHandler	;wreg free
  3654                           
  3655                           ;pin_manager.c: 167: PIE0bits.IOCIE = 1;
  3656  001EF0  010E               	movlb	14	; () banked
  3657  001EF2  89C2               	bsf	194,4,b	;volatile
  3658                           
  3659                           ;pin_manager.c: 170: SSP1CLKPPS = 0x13;
  3660  001EF4  0E13               	movlw	19
  3661  001EF6  6FB7               	movwf	183,b	;volatile
  3662                           
  3663                           ;pin_manager.c: 171: RX1PPS = 0x17;
  3664  001EF8  0E17               	movlw	23
  3665  001EFA  6FB5               	movwf	181,b	;volatile
  3666                           
  3667                           ;pin_manager.c: 172: RC3PPS = 0x0F;
  3668  001EFC  0E0F               	movlw	15
  3669  001EFE  6FFA               	movwf	250,b	;volatile
  3670                           
  3671                           ;pin_manager.c: 173: RC1PPS = 0x06;
  3672  001F00  0E06               	movlw	6
  3673  001F02  6FF8               	movwf	248,b	;volatile
  3674                           
  3675                           ;pin_manager.c: 174: RC4PPS = 0x10;
  3676  001F04  0E10               	movlw	16
  3677  001F06  6FFB               	movwf	251,b	;volatile
  3678                           
  3679                           ;pin_manager.c: 175: RC2PPS = 0x05;
  3680  001F08  0E05               	movlw	5
  3681  001F0A  6FF9               	movwf	249,b	;volatile
  3682                           
  3683                           ;pin_manager.c: 176: RC6PPS = 0x09;
  3684  001F0C  0E09               	movlw	9
  3685  001F0E  6FFD               	movwf	253,b	;volatile
  3686                           
  3687                           ;pin_manager.c: 177: SSP1DATPPS = 0x14;
  3688  001F10  0E14               	movlw	20
  3689  001F12  6FB8               	movwf	184,b	;volatile
  3690                           
  3691                           ; BSR set to: 14
  3692  001F14  0012               	return		;funcret
  3693  001F16                     __end_of_PIN_MANAGER_Initialize:
  3694                           	opt stack 0
  3695                           tblptru	equ	0xFF8
  3696                           tblptrh	equ	0xFF7
  3697                           tblptrl	equ	0xFF6
  3698                           tablat	equ	0xFF5
  3699                           intcon	equ	0xFF2
  3700                           postinc0	equ	0xFEE
  3701                           wreg	equ	0xFE8
  3702                           postdec1	equ	0xFE5
  3703                           fsr1l	equ	0xFE1
  3704                           status	equ	0xFD8
  3705                           
  3706 ;; *************** function _IOCCF0_SetInterruptHandler *****************
  3707 ;; Defined at:
  3708 ;;		line 337 in file "mcc_generated_files/pin_manager.c"
  3709 ;; Parameters:    Size  Location     Type
  3710 ;;  InterruptHan    3    0[BANK1 ] PTR FTN()void 
  3711 ;;		 -> IOCCF0_DefaultInterruptHandler(1), 
  3712 ;; Auto vars:     Size  Location     Type
  3713 ;;		None
  3714 ;; Return value:  Size  Location     Type
  3715 ;;                  1    wreg      void 
  3716 ;; Registers used:
  3717 ;;		wreg, status,2, status,0
  3718 ;; Tracked objects:
  3719 ;;		On entry : 0/0
  3720 ;;		On exit  : 0/0
  3721 ;;		Unchanged: 0/0
  3722 ;; Data sizes:     COMRAM   BANK0   BANK1   BANK2   BANK3   BANK4   BANK5   BANK6   BANK7   BANK8   BANK9  BANK10  BANK1
      +1  BANK12  BANK13  BANK14
  3723 ;;      Params:         0       0       3       0       0       0       0       0       0       0       0       0       
      +0       0       0       0
  3724 ;;      Locals:         0       0       0       0       0       0       0       0       0       0       0       0       
      +0       0       0       0
  3725 ;;      Temps:          0       0       0       0       0       0       0       0       0       0       0       0       
      +0       0       0       0
  3726 ;;      Totals:         0       0       3       0       0       0       0       0       0       0       0       0       
      +0       0       0       0
  3727 ;;Total ram usage:        3 bytes
  3728 ;; Hardware stack levels used:    1
  3729 ;; Hardware stack levels required when called:    5
  3730 ;; This function calls:
  3731 ;;		Nothing
  3732 ;; This function is called by:
  3733 ;;		_PIN_MANAGER_Initialize
  3734 ;; This function uses a non-reentrant model
  3735 ;;
  3736                           
  3737                           	psect	text23
  3738  002BCA                     __ptext23:
  3739                           	opt stack 0
  3740  002BCA                     _IOCCF0_SetInterruptHandler:
  3741                           	opt stack 23
  3742                           
  3743                           ;pin_manager.c: 338: IOCCF0_InterruptHandler = InterruptHandler;
  3744                           
  3745                           ; BSR set to: 14
  3746                           ;incstack = 0
  3747  002BCA  C18C  F0C0         	movff	IOCCF0_SetInterruptHandler@InterruptHandler,_IOCCF0_InterruptHandler
  3748  002BCE  C18D  F0C1         	movff	IOCCF0_SetInterruptHandler@InterruptHandler+1,_IOCCF0_InterruptHandler+1
  3749  002BD2  C18E  F0C2         	movff	IOCCF0_SetInterruptHandler@InterruptHandler+2,_IOCCF0_InterruptHandler+2
  3750  002BD6  0012               	return		;funcret
  3751  002BD8                     __end_of_IOCCF0_SetInterruptHandler:
  3752                           	opt stack 0
  3753                           tblptru	equ	0xFF8
  3754                           tblptrh	equ	0xFF7
  3755                           tblptrl	equ	0xFF6
  3756                           tablat	equ	0xFF5
  3757                           intcon	equ	0xFF2
  3758                           postinc0	equ	0xFEE
  3759                           wreg	equ	0xFE8
  3760                           postdec1	equ	0xFE5
  3761                           fsr1l	equ	0xFE1
  3762                           status	equ	0xFD8
  3763                           
  3764 ;; *************** function _IOCAF7_SetInterruptHandler *****************
  3765 ;; Defined at:
  3766 ;;		line 307 in file "mcc_generated_files/pin_manager.c"
  3767 ;; Parameters:    Size  Location     Type
  3768 ;;  InterruptHan    3    0[BANK1 ] PTR FTN()void 
  3769 ;;		 -> IOCAF7_DefaultInterruptHandler(1), 
  3770 ;; Auto vars:     Size  Location     Type
  3771 ;;		None
  3772 ;; Return value:  Size  Location     Type
  3773 ;;                  1    wreg      void 
  3774 ;; Registers used:
  3775 ;;		wreg, status,2, status,0
  3776 ;; Tracked objects:
  3777 ;;		On entry : 0/0
  3778 ;;		On exit  : 0/0
  3779 ;;		Unchanged: 0/0
  3780 ;; Data sizes:     COMRAM   BANK0   BANK1   BANK2   BANK3   BANK4   BANK5   BANK6   BANK7   BANK8   BANK9  BANK10  BANK1
      +1  BANK12  BANK13  BANK14
  3781 ;;      Params:         0       0       3       0       0       0       0       0       0       0       0       0       
      +0       0       0       0
  3782 ;;      Locals:         0       0       0       0       0       0       0       0       0       0       0       0       
      +0       0       0       0
  3783 ;;      Temps:          0       0       0       0       0       0       0       0       0       0       0       0       
      +0       0       0       0
  3784 ;;      Totals:         0       0       3       0       0       0       0       0       0       0       0       0       
      +0       0       0       0
  3785 ;;Total ram usage:        3 bytes
  3786 ;; Hardware stack levels used:    1
  3787 ;; Hardware stack levels required when called:    5
  3788 ;; This function calls:
  3789 ;;		Nothing
  3790 ;; This function is called by:
  3791 ;;		_PIN_MANAGER_Initialize
  3792 ;; This function uses a non-reentrant model
  3793 ;;
  3794                           
  3795                           	psect	text24
  3796  002BD8                     __ptext24:
  3797                           	opt stack 0
  3798  002BD8                     _IOCAF7_SetInterruptHandler:
  3799                           	opt stack 23
  3800                           
  3801                           ;pin_manager.c: 308: IOCAF7_InterruptHandler = InterruptHandler;
  3802                           
  3803                           ;incstack = 0
  3804  002BD8  C18C  F0C3         	movff	IOCAF7_SetInterruptHandler@InterruptHandler,_IOCAF7_InterruptHandler
  3805  002BDC  C18D  F0C4         	movff	IOCAF7_SetInterruptHandler@InterruptHandler+1,_IOCAF7_InterruptHandler+1
  3806  002BE0  C18E  F0C5         	movff	IOCAF7_SetInterruptHandler@InterruptHandler+2,_IOCAF7_InterruptHandler+2
  3807  002BE4  0012               	return		;funcret
  3808  002BE6                     __end_of_IOCAF7_SetInterruptHandler:
  3809                           	opt stack 0
  3810                           tblptru	equ	0xFF8
  3811                           tblptrh	equ	0xFF7
  3812                           tblptrl	equ	0xFF6
  3813                           tablat	equ	0xFF5
  3814                           intcon	equ	0xFF2
  3815                           postinc0	equ	0xFEE
  3816                           wreg	equ	0xFE8
  3817                           postdec1	equ	0xFE5
  3818                           fsr1l	equ	0xFE1
  3819                           status	equ	0xFD8
  3820                           
  3821 ;; *************** function _IOCAF6_SetInterruptHandler *****************
  3822 ;; Defined at:
  3823 ;;		line 266 in file "mcc_generated_files/pin_manager.c"
  3824 ;; Parameters:    Size  Location     Type
  3825 ;;  InterruptHan    3    0[BANK1 ] PTR FTN()void 
  3826 ;;		 -> IOCAF6_DefaultInterruptHandler(1), 
  3827 ;; Auto vars:     Size  Location     Type
  3828 ;;		None
  3829 ;; Return value:  Size  Location     Type
  3830 ;;                  1    wreg      void 
  3831 ;; Registers used:
  3832 ;;		wreg, status,2, status,0
  3833 ;; Tracked objects:
  3834 ;;		On entry : 0/0
  3835 ;;		On exit  : 0/0
  3836 ;;		Unchanged: 0/0
  3837 ;; Data sizes:     COMRAM   BANK0   BANK1   BANK2   BANK3   BANK4   BANK5   BANK6   BANK7   BANK8   BANK9  BANK10  BANK1
      +1  BANK12  BANK13  BANK14
  3838 ;;      Params:         0       0       3       0       0       0       0       0       0       0       0       0       
      +0       0       0       0
  3839 ;;      Locals:         0       0       0       0       0       0       0       0       0       0       0       0       
      +0       0       0       0
  3840 ;;      Temps:          0       0       0       0       0       0       0       0       0       0       0       0       
      +0       0       0       0
  3841 ;;      Totals:         0       0       3       0       0       0       0       0       0       0       0       0       
      +0       0       0       0
  3842 ;;Total ram usage:        3 bytes
  3843 ;; Hardware stack levels used:    1
  3844 ;; Hardware stack levels required when called:    5
  3845 ;; This function calls:
  3846 ;;		Nothing
  3847 ;; This function is called by:
  3848 ;;		_PIN_MANAGER_Initialize
  3849 ;; This function uses a non-reentrant model
  3850 ;;
  3851                           
  3852                           	psect	text25
  3853  002BE6                     __ptext25:
  3854                           	opt stack 0
  3855  002BE6                     _IOCAF6_SetInterruptHandler:
  3856                           	opt stack 23
  3857                           
  3858                           ;pin_manager.c: 267: IOCAF6_InterruptHandler = InterruptHandler;
  3859                           
  3860                           ;incstack = 0
  3861  002BE6  C18C  F0C6         	movff	IOCAF6_SetInterruptHandler@InterruptHandler,_IOCAF6_InterruptHandler
  3862  002BEA  C18D  F0C7         	movff	IOCAF6_SetInterruptHandler@InterruptHandler+1,_IOCAF6_InterruptHandler+1
  3863  002BEE  C18E  F0C8         	movff	IOCAF6_SetInterruptHandler@InterruptHandler+2,_IOCAF6_InterruptHandler+2
  3864  002BF2  0012               	return		;funcret
  3865  002BF4                     __end_of_IOCAF6_SetInterruptHandler:
  3866                           	opt stack 0
  3867                           tblptru	equ	0xFF8
  3868                           tblptrh	equ	0xFF7
  3869                           tblptrl	equ	0xFF6
  3870                           tablat	equ	0xFF5
  3871                           intcon	equ	0xFF2
  3872                           postinc0	equ	0xFEE
  3873                           wreg	equ	0xFE8
  3874                           postdec1	equ	0xFE5
  3875                           fsr1l	equ	0xFE1
  3876                           status	equ	0xFD8
  3877                           
  3878 ;; *************** function _IOCAF5_SetInterruptHandler *****************
  3879 ;; Defined at:
  3880 ;;		line 222 in file "mcc_generated_files/pin_manager.c"
  3881 ;; Parameters:    Size  Location     Type
  3882 ;;  InterruptHan    3    0[BANK1 ] PTR FTN()void 
  3883 ;;		 -> IOCAF5_DefaultInterruptHandler(1), 
  3884 ;; Auto vars:     Size  Location     Type
  3885 ;;		None
  3886 ;; Return value:  Size  Location     Type
  3887 ;;                  1    wreg      void 
  3888 ;; Registers used:
  3889 ;;		wreg, status,2, status,0
  3890 ;; Tracked objects:
  3891 ;;		On entry : 0/0
  3892 ;;		On exit  : 0/0
  3893 ;;		Unchanged: 0/0
  3894 ;; Data sizes:     COMRAM   BANK0   BANK1   BANK2   BANK3   BANK4   BANK5   BANK6   BANK7   BANK8   BANK9  BANK10  BANK1
      +1  BANK12  BANK13  BANK14
  3895 ;;      Params:         0       0       3       0       0       0       0       0       0       0       0       0       
      +0       0       0       0
  3896 ;;      Locals:         0       0       0       0       0       0       0       0       0       0       0       0       
      +0       0       0       0
  3897 ;;      Temps:          0       0       0       0       0       0       0       0       0       0       0       0       
      +0       0       0       0
  3898 ;;      Totals:         0       0       3       0       0       0       0       0       0       0       0       0       
      +0       0       0       0
  3899 ;;Total ram usage:        3 bytes
  3900 ;; Hardware stack levels used:    1
  3901 ;; Hardware stack levels required when called:    5
  3902 ;; This function calls:
  3903 ;;		Nothing
  3904 ;; This function is called by:
  3905 ;;		_PIN_MANAGER_Initialize
  3906 ;; This function uses a non-reentrant model
  3907 ;;
  3908                           
  3909                           	psect	text26
  3910  002BF4                     __ptext26:
  3911                           	opt stack 0
  3912  002BF4                     _IOCAF5_SetInterruptHandler:
  3913                           	opt stack 23
  3914                           
  3915                           ;pin_manager.c: 223: IOCAF5_InterruptHandler = InterruptHandler;
  3916                           
  3917                           ;incstack = 0
  3918  002BF4  C18C  F0C9         	movff	IOCAF5_SetInterruptHandler@InterruptHandler,_IOCAF5_InterruptHandler
  3919  002BF8  C18D  F0CA         	movff	IOCAF5_SetInterruptHandler@InterruptHandler+1,_IOCAF5_InterruptHandler+1
  3920  002BFC  C18E  F0CB         	movff	IOCAF5_SetInterruptHandler@InterruptHandler+2,_IOCAF5_InterruptHandler+2
  3921  002C00  0012               	return		;funcret
  3922  002C02                     __end_of_IOCAF5_SetInterruptHandler:
  3923                           	opt stack 0
  3924                           tblptru	equ	0xFF8
  3925                           tblptrh	equ	0xFF7
  3926                           tblptrl	equ	0xFF6
  3927                           tablat	equ	0xFF5
  3928                           intcon	equ	0xFF2
  3929                           postinc0	equ	0xFEE
  3930                           wreg	equ	0xFE8
  3931                           postdec1	equ	0xFE5
  3932                           fsr1l	equ	0xFE1
  3933                           status	equ	0xFD8
  3934                           
  3935 ;; *************** function _OSCILLATOR_Initialize *****************
  3936 ;; Defined at:
  3937 ;;		line 68 in file "mcc_generated_files/mcc.c"
  3938 ;; Parameters:    Size  Location     Type
  3939 ;;		None
  3940 ;; Auto vars:     Size  Location     Type
  3941 ;;		None
  3942 ;; Return value:  Size  Location     Type
  3943 ;;                  1    wreg      void 
  3944 ;; Registers used:
  3945 ;;		wreg, status,2
  3946 ;; Tracked objects:
  3947 ;;		On entry : 0/0
  3948 ;;		On exit  : 0/0
  3949 ;;		Unchanged: 0/0
  3950 ;; Data sizes:     COMRAM   BANK0   BANK1   BANK2   BANK3   BANK4   BANK5   BANK6   BANK7   BANK8   BANK9  BANK10  BANK1
      +1  BANK12  BANK13  BANK14
  3951 ;;      Params:         0       0       0       0       0       0       0       0       0       0       0       0       
      +0       0       0       0
  3952 ;;      Locals:         0       0       0       0       0       0       0       0       0       0       0       0       
      +0       0       0       0
  3953 ;;      Temps:          0       0       0       0       0       0       0       0       0       0       0       0       
      +0       0       0       0
  3954 ;;      Totals:         0       0       0       0       0       0       0       0       0       0       0       0       
      +0       0       0       0
  3955 ;;Total ram usage:        0 bytes
  3956 ;; Hardware stack levels used:    1
  3957 ;; Hardware stack levels required when called:    5
  3958 ;; This function calls:
  3959 ;;		Nothing
  3960 ;; This function is called by:
  3961 ;;		_SYSTEM_Initialize
  3962 ;; This function uses a non-reentrant model
  3963 ;;
  3964                           
  3965                           	psect	text27
  3966  002AE8                     __ptext27:
  3967                           	opt stack 0
  3968  002AE8                     _OSCILLATOR_Initialize:
  3969                           	opt stack 24
  3970                           
  3971                           ;mcc.c: 71: OSCCON1 = 0x60;
  3972                           
  3973                           ;incstack = 0
  3974  002AE8  0E60               	movlw	96
  3975  002AEA  010E               	movlb	14	; () banked
  3976  002AEC  6FD8               	movwf	216,b	;volatile
  3977                           
  3978                           ;mcc.c: 73: OSCCON3 = 0x00;
  3979  002AEE  0E00               	movlw	0
  3980  002AF0  6FDA               	movwf	218,b	;volatile
  3981                           
  3982                           ;mcc.c: 75: OSCEN = 0x00;
  3983  002AF2  0E00               	movlw	0
  3984  002AF4  6FDC               	movwf	220,b	;volatile
  3985                           
  3986                           ;mcc.c: 77: OSCFRQ = 0x08;
  3987  002AF6  0E08               	movlw	8
  3988  002AF8  6FDE               	movwf	222,b	;volatile
  3989                           
  3990                           ;mcc.c: 79: OSCTUNE = 0x00;
  3991  002AFA  0E00               	movlw	0
  3992  002AFC  6FDD               	movwf	221,b	;volatile
  3993                           
  3994                           ; BSR set to: 14
  3995  002AFE  0012               	return		;funcret
  3996  002B00                     __end_of_OSCILLATOR_Initialize:
  3997                           	opt stack 0
  3998                           tblptru	equ	0xFF8
  3999                           tblptrh	equ	0xFF7
  4000                           tblptrl	equ	0xFF6
  4001                           tablat	equ	0xFF5
  4002                           intcon	equ	0xFF2
  4003                           postinc0	equ	0xFEE
  4004                           wreg	equ	0xFE8
  4005                           postdec1	equ	0xFE5
  4006                           fsr1l	equ	0xFE1
  4007                           status	equ	0xFD8
  4008                           
  4009 ;; *************** function _INTERRUPT_Initialize *****************
  4010 ;; Defined at:
  4011 ;;		line 52 in file "mcc_generated_files/interrupt_manager.c"
  4012 ;; Parameters:    Size  Location     Type
  4013 ;;		None
  4014 ;; Auto vars:     Size  Location     Type
  4015 ;;		None
  4016 ;; Return value:  Size  Location     Type
  4017 ;;                  1    wreg      void 
  4018 ;; Registers used:
  4019 ;;		None
  4020 ;; Tracked objects:
  4021 ;;		On entry : 0/0
  4022 ;;		On exit  : 0/0
  4023 ;;		Unchanged: 0/0
  4024 ;; Data sizes:     COMRAM   BANK0   BANK1   BANK2   BANK3   BANK4   BANK5   BANK6   BANK7   BANK8   BANK9  BANK10  BANK1
      +1  BANK12  BANK13  BANK14
  4025 ;;      Params:         0       0       0       0       0       0       0       0       0       0       0       0       
      +0       0       0       0
  4026 ;;      Locals:         0       0       0       0       0       0       0       0       0       0       0       0       
      +0       0       0       0
  4027 ;;      Temps:          0       0       0       0       0       0       0       0       0       0       0       0       
      +0       0       0       0
  4028 ;;      Totals:         0       0       0       0       0       0       0       0       0       0       0       0       
      +0       0       0       0
  4029 ;;Total ram usage:        0 bytes
  4030 ;; Hardware stack levels used:    1
  4031 ;; Hardware stack levels required when called:    5
  4032 ;; This function calls:
  4033 ;;		Nothing
  4034 ;; This function is called by:
  4035 ;;		_SYSTEM_Initialize
  4036 ;; This function uses a non-reentrant model
  4037 ;;
  4038                           
  4039                           	psect	text28
  4040  002C7C                     __ptext28:
  4041                           	opt stack 0
  4042  002C7C                     _INTERRUPT_Initialize:
  4043                           	opt stack 24
  4044                           
  4045                           ;interrupt_manager.c: 55: INTCONbits.IPEN = 0;
  4046                           
  4047                           ; BSR set to: 14
  4048                           ;incstack = 0
  4049  002C7C  9AF2               	bcf	intcon,5,c	;volatile
  4050  002C7E  0012               	return		;funcret
  4051  002C80                     __end_of_INTERRUPT_Initialize:
  4052                           	opt stack 0
  4053                           tblptru	equ	0xFF8
  4054                           tblptrh	equ	0xFF7
  4055                           tblptrl	equ	0xFF6
  4056                           tablat	equ	0xFF5
  4057                           intcon	equ	0xFF2
  4058                           postinc0	equ	0xFEE
  4059                           wreg	equ	0xFE8
  4060                           postdec1	equ	0xFE5
  4061                           fsr1l	equ	0xFE1
  4062                           status	equ	0xFD8
  4063                           
  4064 ;; *************** function _I2C1_Initialize *****************
  4065 ;; Defined at:
  4066 ;;		line 198 in file "mcc_generated_files/i2c1.c"
  4067 ;; Parameters:    Size  Location     Type
  4068 ;;		None
  4069 ;; Auto vars:     Size  Location     Type
  4070 ;;		None
  4071 ;; Return value:  Size  Location     Type
  4072 ;;                  1    wreg      void 
  4073 ;; Registers used:
  4074 ;;		wreg, status,2, status,0
  4075 ;; Tracked objects:
  4076 ;;		On entry : 0/0
  4077 ;;		On exit  : 0/0
  4078 ;;		Unchanged: 0/0
  4079 ;; Data sizes:     COMRAM   BANK0   BANK1   BANK2   BANK3   BANK4   BANK5   BANK6   BANK7   BANK8   BANK9  BANK10  BANK1
      +1  BANK12  BANK13  BANK14
  4080 ;;      Params:         0       0       0       0       0       0       0       0       0       0       0       0       
      +0       0       0       0
  4081 ;;      Locals:         0       0       0       0       0       0       0       0       0       0       0       0       
      +0       0       0       0
  4082 ;;      Temps:          0       0       0       0       0       0       0       0       0       0       0       0       
      +0       0       0       0
  4083 ;;      Totals:         0       0       0       0       0       0       0       0       0       0       0       0       
      +0       0       0       0
  4084 ;;Total ram usage:        0 bytes
  4085 ;; Hardware stack levels used:    1
  4086 ;; Hardware stack levels required when called:    5
  4087 ;; This function calls:
  4088 ;;		Nothing
  4089 ;; This function is called by:
  4090 ;;		_SYSTEM_Initialize
  4091 ;; This function uses a non-reentrant model
  4092 ;;
  4093                           
  4094                           	psect	text29
  4095  0026D8                     __ptext29:
  4096                           	opt stack 0
  4097  0026D8                     _I2C1_Initialize:
  4098                           	opt stack 24
  4099                           
  4100                           ;i2c1.c: 200: i2c1_object.pTrHead = i2c1_tr_queue;
  4101                           
  4102                           ;incstack = 0
  4103  0026D8  0EAF               	movlw	low _i2c1_tr_queue
  4104  0026DA  0100               	movlb	0	; () banked
  4105  0026DC  6F72               	movwf	(_i2c1_object+2)& (0+255),b
  4106  0026DE  0E00               	movlw	high _i2c1_tr_queue
  4107  0026E0  6F73               	movwf	(_i2c1_object+3)& (0+255),b
  4108                           
  4109                           ;i2c1.c: 201: i2c1_object.pTrTail = i2c1_tr_queue;
  4110  0026E2  0EAF               	movlw	low _i2c1_tr_queue
  4111  0026E4  6F70               	movwf	_i2c1_object& (0+255),b
  4112  0026E6  0E00               	movlw	high _i2c1_tr_queue
  4113  0026E8  6F71               	movwf	(_i2c1_object+1)& (0+255),b
  4114                           
  4115                           ; BSR set to: 0
  4116                           ;i2c1.c: 202: i2c1_object.trStatus.s.empty = 1;
  4117  0026EA  8374               	bsf	(_i2c1_object+4)& (0+255),1,b
  4118                           
  4119                           ; BSR set to: 0
  4120                           ;i2c1.c: 203: i2c1_object.trStatus.s.full = 0;
  4121  0026EC  9174               	bcf	(_i2c1_object+4)& (0+255),0,b
  4122                           
  4123                           ; BSR set to: 0
  4124                           ;i2c1.c: 205: i2c1_object.i2cErrors = 0;
  4125  0026EE  0E00               	movlw	0
  4126  0026F0  6F76               	movwf	(_i2c1_object+6)& (0+255),b
  4127                           
  4128                           ; BSR set to: 0
  4129                           ;i2c1.c: 208: SSP1STAT = 0x00;
  4130  0026F2  0E00               	movlw	0
  4131  0026F4  6E95               	movwf	3989,c	;volatile
  4132                           
  4133                           ; BSR set to: 0
  4134                           ;i2c1.c: 210: SSP1CON1 = 0x28;
  4135  0026F6  0E28               	movlw	40
  4136  0026F8  6E96               	movwf	3990,c	;volatile
  4137                           
  4138                           ; BSR set to: 0
  4139                           ;i2c1.c: 212: SSP1CON3 = 0x00;
  4140  0026FA  0E00               	movlw	0
  4141  0026FC  6E98               	movwf	3992,c	;volatile
  4142                           
  4143                           ; BSR set to: 0
  4144                           ;i2c1.c: 214: SSP1ADD = 0x27;
  4145  0026FE  0E27               	movlw	39
  4146  002700  6E93               	movwf	3987,c	;volatile
  4147                           
  4148                           ; BSR set to: 0
  4149                           ;i2c1.c: 217: PIR3bits.SSP1IF = 0;
  4150  002702  010E               	movlb	14	; () banked
  4151  002704  91CD               	bcf	205,0,b	;volatile
  4152                           
  4153                           ; BSR set to: 14
  4154                           ;i2c1.c: 218: PIR3bits.BCL1IF = 0;
  4155  002706  93CD               	bcf	205,1,b	;volatile
  4156                           
  4157                           ; BSR set to: 14
  4158                           ;i2c1.c: 221: PIE3bits.SSP1IE = 1;
  4159  002708  81C5               	bsf	197,0,b	;volatile
  4160                           
  4161                           ; BSR set to: 14
  4162                           ;i2c1.c: 222: PIE3bits.BCL1IE = 1;
  4163  00270A  83C5               	bsf	197,1,b	;volatile
  4164                           
  4165                           ; BSR set to: 14
  4166  00270C  0012               	return		;funcret
  4167  00270E                     __end_of_I2C1_Initialize:
  4168                           	opt stack 0
  4169                           tblptru	equ	0xFF8
  4170                           tblptrh	equ	0xFF7
  4171                           tblptrl	equ	0xFF6
  4172                           tablat	equ	0xFF5
  4173                           intcon	equ	0xFF2
  4174                           postinc0	equ	0xFEE
  4175                           wreg	equ	0xFE8
  4176                           postdec1	equ	0xFE5
  4177                           fsr1l	equ	0xFE1
  4178                           status	equ	0xFD8
  4179                           
  4180 ;; *************** function _EUSART1_Initialize *****************
  4181 ;; Defined at:
  4182 ;;		line 85 in file "mcc_generated_files/eusart1.c"
  4183 ;; Parameters:    Size  Location     Type
  4184 ;;		None
  4185 ;; Auto vars:     Size  Location     Type
  4186 ;;		None
  4187 ;; Return value:  Size  Location     Type
  4188 ;;                  1    wreg      void 
  4189 ;; Registers used:
  4190 ;;		wreg, status,2, status,0, cstack
  4191 ;; Tracked objects:
  4192 ;;		On entry : 0/0
  4193 ;;		On exit  : 0/0
  4194 ;;		Unchanged: 0/0
  4195 ;; Data sizes:     COMRAM   BANK0   BANK1   BANK2   BANK3   BANK4   BANK5   BANK6   BANK7   BANK8   BANK9  BANK10  BANK1
      +1  BANK12  BANK13  BANK14
  4196 ;;      Params:         0       0       0       0       0       0       0       0       0       0       0       0       
      +0       0       0       0
  4197 ;;      Locals:         0       0       0       0       0       0       0       0       0       0       0       0       
      +0       0       0       0
  4198 ;;      Temps:          0       0       0       0       0       0       0       0       0       0       0       0       
      +0       0       0       0
  4199 ;;      Totals:         0       0       0       0       0       0       0       0       0       0       0       0       
      +0       0       0       0
  4200 ;;Total ram usage:        0 bytes
  4201 ;; Hardware stack levels used:    1
  4202 ;; Hardware stack levels required when called:    6
  4203 ;; This function calls:
  4204 ;;		_EUSART1_SetErrorHandler
  4205 ;;		_EUSART1_SetFramingErrorHandler
  4206 ;;		_EUSART1_SetOverrunErrorHandler
  4207 ;;		_EUSART1_SetRxInterruptHandler
  4208 ;;		_EUSART1_SetTxInterruptHandler
  4209 ;; This function is called by:
  4210 ;;		_SYSTEM_Initialize
  4211 ;; This function uses a non-reentrant model
  4212 ;;
  4213                           
  4214                           	psect	text30
  4215  002264                     __ptext30:
  4216                           	opt stack 0
  4217  002264                     _EUSART1_Initialize:
  4218                           	opt stack 23
  4219                           
  4220                           ;eusart1.c: 88: PIE3bits.RC1IE = 0;
  4221                           
  4222                           ; BSR set to: 14
  4223                           ;incstack = 0
  4224  002264  010E               	movlb	14	; () banked
  4225  002266  9BC5               	bcf	197,5,b	;volatile
  4226                           
  4227                           ; BSR set to: 14
  4228                           ;eusart1.c: 89: EUSART1_SetRxInterruptHandler(EUSART1_Receive_ISR);
  4229  002268  0EB4               	movlw	low _EUSART1_Receive_ISR
  4230  00226A  0101               	movlb	1	; () banked
  4231  00226C  6F8C               	movwf	EUSART1_SetRxInterruptHandler@interruptHandler& (0+255),b
  4232  00226E  0E21               	movlw	high _EUSART1_Receive_ISR
  4233  002270  6F8D               	movwf	(EUSART1_SetRxInterruptHandler@interruptHandler+1)& (0+255),b
  4234  002272  0E00               	movlw	low (_EUSART1_Receive_ISR shr (0+16))
  4235  002274  6F8E               	movwf	(EUSART1_SetRxInterruptHandler@interruptHandler+2)& (0+255),b
  4236  002276  EC08  F016         	call	_EUSART1_SetRxInterruptHandler	;wreg free
  4237                           
  4238                           ;eusart1.c: 90: PIE3bits.TX1IE = 0;
  4239  00227A  010E               	movlb	14	; () banked
  4240  00227C  99C5               	bcf	197,4,b	;volatile
  4241                           
  4242                           ;eusart1.c: 91: EUSART1_SetTxInterruptHandler(EUSART1_Transmit_ISR);
  4243  00227E  0EDE               	movlw	low _EUSART1_Transmit_ISR
  4244  002280  0101               	movlb	1	; () banked
  4245  002282  6F8C               	movwf	EUSART1_SetTxInterruptHandler@interruptHandler& (0+255),b
  4246  002284  0E27               	movlw	high _EUSART1_Transmit_ISR
  4247  002286  6F8D               	movwf	(EUSART1_SetTxInterruptHandler@interruptHandler+1)& (0+255),b
  4248  002288  0E00               	movlw	low (_EUSART1_Transmit_ISR shr (0+16))
  4249  00228A  6F8E               	movwf	(EUSART1_SetTxInterruptHandler@interruptHandler+2)& (0+255),b
  4250  00228C  EC01  F016         	call	_EUSART1_SetTxInterruptHandler	;wreg free
  4251                           
  4252                           ;eusart1.c: 95: BAUD1CON = 0x08;
  4253  002290  0E08               	movlw	8
  4254  002292  6E9F               	movwf	3999,c	;volatile
  4255                           
  4256                           ;eusart1.c: 98: RC1STA = 0x90;
  4257  002294  0E90               	movlw	144
  4258  002296  6E9D               	movwf	3997,c	;volatile
  4259                           
  4260                           ;eusart1.c: 101: TX1STA = 0x24;
  4261  002298  0E24               	movlw	36
  4262  00229A  6E9E               	movwf	3998,c	;volatile
  4263                           
  4264                           ;eusart1.c: 104: SP1BRGL = 0x8A;
  4265  00229C  0E8A               	movlw	138
  4266  00229E  6E9B               	movwf	3995,c	;volatile
  4267                           
  4268                           ;eusart1.c: 107: SP1BRGH = 0x00;
  4269  0022A0  0E00               	movlw	0
  4270  0022A2  6E9C               	movwf	3996,c	;volatile
  4271                           
  4272                           ;eusart1.c: 110: EUSART1_SetFramingErrorHandler(EUSART1_DefaultFramingErrorHandler);
  4273  0022A4  0E92               	movlw	low _EUSART1_DefaultFramingErrorHandler
  4274  0022A6  0101               	movlb	1	; () banked
  4275  0022A8  6F8C               	movwf	EUSART1_SetFramingErrorHandler@interruptHandler& (0+255),b
  4276  0022AA  0E2C               	movlw	high _EUSART1_DefaultFramingErrorHandler
  4277  0022AC  6F8D               	movwf	(EUSART1_SetFramingErrorHandler@interruptHandler+1)& (0+255),b
  4278  0022AE  0E00               	movlw	low (_EUSART1_DefaultFramingErrorHandler shr (0+16))
  4279  0022B0  6F8E               	movwf	(EUSART1_SetFramingErrorHandler@interruptHandler+2)& (0+255),b
  4280  0022B2  EC16  F016         	call	_EUSART1_SetFramingErrorHandler	;wreg free
  4281                           
  4282                           ;eusart1.c: 111: EUSART1_SetOverrunErrorHandler(EUSART1_DefaultOverrunErrorHandler);
  4283  0022B6  0E70               	movlw	low _EUSART1_DefaultOverrunErrorHandler
  4284  0022B8  0101               	movlb	1	; () banked
  4285  0022BA  6F8C               	movwf	EUSART1_SetOverrunErrorHandler@interruptHandler& (0+255),b
  4286  0022BC  0E2C               	movlw	high _EUSART1_DefaultOverrunErrorHandler
  4287  0022BE  6F8D               	movwf	(EUSART1_SetOverrunErrorHandler@interruptHandler+1)& (0+255),b
  4288  0022C0  0E00               	movlw	low (_EUSART1_DefaultOverrunErrorHandler shr (0+16))
  4289  0022C2  6F8E               	movwf	(EUSART1_SetOverrunErrorHandler@interruptHandler+2)& (0+255),b
  4290  0022C4  EC0F  F016         	call	_EUSART1_SetOverrunErrorHandler	;wreg free
  4291                           
  4292                           ;eusart1.c: 112: EUSART1_SetErrorHandler(EUSART1_DefaultErrorHandler);
  4293  0022C8  0E76               	movlw	low _EUSART1_DefaultErrorHandler
  4294  0022CA  0101               	movlb	1	; () banked
  4295  0022CC  6F8C               	movwf	EUSART1_SetErrorHandler@interruptHandler& (0+255),b
  4296  0022CE  0E2C               	movlw	high _EUSART1_DefaultErrorHandler
  4297  0022D0  6F8D               	movwf	(EUSART1_SetErrorHandler@interruptHandler+1)& (0+255),b
  4298  0022D2  0E00               	movlw	low (_EUSART1_DefaultErrorHandler shr (0+16))
  4299  0022D4  6F8E               	movwf	(EUSART1_SetErrorHandler@interruptHandler+2)& (0+255),b
  4300  0022D6  EC1D  F016         	call	_EUSART1_SetErrorHandler	;wreg free
  4301                           
  4302                           ;eusart1.c: 114: eusart1RxLastError.status = 0;
  4303  0022DA  0E00               	movlw	0
  4304  0022DC  0100               	movlb	0	; () banked
  4305  0022DE  6FA1               	movwf	_eusart1RxLastError& (0+255),b	;volatile
  4306                           
  4307                           ;eusart1.c: 117: eusart1TxHead = 0;
  4308  0022E0  0E00               	movlw	0
  4309  0022E2  6FA4               	movwf	_eusart1TxHead& (0+255),b	;volatile
  4310                           
  4311                           ;eusart1.c: 118: eusart1TxTail = 0;
  4312  0022E4  0E00               	movlw	0
  4313  0022E6  6FA3               	movwf	_eusart1TxTail& (0+255),b	;volatile
  4314                           
  4315                           ;eusart1.c: 119: eusart1TxBufferRemaining = sizeof(eusart1TxBuffer);
  4316  0022E8  0E08               	movlw	8
  4317  0022EA  6FD2               	movwf	_eusart1TxBufferRemaining& (0+255),b	;volatile
  4318                           
  4319                           ;eusart1.c: 121: eusart1RxHead = 0;
  4320  0022EC  0E00               	movlw	0
  4321  0022EE  6FA2               	movwf	_eusart1RxHead& (0+255),b	;volatile
  4322                           
  4323                           ;eusart1.c: 122: eusart1RxTail = 0;
  4324  0022F0  0E00               	movlw	0
  4325  0022F2  6E55               	movwf	_eusart1RxTail,c	;volatile
  4326                           
  4327                           ;eusart1.c: 123: eusart1RxCount = 0;
  4328  0022F4  0E00               	movlw	0
  4329  0022F6  6E54               	movwf	_eusart1RxCount,c	;volatile
  4330                           
  4331                           ; BSR set to: 0
  4332                           ;eusart1.c: 126: PIE3bits.RC1IE = 1;
  4333  0022F8  010E               	movlb	14	; () banked
  4334  0022FA  8BC5               	bsf	197,5,b	;volatile
  4335                           
  4336                           ; BSR set to: 14
  4337  0022FC  0012               	return		;funcret
  4338  0022FE                     __end_of_EUSART1_Initialize:
  4339                           	opt stack 0
  4340                           tblptru	equ	0xFF8
  4341                           tblptrh	equ	0xFF7
  4342                           tblptrl	equ	0xFF6
  4343                           tablat	equ	0xFF5
  4344                           intcon	equ	0xFF2
  4345                           postinc0	equ	0xFEE
  4346                           wreg	equ	0xFE8
  4347                           postdec1	equ	0xFE5
  4348                           fsr1l	equ	0xFE1
  4349                           status	equ	0xFD8
  4350                           
  4351 ;; *************** function _EUSART1_SetTxInterruptHandler *****************
  4352 ;; Defined at:
  4353 ;;		line 273 in file "mcc_generated_files/eusart1.c"
  4354 ;; Parameters:    Size  Location     Type
  4355 ;;  interruptHan    3    0[BANK1 ] PTR FTN()void 
  4356 ;;		 -> EUSART1_Transmit_ISR(1), 
  4357 ;; Auto vars:     Size  Location     Type
  4358 ;;		None
  4359 ;; Return value:  Size  Location     Type
  4360 ;;                  1    wreg      void 
  4361 ;; Registers used:
  4362 ;;		wreg, status,2, status,0
  4363 ;; Tracked objects:
  4364 ;;		On entry : 0/0
  4365 ;;		On exit  : 0/0
  4366 ;;		Unchanged: 0/0
  4367 ;; Data sizes:     COMRAM   BANK0   BANK1   BANK2   BANK3   BANK4   BANK5   BANK6   BANK7   BANK8   BANK9  BANK10  BANK1
      +1  BANK12  BANK13  BANK14
  4368 ;;      Params:         0       0       3       0       0       0       0       0       0       0       0       0       
      +0       0       0       0
  4369 ;;      Locals:         0       0       0       0       0       0       0       0       0       0       0       0       
      +0       0       0       0
  4370 ;;      Temps:          0       0       0       0       0       0       0       0       0       0       0       0       
      +0       0       0       0
  4371 ;;      Totals:         0       0       3       0       0       0       0       0       0       0       0       0       
      +0       0       0       0
  4372 ;;Total ram usage:        3 bytes
  4373 ;; Hardware stack levels used:    1
  4374 ;; Hardware stack levels required when called:    5
  4375 ;; This function calls:
  4376 ;;		Nothing
  4377 ;; This function is called by:
  4378 ;;		_EUSART1_Initialize
  4379 ;; This function uses a non-reentrant model
  4380 ;;
  4381                           
  4382                           	psect	text31
  4383  002C02                     __ptext31:
  4384                           	opt stack 0
  4385  002C02                     _EUSART1_SetTxInterruptHandler:
  4386                           	opt stack 23
  4387                           
  4388                           ;eusart1.c: 274: EUSART1_TxDefaultInterruptHandler = interruptHandler;
  4389                           
  4390                           ; BSR set to: 14
  4391                           ;incstack = 0
  4392  002C02  C18C  F189         	movff	EUSART1_SetTxInterruptHandler@interruptHandler,_EUSART1_TxDefaultInterruptHandler
  4393  002C06  C18D  F18A         	movff	EUSART1_SetTxInterruptHandler@interruptHandler+1,_EUSART1_TxDefaultInterruptHandl
      +                          er+1
  4394  002C0A  C18E  F18B         	movff	EUSART1_SetTxInterruptHandler@interruptHandler+2,_EUSART1_TxDefaultInterruptHandl
      +                          er+2
  4395  002C0E  0012               	return		;funcret
  4396  002C10                     __end_of_EUSART1_SetTxInterruptHandler:
  4397                           	opt stack 0
  4398                           tblptru	equ	0xFF8
  4399                           tblptrh	equ	0xFF7
  4400                           tblptrl	equ	0xFF6
  4401                           tablat	equ	0xFF5
  4402                           intcon	equ	0xFF2
  4403                           postinc0	equ	0xFEE
  4404                           wreg	equ	0xFE8
  4405                           postdec1	equ	0xFE5
  4406                           fsr1l	equ	0xFE1
  4407                           status	equ	0xFD8
  4408                           
  4409 ;; *************** function _EUSART1_SetRxInterruptHandler *****************
  4410 ;; Defined at:
  4411 ;;		line 277 in file "mcc_generated_files/eusart1.c"
  4412 ;; Parameters:    Size  Location     Type
  4413 ;;  interruptHan    3    0[BANK1 ] PTR FTN()void 
  4414 ;;		 -> EUSART1_Receive_ISR(1), 
  4415 ;; Auto vars:     Size  Location     Type
  4416 ;;		None
  4417 ;; Return value:  Size  Location     Type
  4418 ;;                  1    wreg      void 
  4419 ;; Registers used:
  4420 ;;		wreg, status,2, status,0
  4421 ;; Tracked objects:
  4422 ;;		On entry : 0/0
  4423 ;;		On exit  : 0/0
  4424 ;;		Unchanged: 0/0
  4425 ;; Data sizes:     COMRAM   BANK0   BANK1   BANK2   BANK3   BANK4   BANK5   BANK6   BANK7   BANK8   BANK9  BANK10  BANK1
      +1  BANK12  BANK13  BANK14
  4426 ;;      Params:         0       0       3       0       0       0       0       0       0       0       0       0       
      +0       0       0       0
  4427 ;;      Locals:         0       0       0       0       0       0       0       0       0       0       0       0       
      +0       0       0       0
  4428 ;;      Temps:          0       0       0       0       0       0       0       0       0       0       0       0       
      +0       0       0       0
  4429 ;;      Totals:         0       0       3       0       0       0       0       0       0       0       0       0       
      +0       0       0       0
  4430 ;;Total ram usage:        3 bytes
  4431 ;; Hardware stack levels used:    1
  4432 ;; Hardware stack levels required when called:    5
  4433 ;; This function calls:
  4434 ;;		Nothing
  4435 ;; This function is called by:
  4436 ;;		_EUSART1_Initialize
  4437 ;; This function uses a non-reentrant model
  4438 ;;
  4439                           
  4440                           	psect	text32
  4441  002C10                     __ptext32:
  4442                           	opt stack 0
  4443  002C10                     _EUSART1_SetRxInterruptHandler:
  4444                           	opt stack 23
  4445                           
  4446                           ;eusart1.c: 278: EUSART1_RxDefaultInterruptHandler = interruptHandler;
  4447                           
  4448                           ;incstack = 0
  4449  002C10  C18C  F186         	movff	EUSART1_SetRxInterruptHandler@interruptHandler,_EUSART1_RxDefaultInterruptHandler
  4450  002C14  C18D  F187         	movff	EUSART1_SetRxInterruptHandler@interruptHandler+1,_EUSART1_RxDefaultInterruptHandl
      +                          er+1
  4451  002C18  C18E  F188         	movff	EUSART1_SetRxInterruptHandler@interruptHandler+2,_EUSART1_RxDefaultInterruptHandl
      +                          er+2
  4452  002C1C  0012               	return		;funcret
  4453  002C1E                     __end_of_EUSART1_SetRxInterruptHandler:
  4454                           	opt stack 0
  4455                           tblptru	equ	0xFF8
  4456                           tblptrh	equ	0xFF7
  4457                           tblptrl	equ	0xFF6
  4458                           tablat	equ	0xFF5
  4459                           intcon	equ	0xFF2
  4460                           postinc0	equ	0xFEE
  4461                           wreg	equ	0xFE8
  4462                           postdec1	equ	0xFE5
  4463                           fsr1l	equ	0xFE1
  4464                           status	equ	0xFD8
  4465                           
  4466 ;; *************** function _EUSART1_SetOverrunErrorHandler *****************
  4467 ;; Defined at:
  4468 ;;		line 265 in file "mcc_generated_files/eusart1.c"
  4469 ;; Parameters:    Size  Location     Type
  4470 ;;  interruptHan    3    0[BANK1 ] PTR FTN()void 
  4471 ;;		 -> EUSART1_DefaultOverrunErrorHandler(1), 
  4472 ;; Auto vars:     Size  Location     Type
  4473 ;;		None
  4474 ;; Return value:  Size  Location     Type
  4475 ;;                  1    wreg      void 
  4476 ;; Registers used:
  4477 ;;		wreg, status,2, status,0
  4478 ;; Tracked objects:
  4479 ;;		On entry : 0/0
  4480 ;;		On exit  : 0/0
  4481 ;;		Unchanged: 0/0
  4482 ;; Data sizes:     COMRAM   BANK0   BANK1   BANK2   BANK3   BANK4   BANK5   BANK6   BANK7   BANK8   BANK9  BANK10  BANK1
      +1  BANK12  BANK13  BANK14
  4483 ;;      Params:         0       0       3       0       0       0       0       0       0       0       0       0       
      +0       0       0       0
  4484 ;;      Locals:         0       0       0       0       0       0       0       0       0       0       0       0       
      +0       0       0       0
  4485 ;;      Temps:          0       0       0       0       0       0       0       0       0       0       0       0       
      +0       0       0       0
  4486 ;;      Totals:         0       0       3       0       0       0       0       0       0       0       0       0       
      +0       0       0       0
  4487 ;;Total ram usage:        3 bytes
  4488 ;; Hardware stack levels used:    1
  4489 ;; Hardware stack levels required when called:    5
  4490 ;; This function calls:
  4491 ;;		Nothing
  4492 ;; This function is called by:
  4493 ;;		_EUSART1_Initialize
  4494 ;; This function uses a non-reentrant model
  4495 ;;
  4496                           
  4497                           	psect	text33
  4498  002C1E                     __ptext33:
  4499                           	opt stack 0
  4500  002C1E                     _EUSART1_SetOverrunErrorHandler:
  4501                           	opt stack 23
  4502                           
  4503                           ;eusart1.c: 266: EUSART1_OverrunErrorHandler = interruptHandler;
  4504                           
  4505                           ;incstack = 0
  4506  002C1E  C18C  F180         	movff	EUSART1_SetOverrunErrorHandler@interruptHandler,_EUSART1_OverrunErrorHandler
  4507  002C22  C18D  F181         	movff	EUSART1_SetOverrunErrorHandler@interruptHandler+1,_EUSART1_OverrunErrorHandler+1
  4508  002C26  C18E  F182         	movff	EUSART1_SetOverrunErrorHandler@interruptHandler+2,_EUSART1_OverrunErrorHandler+2
  4509  002C2A  0012               	return		;funcret
  4510  002C2C                     __end_of_EUSART1_SetOverrunErrorHandler:
  4511                           	opt stack 0
  4512                           tblptru	equ	0xFF8
  4513                           tblptrh	equ	0xFF7
  4514                           tblptrl	equ	0xFF6
  4515                           tablat	equ	0xFF5
  4516                           intcon	equ	0xFF2
  4517                           postinc0	equ	0xFEE
  4518                           wreg	equ	0xFE8
  4519                           postdec1	equ	0xFE5
  4520                           fsr1l	equ	0xFE1
  4521                           status	equ	0xFD8
  4522                           
  4523 ;; *************** function _EUSART1_SetFramingErrorHandler *****************
  4524 ;; Defined at:
  4525 ;;		line 261 in file "mcc_generated_files/eusart1.c"
  4526 ;; Parameters:    Size  Location     Type
  4527 ;;  interruptHan    3    0[BANK1 ] PTR FTN()void 
  4528 ;;		 -> EUSART1_DefaultFramingErrorHandler(1), 
  4529 ;; Auto vars:     Size  Location     Type
  4530 ;;		None
  4531 ;; Return value:  Size  Location     Type
  4532 ;;                  1    wreg      void 
  4533 ;; Registers used:
  4534 ;;		wreg, status,2, status,0
  4535 ;; Tracked objects:
  4536 ;;		On entry : 0/0
  4537 ;;		On exit  : 0/0
  4538 ;;		Unchanged: 0/0
  4539 ;; Data sizes:     COMRAM   BANK0   BANK1   BANK2   BANK3   BANK4   BANK5   BANK6   BANK7   BANK8   BANK9  BANK10  BANK1
      +1  BANK12  BANK13  BANK14
  4540 ;;      Params:         0       0       3       0       0       0       0       0       0       0       0       0       
      +0       0       0       0
  4541 ;;      Locals:         0       0       0       0       0       0       0       0       0       0       0       0       
      +0       0       0       0
  4542 ;;      Temps:          0       0       0       0       0       0       0       0       0       0       0       0       
      +0       0       0       0
  4543 ;;      Totals:         0       0       3       0       0       0       0       0       0       0       0       0       
      +0       0       0       0
  4544 ;;Total ram usage:        3 bytes
  4545 ;; Hardware stack levels used:    1
  4546 ;; Hardware stack levels required when called:    5
  4547 ;; This function calls:
  4548 ;;		Nothing
  4549 ;; This function is called by:
  4550 ;;		_EUSART1_Initialize
  4551 ;; This function uses a non-reentrant model
  4552 ;;
  4553                           
  4554                           	psect	text34
  4555  002C2C                     __ptext34:
  4556                           	opt stack 0
  4557  002C2C                     _EUSART1_SetFramingErrorHandler:
  4558                           	opt stack 23
  4559                           
  4560                           ;eusart1.c: 262: EUSART1_FramingErrorHandler = interruptHandler;
  4561                           
  4562                           ;incstack = 0
  4563  002C2C  C18C  F183         	movff	EUSART1_SetFramingErrorHandler@interruptHandler,_EUSART1_FramingErrorHandler
  4564  002C30  C18D  F184         	movff	EUSART1_SetFramingErrorHandler@interruptHandler+1,_EUSART1_FramingErrorHandler+1
  4565  002C34  C18E  F185         	movff	EUSART1_SetFramingErrorHandler@interruptHandler+2,_EUSART1_FramingErrorHandler+2
  4566  002C38  0012               	return		;funcret
  4567  002C3A                     __end_of_EUSART1_SetFramingErrorHandler:
  4568                           	opt stack 0
  4569                           tblptru	equ	0xFF8
  4570                           tblptrh	equ	0xFF7
  4571                           tblptrl	equ	0xFF6
  4572                           tablat	equ	0xFF5
  4573                           intcon	equ	0xFF2
  4574                           postinc0	equ	0xFEE
  4575                           wreg	equ	0xFE8
  4576                           postdec1	equ	0xFE5
  4577                           fsr1l	equ	0xFE1
  4578                           status	equ	0xFD8
  4579                           
  4580 ;; *************** function _EUSART1_SetErrorHandler *****************
  4581 ;; Defined at:
  4582 ;;		line 269 in file "mcc_generated_files/eusart1.c"
  4583 ;; Parameters:    Size  Location     Type
  4584 ;;  interruptHan    3    0[BANK1 ] PTR FTN()void 
  4585 ;;		 -> EUSART1_DefaultErrorHandler(1), 
  4586 ;; Auto vars:     Size  Location     Type
  4587 ;;		None
  4588 ;; Return value:  Size  Location     Type
  4589 ;;                  1    wreg      void 
  4590 ;; Registers used:
  4591 ;;		wreg, status,2, status,0
  4592 ;; Tracked objects:
  4593 ;;		On entry : 0/0
  4594 ;;		On exit  : 0/0
  4595 ;;		Unchanged: 0/0
  4596 ;; Data sizes:     COMRAM   BANK0   BANK1   BANK2   BANK3   BANK4   BANK5   BANK6   BANK7   BANK8   BANK9  BANK10  BANK1
      +1  BANK12  BANK13  BANK14
  4597 ;;      Params:         0       0       3       0       0       0       0       0       0       0       0       0       
      +0       0       0       0
  4598 ;;      Locals:         0       0       0       0       0       0       0       0       0       0       0       0       
      +0       0       0       0
  4599 ;;      Temps:          0       0       0       0       0       0       0       0       0       0       0       0       
      +0       0       0       0
  4600 ;;      Totals:         0       0       3       0       0       0       0       0       0       0       0       0       
      +0       0       0       0
  4601 ;;Total ram usage:        3 bytes
  4602 ;; Hardware stack levels used:    1
  4603 ;; Hardware stack levels required when called:    5
  4604 ;; This function calls:
  4605 ;;		Nothing
  4606 ;; This function is called by:
  4607 ;;		_EUSART1_Initialize
  4608 ;; This function uses a non-reentrant model
  4609 ;;
  4610                           
  4611                           	psect	text35
  4612  002C3A                     __ptext35:
  4613                           	opt stack 0
  4614  002C3A                     _EUSART1_SetErrorHandler:
  4615                           	opt stack 23
  4616                           
  4617                           ;eusart1.c: 270: EUSART1_ErrorHandler = interruptHandler;
  4618                           
  4619                           ;incstack = 0
  4620  002C3A  C18C  F17D         	movff	EUSART1_SetErrorHandler@interruptHandler,_EUSART1_ErrorHandler
  4621  002C3E  C18D  F17E         	movff	EUSART1_SetErrorHandler@interruptHandler+1,_EUSART1_ErrorHandler+1
  4622  002C42  C18E  F17F         	movff	EUSART1_SetErrorHandler@interruptHandler+2,_EUSART1_ErrorHandler+2
  4623  002C46  0012               	return		;funcret
  4624  002C48                     __end_of_EUSART1_SetErrorHandler:
  4625                           	opt stack 0
  4626                           tblptru	equ	0xFF8
  4627                           tblptrh	equ	0xFF7
  4628                           tblptrl	equ	0xFF6
  4629                           tablat	equ	0xFF5
  4630                           intcon	equ	0xFF2
  4631                           postinc0	equ	0xFEE
  4632                           wreg	equ	0xFE8
  4633                           postdec1	equ	0xFE5
  4634                           fsr1l	equ	0xFE1
  4635                           status	equ	0xFD8
  4636                           
  4637 ;; *************** function _ADCC_Initialize *****************
  4638 ;; Defined at:
  4639 ;;		line 62 in file "mcc_generated_files/adcc.c"
  4640 ;; Parameters:    Size  Location     Type
  4641 ;;		None
  4642 ;; Auto vars:     Size  Location     Type
  4643 ;;		None
  4644 ;; Return value:  Size  Location     Type
  4645 ;;                  1    wreg      void 
  4646 ;; Registers used:
  4647 ;;		wreg, status,2
  4648 ;; Tracked objects:
  4649 ;;		On entry : 0/0
  4650 ;;		On exit  : 0/0
  4651 ;;		Unchanged: 0/0
  4652 ;; Data sizes:     COMRAM   BANK0   BANK1   BANK2   BANK3   BANK4   BANK5   BANK6   BANK7   BANK8   BANK9  BANK10  BANK1
      +1  BANK12  BANK13  BANK14
  4653 ;;      Params:         0       0       0       0       0       0       0       0       0       0       0       0       
      +0       0       0       0
  4654 ;;      Locals:         0       0       0       0       0       0       0       0       0       0       0       0       
      +0       0       0       0
  4655 ;;      Temps:          0       0       0       0       0       0       0       0       0       0       0       0       
      +0       0       0       0
  4656 ;;      Totals:         0       0       0       0       0       0       0       0       0       0       0       0       
      +0       0       0       0
  4657 ;;Total ram usage:        0 bytes
  4658 ;; Hardware stack levels used:    1
  4659 ;; Hardware stack levels required when called:    5
  4660 ;; This function calls:
  4661 ;;		Nothing
  4662 ;; This function is called by:
  4663 ;;		_SYSTEM_Initialize
  4664 ;; This function uses a non-reentrant model
  4665 ;;
  4666                           
  4667                           	psect	text36
  4668  002520                     __ptext36:
  4669                           	opt stack 0
  4670  002520                     _ADCC_Initialize:
  4671                           	opt stack 24
  4672                           
  4673                           ;adcc.c: 66: ADLTHL = 0x00;
  4674                           
  4675                           ;incstack = 0
  4676  002520  0E00               	movlw	0
  4677  002522  6E6A               	movwf	3946,c	;volatile
  4678                           
  4679                           ;adcc.c: 68: ADLTHH = 0x00;
  4680  002524  0E00               	movlw	0
  4681  002526  6E6B               	movwf	3947,c	;volatile
  4682                           
  4683                           ;adcc.c: 70: ADUTHL = 0x00;
  4684  002528  0E00               	movlw	0
  4685  00252A  6E6C               	movwf	3948,c	;volatile
  4686                           
  4687                           ;adcc.c: 72: ADUTHH = 0x00;
  4688  00252C  0E00               	movlw	0
  4689  00252E  6E6D               	movwf	3949,c	;volatile
  4690                           
  4691                           ;adcc.c: 74: ADSTPTL = 0x00;
  4692  002530  0E00               	movlw	0
  4693  002532  6E68               	movwf	3944,c	;volatile
  4694                           
  4695                           ;adcc.c: 76: ADSTPTH = 0x00;
  4696  002534  0E00               	movlw	0
  4697  002536  6E69               	movwf	3945,c	;volatile
  4698                           
  4699                           ;adcc.c: 78: ADRPT = 0x00;
  4700  002538  0E00               	movlw	0
  4701  00253A  6E66               	movwf	3942,c	;volatile
  4702                           
  4703                           ;adcc.c: 80: ADPCH = 0x00;
  4704  00253C  0E00               	movlw	0
  4705  00253E  010F               	movlb	15	; () banked
  4706  002540  6F5F               	movwf	95,b	;volatile
  4707                           
  4708                           ;adcc.c: 82: ADCAP = 0x00;
  4709  002542  0E00               	movlw	0
  4710  002544  6F5D               	movwf	93,b	;volatile
  4711                           
  4712                           ;adcc.c: 84: ADCON1 = 0x00;
  4713  002546  0E00               	movlw	0
  4714  002548  6F59               	movwf	89,b	;volatile
  4715                           
  4716                           ;adcc.c: 86: ADCON2 = 0x00;
  4717  00254A  0E00               	movlw	0
  4718  00254C  6F5A               	movwf	90,b	;volatile
  4719                           
  4720                           ;adcc.c: 88: ADCON3 = 0x00;
  4721  00254E  0E00               	movlw	0
  4722  002550  6F5B               	movwf	91,b	;volatile
  4723                           
  4724                           ;adcc.c: 90: ADSTAT = 0x00;
  4725  002552  0E00               	movlw	0
  4726  002554  6E65               	movwf	3941,c	;volatile
  4727                           
  4728                           ;adcc.c: 92: ADREF = 0x00;
  4729  002556  0E00               	movlw	0
  4730  002558  6F58               	movwf	88,b	;volatile
  4731                           
  4732                           ;adcc.c: 94: ADACT = 0x00;
  4733  00255A  0E00               	movlw	0
  4734  00255C  6F56               	movwf	86,b	;volatile
  4735                           
  4736                           ;adcc.c: 96: ADCLK = 0x33;
  4737  00255E  0E33               	movlw	51
  4738  002560  6F57               	movwf	87,b	;volatile
  4739                           
  4740                           ;adcc.c: 98: ADCON0 = 0x84;
  4741  002562  0E84               	movlw	132
  4742  002564  6E60               	movwf	3936,c	;volatile
  4743                           
  4744                           ;adcc.c: 100: ADACQ = 0x00;
  4745  002566  0E00               	movlw	0
  4746  002568  6F5C               	movwf	92,b	;volatile
  4747                           
  4748                           ; BSR set to: 15
  4749  00256A  0012               	return		;funcret
  4750  00256C                     __end_of_ADCC_Initialize:
  4751                           	opt stack 0
  4752                           tblptru	equ	0xFF8
  4753                           tblptrh	equ	0xFF7
  4754                           tblptrl	equ	0xFF6
  4755                           tablat	equ	0xFF5
  4756                           intcon	equ	0xFF2
  4757                           postinc0	equ	0xFEE
  4758                           wreg	equ	0xFE8
  4759                           postdec1	equ	0xFE5
  4760                           fsr1l	equ	0xFE1
  4761                           status	equ	0xFD8
  4762                           
  4763 ;; *************** function _Motors *****************
  4764 ;; Defined at:
  4765 ;;		line 125 in file "commandes.c"
  4766 ;; Parameters:    Size  Location     Type
  4767 ;;  on_off          1    wreg     unsigned char 
  4768 ;; Auto vars:     Size  Location     Type
  4769 ;;  on_off          1    0[BANK1 ] unsigned char 
  4770 ;; Return value:  Size  Location     Type
  4771 ;;                  1    wreg      void 
  4772 ;; Registers used:
  4773 ;;		wreg, status,2
  4774 ;; Tracked objects:
  4775 ;;		On entry : 0/0
  4776 ;;		On exit  : 0/0
  4777 ;;		Unchanged: 0/0
  4778 ;; Data sizes:     COMRAM   BANK0   BANK1   BANK2   BANK3   BANK4   BANK5   BANK6   BANK7   BANK8   BANK9  BANK10  BANK1
      +1  BANK12  BANK13  BANK14
  4779 ;;      Params:         0       0       0       0       0       0       0       0       0       0       0       0       
      +0       0       0       0
  4780 ;;      Locals:         0       0       1       0       0       0       0       0       0       0       0       0       
      +0       0       0       0
  4781 ;;      Temps:          0       0       0       0       0       0       0       0       0       0       0       0       
      +0       0       0       0
  4782 ;;      Totals:         0       0       1       0       0       0       0       0       0       0       0       0       
      +0       0       0       0
  4783 ;;Total ram usage:        1 bytes
  4784 ;; Hardware stack levels used:    1
  4785 ;; Hardware stack levels required when called:    5
  4786 ;; This function calls:
  4787 ;;		Nothing
  4788 ;; This function is called by:
  4789 ;;		_main
  4790 ;; This function uses a non-reentrant model
  4791 ;;
  4792                           
  4793                           	psect	text37
  4794  002B58                     __ptext37:
  4795                           	opt stack 0
  4796  002B58                     _Motors:
  4797                           	opt stack 25
  4798                           
  4799                           ; BSR set to: 15
  4800                           ;incstack = 0
  4801                           ;Motors@on_off stored from wreg
  4802  002B58  0101               	movlb	1	; () banked
  4803  002B5A  6F8C               	movwf	Motors@on_off& (0+255),b
  4804                           
  4805                           ;commandes.c: 127: if(on_off)
  4806  002B5C  0101               	movlb	1	; () banked
  4807  002B5E  518C               	movf	Motors@on_off& (0+255),w,b
  4808  002B60  B4D8               	btfsc	status,2,c
  4809  002B62  D002               	goto	l1792
  4810                           
  4811                           ; BSR set to: 1
  4812                           ;commandes.c: 128: {
  4813                           ;commandes.c: 129: LATDbits.LATD3 = 1;
  4814  002B64  8686               	bsf	3974,3,c	;volatile
  4815                           
  4816                           ;commandes.c: 130: }
  4817  002B66  0012               	return	
  4818  002B68                     l1792:
  4819                           
  4820                           ; BSR set to: 1
  4821                           ;commandes.c: 131: else
  4822                           ;commandes.c: 132: {
  4823                           ;commandes.c: 133: LATDbits.LATD3 = 0;
  4824  002B68  9686               	bcf	3974,3,c	;volatile
  4825  002B6A  0012               	return	
  4826  002B6C                     __end_of_Motors:
  4827                           	opt stack 0
  4828                           tblptru	equ	0xFF8
  4829                           tblptrh	equ	0xFF7
  4830                           tblptrl	equ	0xFF6
  4831                           tablat	equ	0xFF5
  4832                           intcon	equ	0xFF2
  4833                           postinc0	equ	0xFEE
  4834                           wreg	equ	0xFE8
  4835                           postdec1	equ	0xFE5
  4836                           fsr1l	equ	0xFE1
  4837                           status	equ	0xFD8
  4838                           
  4839 ;; *************** function _LED *****************
  4840 ;; Defined at:
  4841 ;;		line 149 in file "commandes.c"
  4842 ;; Parameters:    Size  Location     Type
  4843 ;;  io              1    wreg     unsigned char 
  4844 ;;  on_off          1    0[BANK1 ] unsigned char 
  4845 ;; Auto vars:     Size  Location     Type
  4846 ;;  io              1    1[BANK1 ] unsigned char 
  4847 ;; Return value:  Size  Location     Type
  4848 ;;                  1    wreg      void 
  4849 ;; Registers used:
  4850 ;;		wreg, status,2, status,0
  4851 ;; Tracked objects:
  4852 ;;		On entry : 0/0
  4853 ;;		On exit  : 0/0
  4854 ;;		Unchanged: 0/0
  4855 ;; Data sizes:     COMRAM   BANK0   BANK1   BANK2   BANK3   BANK4   BANK5   BANK6   BANK7   BANK8   BANK9  BANK10  BANK1
      +1  BANK12  BANK13  BANK14
  4856 ;;      Params:         0       0       1       0       0       0       0       0       0       0       0       0       
      +0       0       0       0
  4857 ;;      Locals:         0       0       1       0       0       0       0       0       0       0       0       0       
      +0       0       0       0
  4858 ;;      Temps:          0       0       0       0       0       0       0       0       0       0       0       0       
      +0       0       0       0
  4859 ;;      Totals:         0       0       2       0       0       0       0       0       0       0       0       0       
      +0       0       0       0
  4860 ;;Total ram usage:        2 bytes
  4861 ;; Hardware stack levels used:    1
  4862 ;; Hardware stack levels required when called:    5
  4863 ;; This function calls:
  4864 ;;		Nothing
  4865 ;; This function is called by:
  4866 ;;		_main
  4867 ;; This function uses a non-reentrant model
  4868 ;;
  4869                           
  4870                           	psect	text38
  4871  00270E                     __ptext38:
  4872                           	opt stack 0
  4873  00270E                     _LED:
  4874                           	opt stack 25
  4875                           
  4876                           ; BSR set to: 1
  4877                           ;incstack = 0
  4878                           ;LED@io stored from wreg
  4879  00270E  0101               	movlb	1	; () banked
  4880  002710  6F8D               	movwf	LED@io& (0+255),b
  4881                           
  4882                           ;commandes.c: 151: switch (io)
  4883  002712  D00F               	goto	l1802
  4884  002714  0101               	movlb	1	; () banked
  4885  002716  518C               	movf	LED@on_off& (0+255),w,b
  4886  002718  B4D8               	btfsc	status,2,c
  4887  00271A  D002               	goto	l1804
  4888                           
  4889                           ; BSR set to: 1
  4890                           ;commandes.c: 154: {
  4891                           ;commandes.c: 155: LATDbits.LATD4 = 1;
  4892  00271C  8886               	bsf	3974,4,c	;volatile
  4893                           
  4894                           ;commandes.c: 156: }
  4895  00271E  0012               	return	
  4896  002720                     l1804:
  4897                           
  4898                           ; BSR set to: 1
  4899                           ;commandes.c: 157: else
  4900                           ;commandes.c: 158: {
  4901                           ;commandes.c: 159: LATDbits.LATD4 = 0;
  4902  002720  9886               	bcf	3974,4,c	;volatile
  4903                           
  4904                           ; BSR set to: 1
  4905                           ;commandes.c: 160: }
  4906                           ;commandes.c: 161: break;
  4907  002722  0012               	return	
  4908  002724                     
  4909                           ; BSR set to: 1
  4910                           
  4911                           ; BSR set to: 1
  4912  002724  518C               	movf	LED@on_off& (0+255),w,b
  4913  002726  B4D8               	btfsc	status,2,c
  4914  002728  D002               	goto	l1808
  4915                           
  4916                           ; BSR set to: 1
  4917                           ;commandes.c: 163: {
  4918                           ;commandes.c: 164: LATDbits.LATD2 = 1;
  4919  00272A  8486               	bsf	3974,2,c	;volatile
  4920                           
  4921                           ;commandes.c: 165: }
  4922  00272C  0012               	return	
  4923  00272E                     l1808:
  4924                           
  4925                           ; BSR set to: 1
  4926                           ;commandes.c: 166: else
  4927                           ;commandes.c: 167: {
  4928                           ;commandes.c: 168: LATDbits.LATD2 = 0;
  4929  00272E  9486               	bcf	3974,2,c	;volatile
  4930                           
  4931                           ; BSR set to: 1
  4932                           ;commandes.c: 171: }
  4933                           
  4934                           ; BSR set to: 1
  4935                           ;commandes.c: 169: }
  4936                           ;commandes.c: 170: break;
  4937  002730  0012               	return	
  4938  002732                     l1802:
  4939                           
  4940                           ; BSR set to: 1
  4941  002732  0101               	movlb	1	; () banked
  4942  002734  518D               	movf	LED@io& (0+255),w,b
  4943                           
  4944                           ; Switch size 1, requested type "space"
  4945                           ; Number of cases is 2, Range of values is 0 to 1
  4946                           ; switch strategies available:
  4947                           ; Name         Instructions Cycles
  4948                           ; simple_byte            7     4 (average)
  4949                           ;	Chosen strategy is simple_byte
  4950  002736  0A00               	xorlw	0	; case 0
  4951  002738  B4D8               	btfsc	status,2,c
  4952  00273A  D7EC               	goto	l1803
  4953  00273C  0A01               	xorlw	1	; case 1
  4954  00273E  A4D8               	btfss	status,2,c
  4955  002740  0012               	return	
  4956  002742  D7F0               	goto	l1807
  4957  002744                     __end_of_LED:
  4958                           	opt stack 0
  4959                           tblptru	equ	0xFF8
  4960                           tblptrh	equ	0xFF7
  4961                           tblptrl	equ	0xFF6
  4962                           tablat	equ	0xFF5
  4963                           intcon	equ	0xFF2
  4964                           postinc0	equ	0xFEE
  4965                           wreg	equ	0xFE8
  4966                           postdec1	equ	0xFE5
  4967                           fsr1l	equ	0xFE1
  4968                           status	equ	0xFD8
  4969                           
  4970 ;; *************** function _Ecrit_Valeur_selection *****************
  4971 ;; Defined at:
  4972 ;;		line 179 in file "commandes.c"
  4973 ;; Parameters:    Size  Location     Type
  4974 ;;  Val_sel         2    0[BANK1 ] unsigned int 
  4975 ;; Auto vars:     Size  Location     Type
  4976 ;;		None
  4977 ;; Return value:  Size  Location     Type
  4978 ;;                  1    wreg      void 
  4979 ;; Registers used:
  4980 ;;		None
  4981 ;; Tracked objects:
  4982 ;;		On entry : 0/0
  4983 ;;		On exit  : 0/0
  4984 ;;		Unchanged: 0/0
  4985 ;; Data sizes:     COMRAM   BANK0   BANK1   BANK2   BANK3   BANK4   BANK5   BANK6   BANK7   BANK8   BANK9  BANK10  BANK1
      +1  BANK12  BANK13  BANK14
  4986 ;;      Params:         0       0       2       0       0       0       0       0       0       0       0       0       
      +0       0       0       0
  4987 ;;      Locals:         0       0       0       0       0       0       0       0       0       0       0       0       
      +0       0       0       0
  4988 ;;      Temps:          0       0       0       0       0       0       0       0       0       0       0       0       
      +0       0       0       0
  4989 ;;      Totals:         0       0       2       0       0       0       0       0       0       0       0       0       
      +0       0       0       0
  4990 ;;Total ram usage:        2 bytes
  4991 ;; Hardware stack levels used:    1
  4992 ;; Hardware stack levels required when called:    5
  4993 ;; This function calls:
  4994 ;;		Nothing
  4995 ;; This function is called by:
  4996 ;;		_main
  4997 ;; This function uses a non-reentrant model
  4998 ;;
  4999                           
  5000                           	psect	text39
  5001  002C60                     __ptext39:
  5002                           	opt stack 0
  5003  002C60                     _Ecrit_Valeur_selection:
  5004                           	opt stack 25
  5005                           
  5006                           ;commandes.c: 181: selection = Val_sel;
  5007                           
  5008                           ; BSR set to: 1
  5009                           ;incstack = 0
  5010  002C60  C18C  F09B         	movff	Ecrit_Valeur_selection@Val_sel,_selection
  5011  002C64  C18D  F09C         	movff	Ecrit_Valeur_selection@Val_sel+1,_selection+1
  5012  002C68  0012               	return		;funcret
  5013  002C6A                     __end_of_Ecrit_Valeur_selection:
  5014                           	opt stack 0
  5015                           tblptru	equ	0xFF8
  5016                           tblptrh	equ	0xFF7
  5017                           tblptrl	equ	0xFF6
  5018                           tablat	equ	0xFF5
  5019                           intcon	equ	0xFF2
  5020                           postinc0	equ	0xFEE
  5021                           wreg	equ	0xFE8
  5022                           postdec1	equ	0xFE5
  5023                           fsr1l	equ	0xFE1
  5024                           status	equ	0xFD8
  5025                           
  5026 ;; *************** function _BP_selection *****************
  5027 ;; Defined at:
  5028 ;;		line 184 in file "commandes.c"
  5029 ;; Parameters:    Size  Location     Type
  5030 ;;		None
  5031 ;; Auto vars:     Size  Location     Type
  5032 ;;		None
  5033 ;; Return value:  Size  Location     Type
  5034 ;;                  1    wreg      unsigned char 
  5035 ;; Registers used:
  5036 ;;		wreg
  5037 ;; Tracked objects:
  5038 ;;		On entry : 0/0
  5039 ;;		On exit  : 0/0
  5040 ;;		Unchanged: 0/0
  5041 ;; Data sizes:     COMRAM   BANK0   BANK1   BANK2   BANK3   BANK4   BANK5   BANK6   BANK7   BANK8   BANK9  BANK10  BANK1
      +1  BANK12  BANK13  BANK14
  5042 ;;      Params:         0       0       0       0       0       0       0       0       0       0       0       0       
      +0       0       0       0
  5043 ;;      Locals:         0       0       0       0       0       0       0       0       0       0       0       0       
      +0       0       0       0
  5044 ;;      Temps:          0       0       0       0       0       0       0       0       0       0       0       0       
      +0       0       0       0
  5045 ;;      Totals:         0       0       0       0       0       0       0       0       0       0       0       0       
      +0       0       0       0
  5046 ;;Total ram usage:        0 bytes
  5047 ;; Hardware stack levels used:    1
  5048 ;; Hardware stack levels required when called:    5
  5049 ;; This function calls:
  5050 ;;		Nothing
  5051 ;; This function is called by:
  5052 ;;		_main
  5053 ;; This function uses a non-reentrant model
  5054 ;;
  5055                           
  5056                           	psect	text40
  5057  002C48                     __ptext40:
  5058                           	opt stack 0
  5059  002C48                     _BP_selection:
  5060                           	opt stack 25
  5061                           
  5062                           ;commandes.c: 186: return (PORTAbits.RA7);
  5063                           
  5064                           ;incstack = 0
  5065  002C48  AE8D               	btfss	3981,7,c	;volatile
  5066  002C4A  D002               	goto	u6240
  5067  002C4C  0E01               	movlw	1
  5068  002C4E  0012               	return	
  5069  002C50                     u6240:
  5070  002C50  0E00               	movlw	0
  5071  002C52  0012               	return	
  5072  002C54                     __end_of_BP_selection:
  5073                           	opt stack 0
  5074                           tblptru	equ	0xFF8
  5075                           tblptrh	equ	0xFF7
  5076                           tblptrl	equ	0xFF6
  5077                           tablat	equ	0xFF5
  5078                           intcon	equ	0xFF2
  5079                           postinc0	equ	0xFEE
  5080                           wreg	equ	0xFE8
  5081                           postdec1	equ	0xFE5
  5082                           fsr1l	equ	0xFE1
  5083                           status	equ	0xFD8
  5084                           
  5085 ;; *************** function _INTERRUPT_InterruptManager *****************
  5086 ;; Defined at:
  5087 ;;		line 58 in file "mcc_generated_files/interrupt_manager.c"
  5088 ;; Parameters:    Size  Location     Type
  5089 ;;		None
  5090 ;; Auto vars:     Size  Location     Type
  5091 ;;		None
  5092 ;; Return value:  Size  Location     Type
  5093 ;;                  1    wreg      void 
  5094 ;; Registers used:
  5095 ;;		wreg, fsr2l, fsr2h, status,2, status,0, pclath, tosl, prodl, prodh, cstack
  5096 ;; Tracked objects:
  5097 ;;		On entry : 0/0
  5098 ;;		On exit  : 0/0
  5099 ;;		Unchanged: 0/0
  5100 ;; Data sizes:     COMRAM   BANK0   BANK1   BANK2   BANK3   BANK4   BANK5   BANK6   BANK7   BANK8   BANK9  BANK10  BANK1
      +1  BANK12  BANK13  BANK14
  5101 ;;      Params:         0       0       0       0       0       0       0       0       0       0       0       0       
      +0       0       0       0
  5102 ;;      Locals:         0       0       0       0       0       0       0       0       0       0       0       0       
      +0       0       0       0
  5103 ;;      Temps:          0      18       0       0       0       0       0       0       0       0       0       0       
      +0       0       0       0
  5104 ;;      Totals:         0      18       0       0       0       0       0       0       0       0       0       0       
      +0       0       0       0
  5105 ;;Total ram usage:       18 bytes
  5106 ;; Hardware stack levels used:    1
  5107 ;; Hardware stack levels required when called:    4
  5108 ;; This function calls:
  5109 ;;		Absolute function
  5110 ;;		_EUSART1_Receive_ISR
  5111 ;;		_EUSART1_Transmit_ISR
  5112 ;;		_I2C1_BusCollisionISR
  5113 ;;		_I2C1_ISR
  5114 ;;		_PIN_MANAGER_IOC
  5115 ;;		_TMR0_ISR
  5116 ;;		_TMR1_ISR
  5117 ;;		_TMR3_ISR
  5118 ;;		_TMR4_ISR
  5119 ;; This function is called by:
  5120 ;;		Interrupt level 2
  5121 ;; This function uses a non-reentrant model
  5122 ;;
  5123                           
  5124                           	psect	intcode
  5125  000008                     __pintcode:
  5126                           	opt stack 0
  5127  000008                     _INTERRUPT_InterruptManager:
  5128                           	opt stack 22
  5129                           
  5130                           ;incstack = 0
  5131  000008  825C               	bsf	btemp,1,c	;set compiler interrupt flag (level 2)
  5132  00000A  CFFA F0D3          	movff	pclath,??_INTERRUPT_InterruptManager
  5133  00000E  CFFB F0D4          	movff	pclatu,??_INTERRUPT_InterruptManager+1
  5134  000012  CFE9 F0D5          	movff	fsr0l,??_INTERRUPT_InterruptManager+2
  5135  000016  CFEA F0D6          	movff	fsr0h,??_INTERRUPT_InterruptManager+3
  5136  00001A  CFE1 F0D7          	movff	fsr1l,??_INTERRUPT_InterruptManager+4
  5137  00001E  CFE2 F0D8          	movff	fsr1h,??_INTERRUPT_InterruptManager+5
  5138  000022  CFD9 F0D9          	movff	fsr2l,??_INTERRUPT_InterruptManager+6
  5139  000026  CFDA F0DA          	movff	fsr2h,??_INTERRUPT_InterruptManager+7
  5140  00002A  CFF3 F0DB          	movff	prodl,??_INTERRUPT_InterruptManager+8
  5141  00002E  CFF4 F0DC          	movff	prodh,??_INTERRUPT_InterruptManager+9
  5142  000032  CFF6 F0DD          	movff	tblptrl,??_INTERRUPT_InterruptManager+10
  5143  000036  CFF7 F0DE          	movff	tblptrh,??_INTERRUPT_InterruptManager+11
  5144  00003A  CFF8 F0DF          	movff	tblptru,??_INTERRUPT_InterruptManager+12
  5145  00003E  CFF5 F0E0          	movff	tablat,??_INTERRUPT_InterruptManager+13
  5146  000042  C05C  F0E1         	movff	btemp,??_INTERRUPT_InterruptManager+14
  5147  000046  C05D  F0E2         	movff	btemp+1,??_INTERRUPT_InterruptManager+15
  5148  00004A  C05E  F0E3         	movff	btemp+2,??_INTERRUPT_InterruptManager+16
  5149  00004E  C05F  F0E4         	movff	btemp+3,??_INTERRUPT_InterruptManager+17
  5150                           
  5151                           ;interrupt_manager.c: 61: if(PIE0bits.TMR0IE == 1 && PIR0bits.TMR0IF == 1)
  5152  000052  010E               	movlb	14	; () banked
  5153  000054  BBC2               	btfsc	194,5,b	;volatile
  5154                           
  5155                           ; BSR set to: 14
  5156  000056  ABCA               	btfss	202,5,b	;volatile
  5157  000058  D003               	goto	i2l828
  5158                           
  5159                           ; BSR set to: 14
  5160                           ;interrupt_manager.c: 62: {
  5161                           ;interrupt_manager.c: 63: TMR0_ISR();
  5162  00005A  EC08  F014         	call	_TMR0_ISR	;wreg free
  5163                           
  5164                           ;interrupt_manager.c: 64: }
  5165  00005E  D043               	goto	i2l845
  5166  000060                     i2l828:
  5167                           
  5168                           ; BSR set to: 14
  5169                           ;interrupt_manager.c: 65: else if(PIE0bits.IOCIE == 1 && PIR0bits.IOCIF == 1)
  5170  000060  B9C2               	btfsc	194,4,b	;volatile
  5171                           
  5172                           ; BSR set to: 14
  5173  000062  A9CA               	btfss	202,4,b	;volatile
  5174  000064  D003               	goto	i2l830
  5175                           
  5176                           ; BSR set to: 14
  5177                           ;interrupt_manager.c: 66: {
  5178                           ;interrupt_manager.c: 67: PIN_MANAGER_IOC();
  5179  000066  ECDD  F014         	call	_PIN_MANAGER_IOC	;wreg free
  5180                           
  5181                           ;interrupt_manager.c: 68: }
  5182  00006A  D03D               	goto	i2l845
  5183  00006C                     i2l830:
  5184                           
  5185                           ; BSR set to: 14
  5186                           ;interrupt_manager.c: 69: else if(INTCONbits.PEIE == 1)
  5187  00006C  ACF2               	btfss	intcon,6,c	;volatile
  5188  00006E  D03B               	goto	i2l845
  5189                           
  5190                           ; BSR set to: 14
  5191                           ;interrupt_manager.c: 70: {
  5192                           ;interrupt_manager.c: 71: if(PIE3bits.BCL1IE == 1 && PIR3bits.BCL1IF == 1)
  5193  000070  B3C5               	btfsc	197,1,b	;volatile
  5194                           
  5195                           ; BSR set to: 14
  5196  000072  A3CD               	btfss	205,1,b	;volatile
  5197  000074  D003               	goto	i2l833
  5198                           
  5199                           ; BSR set to: 14
  5200                           ;interrupt_manager.c: 72: {
  5201                           ;interrupt_manager.c: 73: I2C1_BusCollisionISR();
  5202  000076  EC35  F016         	call	_I2C1_BusCollisionISR	;wreg free
  5203                           
  5204                           ;interrupt_manager.c: 74: }
  5205  00007A  D035               	goto	i2l845
  5206  00007C                     i2l833:
  5207                           
  5208                           ; BSR set to: 14
  5209                           ;interrupt_manager.c: 75: else if(PIE3bits.SSP1IE == 1 && PIR3bits.SSP1IF == 1)
  5210  00007C  B1C5               	btfsc	197,0,b	;volatile
  5211                           
  5212                           ; BSR set to: 14
  5213  00007E  A1CD               	btfss	205,0,b	;volatile
  5214  000080  D003               	goto	i2l835
  5215                           
  5216                           ; BSR set to: 14
  5217                           ;interrupt_manager.c: 76: {
  5218                           ;interrupt_manager.c: 77: I2C1_ISR();
  5219  000082  EC3F  F00C         	call	_I2C1_ISR	;wreg free
  5220                           
  5221                           ;interrupt_manager.c: 78: }
  5222  000086  D02F               	goto	i2l845
  5223  000088                     i2l835:
  5224                           
  5225                           ; BSR set to: 14
  5226                           ;interrupt_manager.c: 79: else if(PIE3bits.TX1IE == 1 && PIR3bits.TX1IF == 1)
  5227  000088  B9C5               	btfsc	197,4,b	;volatile
  5228                           
  5229                           ; BSR set to: 14
  5230  00008A  A9CD               	btfss	205,4,b	;volatile
  5231  00008C  D00B               	goto	i2l837
  5232                           
  5233                           ; BSR set to: 14
  5234                           ;interrupt_manager.c: 80: {
  5235                           ;interrupt_manager.c: 81: EUSART1_TxDefaultInterruptHandler();
  5236  00008E  D801               	call	i2u560_48
  5237  000090  D02A               	goto	i2l845
  5238  000092                     i2u560_48:
  5239  000092  0005               	push	
  5240  000094  6EFA               	movwf	pclath,c
  5241  000096  0101               	movlb	1	; () banked
  5242  000098  5189               	movf	_EUSART1_TxDefaultInterruptHandler& (0+255),w,b
  5243  00009A  6EFD               	movwf	tosl,c
  5244  00009C  518A               	movf	(_EUSART1_TxDefaultInterruptHandler+1)& (0+255),w,b
  5245  00009E  6EFE               	movwf	tosh,c
  5246  0000A0  518B               	movf	(_EUSART1_TxDefaultInterruptHandler+2)& (0+255),w,b
  5247  0000A2  D00D               	goto	L1
  5248  0000A4                     i2l837:
  5249                           
  5250                           ; BSR set to: 14
  5251                           ;interrupt_manager.c: 83: else if(PIE3bits.RC1IE == 1 && PIR3bits.RC1IF == 1)
  5252  0000A4  BBC5               	btfsc	197,5,b	;volatile
  5253                           
  5254                           ; BSR set to: 14
  5255  0000A6  ABCD               	btfss	205,5,b	;volatile
  5256  0000A8  D00D               	goto	i2l839
  5257                           
  5258                           ; BSR set to: 14
  5259                           ;interrupt_manager.c: 84: {
  5260                           ;interrupt_manager.c: 85: EUSART1_RxDefaultInterruptHandler();
  5261  0000AA  D801               	call	i2u563_48
  5262  0000AC  D01C               	goto	i2l845
  5263  0000AE                     i2u563_48:
  5264  0000AE  0005               	push	
  5265  0000B0  6EFA               	movwf	pclath,c
  5266  0000B2  0101               	movlb	1	; () banked
  5267  0000B4  5186               	movf	_EUSART1_RxDefaultInterruptHandler& (0+255),w,b
  5268  0000B6  6EFD               	movwf	tosl,c
  5269  0000B8  5187               	movf	(_EUSART1_RxDefaultInterruptHandler+1)& (0+255),w,b
  5270  0000BA  6EFE               	movwf	tosh,c
  5271  0000BC  5188               	movf	(_EUSART1_RxDefaultInterruptHandler+2)& (0+255),w,b
  5272  0000BE                     L1:
  5273  0000BE  6EFF               	movwf	tosu,c
  5274  0000C0  50FA               	movf	pclath,w,c
  5275  0000C2  0012               	return		;indir
  5276  0000C4                     i2l839:
  5277                           
  5278                           ; BSR set to: 14
  5279                           ;interrupt_manager.c: 87: else if(PIE4bits.TMR4IE == 1 && PIR4bits.TMR4IF == 1)
  5280  0000C4  B7C6               	btfsc	198,3,b	;volatile
  5281                           
  5282                           ; BSR set to: 14
  5283  0000C6  A7CE               	btfss	206,3,b	;volatile
  5284  0000C8  D003               	goto	i2l841
  5285                           
  5286                           ; BSR set to: 14
  5287                           ;interrupt_manager.c: 88: {
  5288                           ;interrupt_manager.c: 89: TMR4_ISR();
  5289  0000CA  ECB6  F014         	call	_TMR4_ISR	;wreg free
  5290                           
  5291                           ;interrupt_manager.c: 90: }
  5292  0000CE  D00B               	goto	i2l845
  5293  0000D0                     i2l841:
  5294                           
  5295                           ; BSR set to: 14
  5296                           ;interrupt_manager.c: 91: else if(PIE4bits.TMR3IE == 1 && PIR4bits.TMR3IF == 1)
  5297  0000D0  B5C6               	btfsc	198,2,b	;volatile
  5298                           
  5299                           ; BSR set to: 14
  5300  0000D2  A5CE               	btfss	206,2,b	;volatile
  5301  0000D4  D003               	goto	i2l843
  5302                           
  5303                           ; BSR set to: 14
  5304                           ;interrupt_manager.c: 92: {
  5305                           ;interrupt_manager.c: 93: TMR3_ISR();
  5306  0000D6  ECA2  F013         	call	_TMR3_ISR	;wreg free
  5307                           
  5308                           ;interrupt_manager.c: 94: }
  5309  0000DA  D005               	goto	i2l845
  5310  0000DC                     i2l843:
  5311                           
  5312                           ; BSR set to: 14
  5313                           ;interrupt_manager.c: 95: else if(PIE4bits.TMR1IE == 1 && PIR4bits.TMR1IF == 1)
  5314  0000DC  B1C6               	btfsc	198,0,b	;volatile
  5315                           
  5316                           ; BSR set to: 14
  5317  0000DE  A1CE               	btfss	206,0,b	;volatile
  5318  0000E0  D002               	goto	i2l845
  5319                           
  5320                           ; BSR set to: 14
  5321                           ;interrupt_manager.c: 96: {
  5322                           ;interrupt_manager.c: 97: TMR1_ISR();
  5323  0000E2  ECBC  F013         	call	_TMR1_ISR	;wreg free
  5324  0000E6                     i2l845:
  5325                           
  5326                           ;interrupt_manager.c: 104: else
  5327                           ;interrupt_manager.c: 105: {
  5328                           
  5329                           ;interrupt_manager.c: 102: }
  5330                           ;interrupt_manager.c: 103: }
  5331                           
  5332                           ;interrupt_manager.c: 99: else
  5333                           ;interrupt_manager.c: 100: {
  5334  0000E6  C0E4  F05F         	movff	??_INTERRUPT_InterruptManager+17,btemp+3
  5335  0000EA  C0E3  F05E         	movff	??_INTERRUPT_InterruptManager+16,btemp+2
  5336  0000EE  C0E2  F05D         	movff	??_INTERRUPT_InterruptManager+15,btemp+1
  5337  0000F2  C0E1  F05C         	movff	??_INTERRUPT_InterruptManager+14,btemp
  5338  0000F6  C0E0  FFF5         	movff	??_INTERRUPT_InterruptManager+13,tablat
  5339  0000FA  C0DF  FFF8         	movff	??_INTERRUPT_InterruptManager+12,tblptru
  5340  0000FE  C0DE  FFF7         	movff	??_INTERRUPT_InterruptManager+11,tblptrh
  5341  000102  C0DD  FFF6         	movff	??_INTERRUPT_InterruptManager+10,tblptrl
  5342  000106  C0DC  FFF4         	movff	??_INTERRUPT_InterruptManager+9,prodh
  5343  00010A  C0DB  FFF3         	movff	??_INTERRUPT_InterruptManager+8,prodl
  5344  00010E  C0DA  FFDA         	movff	??_INTERRUPT_InterruptManager+7,fsr2h
  5345  000112  C0D9  FFD9         	movff	??_INTERRUPT_InterruptManager+6,fsr2l
  5346  000116  C0D8  FFE2         	movff	??_INTERRUPT_InterruptManager+5,fsr1h
  5347  00011A  C0D7  FFE1         	movff	??_INTERRUPT_InterruptManager+4,fsr1l
  5348  00011E  C0D6  FFEA         	movff	??_INTERRUPT_InterruptManager+3,fsr0h
  5349  000122  C0D5  FFE9         	movff	??_INTERRUPT_InterruptManager+2,fsr0l
  5350  000126  C0D4  FFFB         	movff	??_INTERRUPT_InterruptManager+1,pclatu
  5351  00012A  C0D3  FFFA         	movff	??_INTERRUPT_InterruptManager,pclath
  5352  00012E  925C               	bcf	btemp,1,c	;clear compiler interrupt flag (level 2)
  5353  000130  0011               	retfie		f
  5354  000132                     __end_of_INTERRUPT_InterruptManager:
  5355                           	opt stack 0
  5356                           tosu	equ	0xFFF
  5357                           tosh	equ	0xFFE
  5358                           tosl	equ	0xFFD
  5359                           pclatu	equ	0xFFB
  5360                           pclath	equ	0xFFA
  5361                           tblptru	equ	0xFF8
  5362                           tblptrh	equ	0xFF7
  5363                           tblptrl	equ	0xFF6
  5364                           tablat	equ	0xFF5
  5365                           prodh	equ	0xFF4
  5366                           prodl	equ	0xFF3
  5367                           intcon	equ	0xFF2
  5368                           postinc0	equ	0xFEE
  5369                           fsr0h	equ	0xFEA
  5370                           fsr0l	equ	0xFE9
  5371                           wreg	equ	0xFE8
  5372                           postdec1	equ	0xFE5
  5373                           fsr1h	equ	0xFE2
  5374                           fsr1l	equ	0xFE1
  5375                           fsr2h	equ	0xFDA
  5376                           fsr2l	equ	0xFD9
  5377                           status	equ	0xFD8
  5378                           
  5379 ;; *************** function _TMR4_ISR *****************
  5380 ;; Defined at:
  5381 ;;		line 197 in file "mcc_generated_files/tmr4.c"
  5382 ;; Parameters:    Size  Location     Type
  5383 ;;		None
  5384 ;; Auto vars:     Size  Location     Type
  5385 ;;		None
  5386 ;; Return value:  Size  Location     Type
  5387 ;;                  1    wreg      void 
  5388 ;; Registers used:
  5389 ;;		wreg, status,2, status,0, pclath, tosl, prodl, prodh, cstack
  5390 ;; Tracked objects:
  5391 ;;		On entry : 0/0
  5392 ;;		On exit  : 0/0
  5393 ;;		Unchanged: 0/0
  5394 ;; Data sizes:     COMRAM   BANK0   BANK1   BANK2   BANK3   BANK4   BANK5   BANK6   BANK7   BANK8   BANK9  BANK10  BANK1
      +1  BANK12  BANK13  BANK14
  5395 ;;      Params:         0       0       0       0       0       0       0       0       0       0       0       0       
      +0       0       0       0
  5396 ;;      Locals:         0       0       0       0       0       0       0       0       0       0       0       0       
      +0       0       0       0
  5397 ;;      Temps:          0       0       0       0       0       0       0       0       0       0       0       0       
      +0       0       0       0
  5398 ;;      Totals:         0       0       0       0       0       0       0       0       0       0       0       0       
      +0       0       0       0
  5399 ;;Total ram usage:        0 bytes
  5400 ;; Hardware stack levels used:    1
  5401 ;; Hardware stack levels required when called:    2
  5402 ;; This function calls:
  5403 ;;		Absolute function
  5404 ;;		_TMR4_DefaultInterruptHandler
  5405 ;; This function is called by:
  5406 ;;		_INTERRUPT_InterruptManager
  5407 ;; This function uses a non-reentrant model
  5408 ;;
  5409                           
  5410                           	psect	text42
  5411  00296C                     __ptext42:
  5412                           	opt stack 0
  5413  00296C                     _TMR4_ISR:
  5414                           	opt stack 23
  5415                           
  5416                           ;tmr4.c: 201: PIR4bits.TMR4IF = 0;
  5417                           
  5418                           ;incstack = 0
  5419  00296C  010E               	movlb	14	; () banked
  5420  00296E  97CE               	bcf	206,3,b	;volatile
  5421                           
  5422                           ; BSR set to: 14
  5423                           ;tmr4.c: 203: if(TMR4_InterruptHandler)
  5424  002970  0100               	movlb	0	; () banked
  5425  002972  51BA               	movf	_TMR4_InterruptHandler& (0+255),w,b
  5426  002974  11BB               	iorwf	(_TMR4_InterruptHandler+1)& (0+255),w,b
  5427  002976  11BC               	iorwf	(_TMR4_InterruptHandler+2)& (0+255),w,b
  5428  002978  B4D8               	btfsc	status,2,c
  5429  00297A  0012               	return	
  5430                           
  5431                           ; BSR set to: 0
  5432                           ;tmr4.c: 204: {
  5433                           ;tmr4.c: 205: TMR4_InterruptHandler();
  5434  00297C  D801               	call	i2u516_48
  5435  00297E  0012               	return	
  5436  002980                     i2u516_48:
  5437  002980  0005               	push	
  5438  002982  6EFA               	movwf	pclath,c
  5439  002984  51BA               	movf	_TMR4_InterruptHandler& (0+255),w,b
  5440  002986  6EFD               	movwf	tosl,c
  5441  002988  51BB               	movf	(_TMR4_InterruptHandler+1)& (0+255),w,b
  5442  00298A  6EFE               	movwf	tosh,c
  5443  00298C  51BC               	movf	(_TMR4_InterruptHandler+2)& (0+255),w,b
  5444  00298E  6EFF               	movwf	tosu,c
  5445  002990  50FA               	movf	pclath,w,c
  5446  002992  0012               	return		;indir
  5447  002994                     __end_of_TMR4_ISR:
  5448                           	opt stack 0
  5449                           tosu	equ	0xFFF
  5450                           tosh	equ	0xFFE
  5451                           tosl	equ	0xFFD
  5452                           pclatu	equ	0xFFB
  5453                           pclath	equ	0xFFA
  5454                           tblptru	equ	0xFF8
  5455                           tblptrh	equ	0xFF7
  5456                           tblptrl	equ	0xFF6
  5457                           tablat	equ	0xFF5
  5458                           prodh	equ	0xFF4
  5459                           prodl	equ	0xFF3
  5460                           intcon	equ	0xFF2
  5461                           postinc0	equ	0xFEE
  5462                           fsr0h	equ	0xFEA
  5463                           fsr0l	equ	0xFE9
  5464                           wreg	equ	0xFE8
  5465                           postdec1	equ	0xFE5
  5466                           fsr1h	equ	0xFE2
  5467                           fsr1l	equ	0xFE1
  5468                           fsr2h	equ	0xFDA
  5469                           fsr2l	equ	0xFD9
  5470                           status	equ	0xFD8
  5471                           
  5472 ;; *************** function _TMR4_DefaultInterruptHandler *****************
  5473 ;; Defined at:
  5474 ;;		line 233 in file "mcc_generated_files/tmr4.c"
  5475 ;; Parameters:    Size  Location     Type
  5476 ;;		None
  5477 ;; Auto vars:     Size  Location     Type
  5478 ;;		None
  5479 ;; Return value:  Size  Location     Type
  5480 ;;                  1    wreg      void 
  5481 ;; Registers used:
  5482 ;;		wreg, status,2, status,0, prodl, prodh, cstack
  5483 ;; Tracked objects:
  5484 ;;		On entry : 0/0
  5485 ;;		On exit  : 0/0
  5486 ;;		Unchanged: 0/0
  5487 ;; Data sizes:     COMRAM   BANK0   BANK1   BANK2   BANK3   BANK4   BANK5   BANK6   BANK7   BANK8   BANK9  BANK10  BANK1
      +1  BANK12  BANK13  BANK14
  5488 ;;      Params:         0       0       0       0       0       0       0       0       0       0       0       0       
      +0       0       0       0
  5489 ;;      Locals:         4       0       0       0       0       0       0       0       0       0       0       0       
      +0       0       0       0
  5490 ;;      Temps:          2       0       0       0       0       0       0       0       0       0       0       0       
      +0       0       0       0
  5491 ;;      Totals:         6       0       0       0       0       0       0       0       0       0       0       0       
      +0       0       0       0
  5492 ;;Total ram usage:        6 bytes
  5493 ;; Hardware stack levels used:    1
  5494 ;; Hardware stack levels required when called:    1
  5495 ;; This function calls:
  5496 ;;		_PWM1_LoadDutyValue
  5497 ;;		_PWM2_LoadDutyValue
  5498 ;;		___fladd
  5499 ;;		___flmul
  5500 ;;		___fltol
  5501 ;;		___xxtofl
  5502 ;; This function is called by:
  5503 ;;		_TMR4_Initialize
  5504 ;;		_TMR4_ISR
  5505 ;; This function uses a non-reentrant model
  5506 ;;
  5507                           
  5508                           	psect	text43
  5509  0015B8                     __ptext43:
  5510                           	opt stack 0
  5511  0015B8                     _TMR4_DefaultInterruptHandler:
  5512                           	opt stack 23
  5513                           
  5514                           ;tmr4.c: 265: Erreur_Vitesse_Moteur_G = Consigne_Vitesse_Moteur_G - Vitesse_Moteur_G;
  5515                           
  5516                           ;incstack = 0
  5517  0015B8  C09F  F046         	movff	_Vitesse_Moteur_G,??_TMR4_DefaultInterruptHandler
  5518  0015BC  C0A0  F047         	movff	_Vitesse_Moteur_G+1,??_TMR4_DefaultInterruptHandler+1
  5519  0015C0  1E46               	comf	??_TMR4_DefaultInterruptHandler,f,c
  5520  0015C2  1E47               	comf	??_TMR4_DefaultInterruptHandler+1,f,c
  5521  0015C4  4A46               	infsnz	??_TMR4_DefaultInterruptHandler,f,c
  5522  0015C6  2A47               	incf	??_TMR4_DefaultInterruptHandler+1,f,c
  5523  0015C8  0100               	movlb	0	; () banked
  5524  0015CA  5195               	movf	_Consigne_Vitesse_Moteur_G& (0+255),w,b
  5525  0015CC  2446               	addwf	??_TMR4_DefaultInterruptHandler,w,c
  5526  0015CE  6F91               	movwf	_Erreur_Vitesse_Moteur_G& (0+255),b
  5527  0015D0  5196               	movf	(_Consigne_Vitesse_Moteur_G+1)& (0+255),w,b
  5528  0015D2  2047               	addwfc	??_TMR4_DefaultInterruptHandler+1,w,c
  5529  0015D4  6F92               	movwf	(_Erreur_Vitesse_Moteur_G+1)& (0+255),b
  5530                           
  5531                           ; BSR set to: 0
  5532                           ;tmr4.c: 266: dutyValue_G = (float)ancien_dutyValue_G + 21 * (float) Erreur_Vitesse_Mote
      +                          ur_G + -19 * (float) Ancienne_Erreur_Vitesse_Moteur_G;
  5533  0015D6  0E00               	movlw	0
  5534  0015D8  6E13               	movwf	___flmul@a,c
  5535  0015DA  0E00               	movlw	0
  5536  0015DC  6E14               	movwf	___flmul@a+1,c
  5537  0015DE  0EA8               	movlw	168
  5538  0015E0  6E15               	movwf	___flmul@a+2,c
  5539  0015E2  0E41               	movlw	65
  5540  0015E4  6E16               	movwf	___flmul@a+3,c
  5541  0015E6  C091  F001         	movff	_Erreur_Vitesse_Moteur_G,___xxtofl@val
  5542  0015EA  C092  F002         	movff	_Erreur_Vitesse_Moteur_G+1,___xxtofl@val+1
  5543  0015EE  0E00               	movlw	0
  5544  0015F0  BE02               	btfsc	___xxtofl@val+1,7,c
  5545  0015F2  0EFF               	movlw	-1
  5546  0015F4  6E03               	movwf	___xxtofl@val+2,c
  5547  0015F6  6E04               	movwf	___xxtofl@val+3,c
  5548  0015F8  0E01               	movlw	1
  5549  0015FA  EC62  F00E         	call	___xxtofl
  5550  0015FE  C001  F00F         	movff	?___xxtofl,___flmul@b
  5551  001602  C002  F010         	movff	?___xxtofl+1,___flmul@b+1
  5552  001606  C003  F011         	movff	?___xxtofl+2,___flmul@b+2
  5553  00160A  C004  F012         	movff	?___xxtofl+3,___flmul@b+3
  5554  00160E  EC96  F007         	call	___flmul	;wreg free
  5555  001612  C00F  F02C         	movff	?___flmul,___fladd@a
  5556  001616  C010  F02D         	movff	?___flmul+1,___fladd@a+1
  5557  00161A  C011  F02E         	movff	?___flmul+2,___fladd@a+2
  5558  00161E  C012  F02F         	movff	?___flmul+3,___fladd@a+3
  5559  001622  C0EA  F001         	movff	_ancien_dutyValue_G,___xxtofl@val
  5560  001626  C0EB  F002         	movff	_ancien_dutyValue_G+1,___xxtofl@val+1
  5561  00162A  0E00               	movlw	0
  5562  00162C  BE02               	btfsc	___xxtofl@val+1,7,c
  5563  00162E  0EFF               	movlw	-1
  5564  001630  6E03               	movwf	___xxtofl@val+2,c
  5565  001632  6E04               	movwf	___xxtofl@val+3,c
  5566  001634  0E01               	movlw	1
  5567  001636  EC62  F00E         	call	___xxtofl
  5568  00163A  C001  F028         	movff	?___xxtofl,___fladd@b
  5569  00163E  C002  F029         	movff	?___xxtofl+1,___fladd@b+1
  5570  001642  C003  F02A         	movff	?___xxtofl+2,___fladd@b+2
  5571  001646  C004  F02B         	movff	?___xxtofl+3,___fladd@b+3
  5572  00164A  EC3E  F009         	call	___fladd	;wreg free
  5573  00164E  C028  F048         	movff	?___fladd,_TMR4_DefaultInterruptHandler$5370
  5574  001652  C029  F049         	movff	?___fladd+1,_TMR4_DefaultInterruptHandler$5370+1
  5575  001656  C02A  F04A         	movff	?___fladd+2,_TMR4_DefaultInterruptHandler$5370+2
  5576  00165A  C02B  F04B         	movff	?___fladd+3,_TMR4_DefaultInterruptHandler$5370+3
  5577                           
  5578                           ;tmr4.c: 266: dutyValue_G = (float)ancien_dutyValue_G + 21 * (float) Erreur_Vitesse_Mote
      +                          ur_G + -19 * (float) Ancienne_Erreur_Vitesse_Moteur_G;
  5579  00165E  0E00               	movlw	0
  5580  001660  6E13               	movwf	___flmul@a,c
  5581  001662  0E00               	movlw	0
  5582  001664  6E14               	movwf	___flmul@a+1,c
  5583  001666  0E98               	movlw	152
  5584  001668  6E15               	movwf	___flmul@a+2,c
  5585  00166A  0EC1               	movlw	193
  5586  00166C  6E16               	movwf	___flmul@a+3,c
  5587  00166E  C08F  F001         	movff	_Ancienne_Erreur_Vitesse_Moteur_G,___xxtofl@val
  5588  001672  C090  F002         	movff	_Ancienne_Erreur_Vitesse_Moteur_G+1,___xxtofl@val+1
  5589  001676  0E00               	movlw	0
  5590  001678  BE02               	btfsc	___xxtofl@val+1,7,c
  5591  00167A  0EFF               	movlw	-1
  5592  00167C  6E03               	movwf	___xxtofl@val+2,c
  5593  00167E  6E04               	movwf	___xxtofl@val+3,c
  5594  001680  0E01               	movlw	1
  5595  001682  EC62  F00E         	call	___xxtofl
  5596  001686  C001  F00F         	movff	?___xxtofl,___flmul@b
  5597  00168A  C002  F010         	movff	?___xxtofl+1,___flmul@b+1
  5598  00168E  C003  F011         	movff	?___xxtofl+2,___flmul@b+2
  5599  001692  C004  F012         	movff	?___xxtofl+3,___flmul@b+3
  5600  001696  EC96  F007         	call	___flmul	;wreg free
  5601  00169A  C00F  F02C         	movff	?___flmul,___fladd@a
  5602  00169E  C010  F02D         	movff	?___flmul+1,___fladd@a+1
  5603  0016A2  C011  F02E         	movff	?___flmul+2,___fladd@a+2
  5604  0016A6  C012  F02F         	movff	?___flmul+3,___fladd@a+3
  5605  0016AA  C048  F028         	movff	_TMR4_DefaultInterruptHandler$5370,___fladd@b
  5606  0016AE  C049  F029         	movff	_TMR4_DefaultInterruptHandler$5370+1,___fladd@b+1
  5607  0016B2  C04A  F02A         	movff	_TMR4_DefaultInterruptHandler$5370+2,___fladd@b+2
  5608  0016B6  C04B  F02B         	movff	_TMR4_DefaultInterruptHandler$5370+3,___fladd@b+3
  5609  0016BA  EC3E  F009         	call	___fladd	;wreg free
  5610  0016BE  C028  F03C         	movff	?___fladd,___fltol@f1
  5611  0016C2  C029  F03D         	movff	?___fladd+1,___fltol@f1+1
  5612  0016C6  C02A  F03E         	movff	?___fladd+2,___fltol@f1+2
  5613  0016CA  C02B  F03F         	movff	?___fladd+3,___fltol@f1+3
  5614  0016CE  EC06  F010         	call	___fltol	;wreg free
  5615  0016D2  C03C  F04E         	movff	?___fltol,_dutyValue_G
  5616  0016D6  C03D  F04F         	movff	?___fltol+1,_dutyValue_G+1
  5617                           
  5618                           ;tmr4.c: 267: Ancienne_Erreur_Vitesse_Moteur_G = Erreur_Vitesse_Moteur_G;
  5619  0016DA  C091  F08F         	movff	_Erreur_Vitesse_Moteur_G,_Ancienne_Erreur_Vitesse_Moteur_G
  5620  0016DE  C092  F090         	movff	_Erreur_Vitesse_Moteur_G+1,_Ancienne_Erreur_Vitesse_Moteur_G+1
  5621                           
  5622                           ;tmr4.c: 269: if (dutyValue_G > 800)
  5623  0016E2  BE4F               	btfsc	_dutyValue_G+1,7,c
  5624  0016E4  D00A               	goto	i2l1465
  5625  0016E6  0E21               	movlw	33
  5626  0016E8  5C4E               	subwf	_dutyValue_G,w,c
  5627  0016EA  0E03               	movlw	3
  5628  0016EC  584F               	subwfb	_dutyValue_G+1,w,c
  5629  0016EE  A0D8               	btfss	status,0,c
  5630  0016F0  D004               	goto	i2l1465
  5631                           
  5632                           ;tmr4.c: 270: {dutyValue_G = 800;}
  5633  0016F2  0E03               	movlw	3
  5634  0016F4  6E4F               	movwf	_dutyValue_G+1,c
  5635  0016F6  0E20               	movlw	32
  5636  0016F8  D005               	goto	L2
  5637  0016FA                     i2l1465:
  5638                           
  5639                           ;tmr4.c: 271: else if (dutyValue_G < 0)
  5640  0016FA  AE4F               	btfss	_dutyValue_G+1,7,c
  5641  0016FC  D004               	goto	i2l1467
  5642                           
  5643                           ;tmr4.c: 272: {dutyValue_G = 0;}
  5644  0016FE  0E00               	movlw	0
  5645  001700  6E4F               	movwf	_dutyValue_G+1,c
  5646  001702  0E00               	movlw	0
  5647  001704                     L2:
  5648  001704  6E4E               	movwf	_dutyValue_G,c
  5649  001706                     i2l1467:
  5650                           
  5651                           ;tmr4.c: 273: ancien_dutyValue_G = dutyValue_G;
  5652  001706  C04E  F0EA         	movff	_dutyValue_G,_ancien_dutyValue_G
  5653  00170A  C04F  F0EB         	movff	_dutyValue_G+1,_ancien_dutyValue_G+1
  5654                           
  5655                           ;tmr4.c: 275: Erreur_Vitesse_Moteur_D = Consigne_Vitesse_Moteur_D - Vitesse_Moteur_D;
  5656  00170E  C09D  F046         	movff	_Vitesse_Moteur_D,??_TMR4_DefaultInterruptHandler
  5657  001712  C09E  F047         	movff	_Vitesse_Moteur_D+1,??_TMR4_DefaultInterruptHandler+1
  5658  001716  1E46               	comf	??_TMR4_DefaultInterruptHandler,f,c
  5659  001718  1E47               	comf	??_TMR4_DefaultInterruptHandler+1,f,c
  5660  00171A  4A46               	infsnz	??_TMR4_DefaultInterruptHandler,f,c
  5661  00171C  2A47               	incf	??_TMR4_DefaultInterruptHandler+1,f,c
  5662  00171E  0100               	movlb	0	; () banked
  5663  001720  5193               	movf	_Consigne_Vitesse_Moteur_D& (0+255),w,b
  5664  001722  2446               	addwf	??_TMR4_DefaultInterruptHandler,w,c
  5665  001724  6F8D               	movwf	_Erreur_Vitesse_Moteur_D& (0+255),b
  5666  001726  5194               	movf	(_Consigne_Vitesse_Moteur_D+1)& (0+255),w,b
  5667  001728  2047               	addwfc	??_TMR4_DefaultInterruptHandler+1,w,c
  5668  00172A  6F8E               	movwf	(_Erreur_Vitesse_Moteur_D+1)& (0+255),b
  5669                           
  5670                           ; BSR set to: 0
  5671                           ;tmr4.c: 276: dutyValue_D = (float) ancien_dutyValue_D + 21 * (float) Erreur_Vitesse_Mot
      +                          eur_D + -19 * (float) Ancienne_Erreur_Vitesse_Moteur_D;
  5672  00172C  0E00               	movlw	0
  5673  00172E  6E13               	movwf	___flmul@a,c
  5674  001730  0E00               	movlw	0
  5675  001732  6E14               	movwf	___flmul@a+1,c
  5676  001734  0EA8               	movlw	168
  5677  001736  6E15               	movwf	___flmul@a+2,c
  5678  001738  0E41               	movlw	65
  5679  00173A  6E16               	movwf	___flmul@a+3,c
  5680  00173C  C08D  F001         	movff	_Erreur_Vitesse_Moteur_D,___xxtofl@val
  5681  001740  C08E  F002         	movff	_Erreur_Vitesse_Moteur_D+1,___xxtofl@val+1
  5682  001744  0E00               	movlw	0
  5683  001746  BE02               	btfsc	___xxtofl@val+1,7,c
  5684  001748  0EFF               	movlw	-1
  5685  00174A  6E03               	movwf	___xxtofl@val+2,c
  5686  00174C  6E04               	movwf	___xxtofl@val+3,c
  5687  00174E  0E01               	movlw	1
  5688  001750  EC62  F00E         	call	___xxtofl
  5689  001754  C001  F00F         	movff	?___xxtofl,___flmul@b
  5690  001758  C002  F010         	movff	?___xxtofl+1,___flmul@b+1
  5691  00175C  C003  F011         	movff	?___xxtofl+2,___flmul@b+2
  5692  001760  C004  F012         	movff	?___xxtofl+3,___flmul@b+3
  5693  001764  EC96  F007         	call	___flmul	;wreg free
  5694  001768  C00F  F02C         	movff	?___flmul,___fladd@a
  5695  00176C  C010  F02D         	movff	?___flmul+1,___fladd@a+1
  5696  001770  C011  F02E         	movff	?___flmul+2,___fladd@a+2
  5697  001774  C012  F02F         	movff	?___flmul+3,___fladd@a+3
  5698  001778  C0E8  F001         	movff	_ancien_dutyValue_D,___xxtofl@val
  5699  00177C  C0E9  F002         	movff	_ancien_dutyValue_D+1,___xxtofl@val+1
  5700  001780  0E00               	movlw	0
  5701  001782  BE02               	btfsc	___xxtofl@val+1,7,c
  5702  001784  0EFF               	movlw	-1
  5703  001786  6E03               	movwf	___xxtofl@val+2,c
  5704  001788  6E04               	movwf	___xxtofl@val+3,c
  5705  00178A  0E01               	movlw	1
  5706  00178C  EC62  F00E         	call	___xxtofl
  5707  001790  C001  F028         	movff	?___xxtofl,___fladd@b
  5708  001794  C002  F029         	movff	?___xxtofl+1,___fladd@b+1
  5709  001798  C003  F02A         	movff	?___xxtofl+2,___fladd@b+2
  5710  00179C  C004  F02B         	movff	?___xxtofl+3,___fladd@b+3
  5711  0017A0  EC3E  F009         	call	___fladd	;wreg free
  5712  0017A4  C028  F048         	movff	?___fladd,_TMR4_DefaultInterruptHandler$5370
  5713  0017A8  C029  F049         	movff	?___fladd+1,_TMR4_DefaultInterruptHandler$5370+1
  5714  0017AC  C02A  F04A         	movff	?___fladd+2,_TMR4_DefaultInterruptHandler$5370+2
  5715  0017B0  C02B  F04B         	movff	?___fladd+3,_TMR4_DefaultInterruptHandler$5370+3
  5716                           
  5717                           ;tmr4.c: 276: dutyValue_D = (float) ancien_dutyValue_D + 21 * (float) Erreur_Vitesse_Mot
      +                          eur_D + -19 * (float) Ancienne_Erreur_Vitesse_Moteur_D;
  5718  0017B4  0E00               	movlw	0
  5719  0017B6  6E13               	movwf	___flmul@a,c
  5720  0017B8  0E00               	movlw	0
  5721  0017BA  6E14               	movwf	___flmul@a+1,c
  5722  0017BC  0E98               	movlw	152
  5723  0017BE  6E15               	movwf	___flmul@a+2,c
  5724  0017C0  0EC1               	movlw	193
  5725  0017C2  6E16               	movwf	___flmul@a+3,c
  5726  0017C4  C08B  F001         	movff	_Ancienne_Erreur_Vitesse_Moteur_D,___xxtofl@val
  5727  0017C8  C08C  F002         	movff	_Ancienne_Erreur_Vitesse_Moteur_D+1,___xxtofl@val+1
  5728  0017CC  0E00               	movlw	0
  5729  0017CE  BE02               	btfsc	___xxtofl@val+1,7,c
  5730  0017D0  0EFF               	movlw	-1
  5731  0017D2  6E03               	movwf	___xxtofl@val+2,c
  5732  0017D4  6E04               	movwf	___xxtofl@val+3,c
  5733  0017D6  0E01               	movlw	1
  5734  0017D8  EC62  F00E         	call	___xxtofl
  5735  0017DC  C001  F00F         	movff	?___xxtofl,___flmul@b
  5736  0017E0  C002  F010         	movff	?___xxtofl+1,___flmul@b+1
  5737  0017E4  C003  F011         	movff	?___xxtofl+2,___flmul@b+2
  5738  0017E8  C004  F012         	movff	?___xxtofl+3,___flmul@b+3
  5739  0017EC  EC96  F007         	call	___flmul	;wreg free
  5740  0017F0  C00F  F02C         	movff	?___flmul,___fladd@a
  5741  0017F4  C010  F02D         	movff	?___flmul+1,___fladd@a+1
  5742  0017F8  C011  F02E         	movff	?___flmul+2,___fladd@a+2
  5743  0017FC  C012  F02F         	movff	?___flmul+3,___fladd@a+3
  5744  001800  C048  F028         	movff	_TMR4_DefaultInterruptHandler$5370,___fladd@b
  5745  001804  C049  F029         	movff	_TMR4_DefaultInterruptHandler$5370+1,___fladd@b+1
  5746  001808  C04A  F02A         	movff	_TMR4_DefaultInterruptHandler$5370+2,___fladd@b+2
  5747  00180C  C04B  F02B         	movff	_TMR4_DefaultInterruptHandler$5370+3,___fladd@b+3
  5748  001810  EC3E  F009         	call	___fladd	;wreg free
  5749  001814  C028  F03C         	movff	?___fladd,___fltol@f1
  5750  001818  C029  F03D         	movff	?___fladd+1,___fltol@f1+1
  5751  00181C  C02A  F03E         	movff	?___fladd+2,___fltol@f1+2
  5752  001820  C02B  F03F         	movff	?___fladd+3,___fltol@f1+3
  5753  001824  EC06  F010         	call	___fltol	;wreg free
  5754  001828  C03C  F04C         	movff	?___fltol,_dutyValue_D
  5755  00182C  C03D  F04D         	movff	?___fltol+1,_dutyValue_D+1
  5756                           
  5757                           ;tmr4.c: 277: Ancienne_Erreur_Vitesse_Moteur_D = Erreur_Vitesse_Moteur_D;
  5758  001830  C08D  F08B         	movff	_Erreur_Vitesse_Moteur_D,_Ancienne_Erreur_Vitesse_Moteur_D
  5759  001834  C08E  F08C         	movff	_Erreur_Vitesse_Moteur_D+1,_Ancienne_Erreur_Vitesse_Moteur_D+1
  5760                           
  5761                           ;tmr4.c: 278: if (dutyValue_D > 800)
  5762  001838  BE4D               	btfsc	_dutyValue_D+1,7,c
  5763  00183A  D00A               	goto	i2l1468
  5764  00183C  0E21               	movlw	33
  5765  00183E  5C4C               	subwf	_dutyValue_D,w,c
  5766  001840  0E03               	movlw	3
  5767  001842  584D               	subwfb	_dutyValue_D+1,w,c
  5768  001844  A0D8               	btfss	status,0,c
  5769  001846  D004               	goto	i2l1468
  5770                           
  5771                           ;tmr4.c: 279: {dutyValue_D = 800;}
  5772  001848  0E03               	movlw	3
  5773  00184A  6E4D               	movwf	_dutyValue_D+1,c
  5774  00184C  0E20               	movlw	32
  5775  00184E  D005               	goto	L3
  5776  001850                     i2l1468:
  5777                           
  5778                           ;tmr4.c: 280: else if (dutyValue_D < 0)
  5779  001850  AE4D               	btfss	_dutyValue_D+1,7,c
  5780  001852  D004               	goto	i2l1470
  5781                           
  5782                           ;tmr4.c: 281: {dutyValue_D = 0;}
  5783  001854  0E00               	movlw	0
  5784  001856  6E4D               	movwf	_dutyValue_D+1,c
  5785  001858  0E00               	movlw	0
  5786  00185A                     L3:
  5787  00185A  6E4C               	movwf	_dutyValue_D,c
  5788  00185C                     i2l1470:
  5789                           
  5790                           ;tmr4.c: 282: ancien_dutyValue_D = dutyValue_D;
  5791  00185C  C04C  F0E8         	movff	_dutyValue_D,_ancien_dutyValue_D
  5792  001860  C04D  F0E9         	movff	_dutyValue_D+1,_ancien_dutyValue_D+1
  5793                           
  5794                           ;tmr4.c: 284: PWM2_LoadDutyValue( (int16_t) dutyValue_G );
  5795  001864  C04E  F001         	movff	_dutyValue_G,PWM2_LoadDutyValue@dutyValue
  5796  001868  C04F  F002         	movff	_dutyValue_G+1,PWM2_LoadDutyValue@dutyValue+1
  5797  00186C  EC36  F014         	call	_PWM2_LoadDutyValue	;wreg free
  5798                           
  5799                           ;tmr4.c: 285: PWM1_LoadDutyValue( (int16_t) dutyValue_D );
  5800  001870  C04C  F001         	movff	_dutyValue_D,PWM1_LoadDutyValue@dutyValue
  5801  001874  C04D  F002         	movff	_dutyValue_D+1,PWM1_LoadDutyValue@dutyValue+1
  5802  001878  EC4C  F014         	call	_PWM1_LoadDutyValue	;wreg free
  5803  00187C  0012               	return		;funcret
  5804  00187E                     __end_of_TMR4_DefaultInterruptHandler:
  5805                           	opt stack 0
  5806                           tosu	equ	0xFFF
  5807                           tosh	equ	0xFFE
  5808                           tosl	equ	0xFFD
  5809                           pclatu	equ	0xFFB
  5810                           pclath	equ	0xFFA
  5811                           tblptru	equ	0xFF8
  5812                           tblptrh	equ	0xFF7
  5813                           tblptrl	equ	0xFF6
  5814                           tablat	equ	0xFF5
  5815                           prodh	equ	0xFF4
  5816                           prodl	equ	0xFF3
  5817                           intcon	equ	0xFF2
  5818                           postinc0	equ	0xFEE
  5819                           fsr0h	equ	0xFEA
  5820                           fsr0l	equ	0xFE9
  5821                           wreg	equ	0xFE8
  5822                           postdec1	equ	0xFE5
  5823                           fsr1h	equ	0xFE2
  5824                           fsr1l	equ	0xFE1
  5825                           fsr2h	equ	0xFDA
  5826                           fsr2l	equ	0xFD9
  5827                           status	equ	0xFD8
  5828                           
  5829 ;; *************** function ___xxtofl *****************
  5830 ;; Defined at:
  5831 ;;		line 10 in file "C:\Program Files (x86)\Microchip\xc8\v1.45\sources\common\xxtofl.c"
  5832 ;; Parameters:    Size  Location     Type
  5833 ;;  sign            1    wreg     unsigned char 
  5834 ;;  val             4    0[COMRAM] long 
  5835 ;; Auto vars:     Size  Location     Type
  5836 ;;  sign            1    8[COMRAM] unsigned char 
  5837 ;;  arg             4   10[COMRAM] unsigned long 
  5838 ;;  exp             1    9[COMRAM] unsigned char 
  5839 ;; Return value:  Size  Location     Type
  5840 ;;                  4    0[COMRAM] unsigned char 
  5841 ;; Registers used:
  5842 ;;		wreg, status,2, status,0
  5843 ;; Tracked objects:
  5844 ;;		On entry : 0/0
  5845 ;;		On exit  : 0/0
  5846 ;;		Unchanged: 0/0
  5847 ;; Data sizes:     COMRAM   BANK0   BANK1   BANK2   BANK3   BANK4   BANK5   BANK6   BANK7   BANK8   BANK9  BANK10  BANK1
      +1  BANK12  BANK13  BANK14
  5848 ;;      Params:         4       0       0       0       0       0       0       0       0       0       0       0       
      +0       0       0       0
  5849 ;;      Locals:         6       0       0       0       0       0       0       0       0       0       0       0       
      +0       0       0       0
  5850 ;;      Temps:          4       0       0       0       0       0       0       0       0       0       0       0       
      +0       0       0       0
  5851 ;;      Totals:        14       0       0       0       0       0       0       0       0       0       0       0       
      +0       0       0       0
  5852 ;;Total ram usage:       14 bytes
  5853 ;; Hardware stack levels used:    1
  5854 ;; This function calls:
  5855 ;;		Nothing
  5856 ;; This function is called by:
  5857 ;;		_TMR4_DefaultInterruptHandler
  5858 ;; This function uses a non-reentrant model
  5859 ;;
  5860                           
  5861                           	psect	text44
  5862  001CC4                     __ptext44:
  5863                           	opt stack 0
  5864  001CC4                     ___xxtofl:
  5865                           	opt stack 23
  5866                           
  5867                           ;incstack = 0
  5868                           ;___xxtofl@sign stored from wreg
  5869  001CC4  6E09               	movwf	___xxtofl@sign,c
  5870  001CC6  5009               	movf	___xxtofl@sign,w,c
  5871  001CC8  A4D8               	btfss	status,2,c
  5872  001CCA  AE04               	btfss	___xxtofl@val+3,7,c
  5873  001CCC  D01A               	goto	i2l2379
  5874  001CCE  C001  F005         	movff	___xxtofl@val,??___xxtofl
  5875  001CD2  C002  F006         	movff	___xxtofl@val+1,??___xxtofl+1
  5876  001CD6  C003  F007         	movff	___xxtofl@val+2,??___xxtofl+2
  5877  001CDA  C004  F008         	movff	___xxtofl@val+3,??___xxtofl+3
  5878  001CDE  1E05               	comf	??___xxtofl,f,c
  5879  001CE0  1E06               	comf	??___xxtofl+1,f,c
  5880  001CE2  1E07               	comf	??___xxtofl+2,f,c
  5881  001CE4  1E08               	comf	??___xxtofl+3,f,c
  5882  001CE6  2A05               	incf	??___xxtofl,f,c
  5883  001CE8  0E00               	movlw	0
  5884  001CEA  2206               	addwfc	??___xxtofl+1,f,c
  5885  001CEC  2207               	addwfc	??___xxtofl+2,f,c
  5886  001CEE  2208               	addwfc	??___xxtofl+3,f,c
  5887  001CF0  C005  F00B         	movff	??___xxtofl,___xxtofl@arg
  5888  001CF4  C006  F00C         	movff	??___xxtofl+1,___xxtofl@arg+1
  5889  001CF8  C007  F00D         	movff	??___xxtofl+2,___xxtofl@arg+2
  5890  001CFC  C008  F00E         	movff	??___xxtofl+3,___xxtofl@arg+3
  5891  001D00  D008               	goto	i2l2380
  5892  001D02                     i2l2379:
  5893  001D02  C001  F00B         	movff	___xxtofl@val,___xxtofl@arg
  5894  001D06  C002  F00C         	movff	___xxtofl@val+1,___xxtofl@arg+1
  5895  001D0A  C003  F00D         	movff	___xxtofl@val+2,___xxtofl@arg+2
  5896  001D0E  C004  F00E         	movff	___xxtofl@val+3,___xxtofl@arg+3
  5897  001D12                     i2l2380:
  5898  001D12  5001               	movf	___xxtofl@val,w,c
  5899  001D14  1002               	iorwf	___xxtofl@val+1,w,c
  5900  001D16  1003               	iorwf	___xxtofl@val+2,w,c
  5901  001D18  1004               	iorwf	___xxtofl@val+3,w,c
  5902  001D1A  A4D8               	btfss	status,2,c
  5903  001D1C  D009               	goto	i2l2381
  5904  001D1E  0E00               	movlw	0
  5905  001D20  6E01               	movwf	?___xxtofl,c
  5906  001D22  0E00               	movlw	0
  5907  001D24  6E02               	movwf	?___xxtofl+1,c
  5908  001D26  0E00               	movlw	0
  5909  001D28  6E03               	movwf	?___xxtofl+2,c
  5910  001D2A  0E00               	movlw	0
  5911  001D2C  6E04               	movwf	?___xxtofl+3,c
  5912  001D2E  0012               	return	
  5913  001D30                     i2l2381:
  5914  001D30  0E96               	movlw	150
  5915  001D32  6E0A               	movwf	___xxtofl@exp,c
  5916  001D34  D006               	goto	i2l2383
  5917  001D36  2A0A               	incf	___xxtofl@exp,f,c
  5918  001D38  90D8               	bcf	status,0,c
  5919  001D3A  320E               	rrcf	___xxtofl@arg+3,f,c
  5920  001D3C  320D               	rrcf	___xxtofl@arg+2,f,c
  5921  001D3E  320C               	rrcf	___xxtofl@arg+1,f,c
  5922  001D40  320B               	rrcf	___xxtofl@arg,f,c
  5923  001D42                     i2l2383:
  5924  001D42  0E00               	movlw	0
  5925  001D44  140B               	andwf	___xxtofl@arg,w,c
  5926  001D46  6E05               	movwf	??___xxtofl& (0+255),c
  5927  001D48  0E00               	movlw	0
  5928  001D4A  140C               	andwf	___xxtofl@arg+1,w,c
  5929  001D4C  6E06               	movwf	(??___xxtofl+1)& (0+255),c
  5930  001D4E  0E00               	movlw	0
  5931  001D50  140D               	andwf	___xxtofl@arg+2,w,c
  5932  001D52  6E07               	movwf	(??___xxtofl+2)& (0+255),c
  5933  001D54  0EFE               	movlw	254
  5934  001D56  140E               	andwf	___xxtofl@arg+3,w,c
  5935  001D58  6E08               	movwf	(??___xxtofl+3)& (0+255),c
  5936  001D5A  5005               	movf	??___xxtofl,w,c
  5937  001D5C  1006               	iorwf	??___xxtofl+1,w,c
  5938  001D5E  1007               	iorwf	??___xxtofl+2,w,c
  5939  001D60  1008               	iorwf	??___xxtofl+3,w,c
  5940  001D62  B4D8               	btfsc	status,2,c
  5941  001D64  D00D               	goto	i2l2386
  5942  001D66  D7E7               	goto	i2l2384
  5943  001D68  2A0A               	incf	___xxtofl@exp,f,c
  5944  001D6A  0E01               	movlw	1
  5945  001D6C  260B               	addwf	___xxtofl@arg,f,c
  5946  001D6E  0E00               	movlw	0
  5947  001D70  220C               	addwfc	___xxtofl@arg+1,f,c
  5948  001D72  220D               	addwfc	___xxtofl@arg+2,f,c
  5949  001D74  220E               	addwfc	___xxtofl@arg+3,f,c
  5950  001D76  90D8               	bcf	status,0,c
  5951  001D78  320E               	rrcf	___xxtofl@arg+3,f,c
  5952  001D7A  320D               	rrcf	___xxtofl@arg+2,f,c
  5953  001D7C  320C               	rrcf	___xxtofl@arg+1,f,c
  5954  001D7E  320B               	rrcf	___xxtofl@arg,f,c
  5955  001D80                     i2l2386:
  5956  001D80  0E00               	movlw	0
  5957  001D82  140B               	andwf	___xxtofl@arg,w,c
  5958  001D84  6E05               	movwf	??___xxtofl& (0+255),c
  5959  001D86  0E00               	movlw	0
  5960  001D88  140C               	andwf	___xxtofl@arg+1,w,c
  5961  001D8A  6E06               	movwf	(??___xxtofl+1)& (0+255),c
  5962  001D8C  0E00               	movlw	0
  5963  001D8E  140D               	andwf	___xxtofl@arg+2,w,c
  5964  001D90  6E07               	movwf	(??___xxtofl+2)& (0+255),c
  5965  001D92  0EFF               	movlw	255
  5966  001D94  140E               	andwf	___xxtofl@arg+3,w,c
  5967  001D96  6E08               	movwf	(??___xxtofl+3)& (0+255),c
  5968  001D98  5005               	movf	??___xxtofl,w,c
  5969  001D9A  1006               	iorwf	??___xxtofl+1,w,c
  5970  001D9C  1007               	iorwf	??___xxtofl+2,w,c
  5971  001D9E  1008               	iorwf	??___xxtofl+3,w,c
  5972  001DA0  B4D8               	btfsc	status,2,c
  5973  001DA2  D007               	goto	i2l2389
  5974  001DA4  D7E1               	goto	i2l2387
  5975  001DA6  060A               	decf	___xxtofl@exp,f,c
  5976  001DA8  90D8               	bcf	status,0,c
  5977  001DAA  360B               	rlcf	___xxtofl@arg,f,c
  5978  001DAC  360C               	rlcf	___xxtofl@arg+1,f,c
  5979  001DAE  360D               	rlcf	___xxtofl@arg+2,f,c
  5980  001DB0  360E               	rlcf	___xxtofl@arg+3,f,c
  5981  001DB2                     i2l2389:
  5982  001DB2  BE0D               	btfsc	___xxtofl@arg+2,7,c
  5983  001DB4  D003               	goto	i2u449_40
  5984  001DB6  0E02               	movlw	2
  5985  001DB8  600A               	cpfslt	___xxtofl@exp,c
  5986  001DBA  D7F5               	goto	i2l2390
  5987  001DBC                     i2u449_40:
  5988  001DBC  B00A               	btfsc	___xxtofl@exp,0,c
  5989  001DBE  D008               	goto	i2l2394
  5990  001DC0  0EFF               	movlw	255
  5991  001DC2  160B               	andwf	___xxtofl@arg,f,c
  5992  001DC4  0EFF               	movlw	255
  5993  001DC6  160C               	andwf	___xxtofl@arg+1,f,c
  5994  001DC8  0E7F               	movlw	127
  5995  001DCA  160D               	andwf	___xxtofl@arg+2,f,c
  5996  001DCC  0EFF               	movlw	255
  5997  001DCE  160E               	andwf	___xxtofl@arg+3,f,c
  5998  001DD0                     i2l2394:
  5999  001DD0  90D8               	bcf	status,0,c
  6000  001DD2  320A               	rrcf	___xxtofl@exp,f,c
  6001  001DD4  C00A  F005         	movff	___xxtofl@exp,??___xxtofl
  6002  001DD8  6A06               	clrf	(??___xxtofl+1)& (0+255),c
  6003  001DDA  6A07               	clrf	(??___xxtofl+2)& (0+255),c
  6004  001DDC  6A08               	clrf	(??___xxtofl+3)& (0+255),c
  6005  001DDE  C005  F008         	movff	??___xxtofl,??___xxtofl+3
  6006  001DE2  6A07               	clrf	??___xxtofl+2,c
  6007  001DE4  6A06               	clrf	??___xxtofl+1,c
  6008  001DE6  6A05               	clrf	??___xxtofl,c
  6009  001DE8  5005               	movf	??___xxtofl,w,c
  6010  001DEA  120B               	iorwf	___xxtofl@arg,f,c
  6011  001DEC  5006               	movf	??___xxtofl+1,w,c
  6012  001DEE  120C               	iorwf	___xxtofl@arg+1,f,c
  6013  001DF0  5007               	movf	??___xxtofl+2,w,c
  6014  001DF2  120D               	iorwf	___xxtofl@arg+2,f,c
  6015  001DF4  5008               	movf	??___xxtofl+3,w,c
  6016  001DF6  120E               	iorwf	___xxtofl@arg+3,f,c
  6017  001DF8  5009               	movf	___xxtofl@sign,w,c
  6018  001DFA  A4D8               	btfss	status,2,c
  6019  001DFC  AE04               	btfss	___xxtofl@val+3,7,c
  6020  001DFE  D001               	goto	i2l2395
  6021  001E00  8E0E               	bsf	___xxtofl@arg+3,7,c
  6022  001E02                     i2l2395:
  6023  001E02  C00B  F001         	movff	___xxtofl@arg,?___xxtofl
  6024  001E06  C00C  F002         	movff	___xxtofl@arg+1,?___xxtofl+1
  6025  001E0A  C00D  F003         	movff	___xxtofl@arg+2,?___xxtofl+2
  6026  001E0E  C00E  F004         	movff	___xxtofl@arg+3,?___xxtofl+3
  6027  001E12  0012               	return	
  6028  001E14                     __end_of___xxtofl:
  6029                           	opt stack 0
  6030                           tosu	equ	0xFFF
  6031                           tosh	equ	0xFFE
  6032                           tosl	equ	0xFFD
  6033                           pclatu	equ	0xFFB
  6034                           pclath	equ	0xFFA
  6035                           tblptru	equ	0xFF8
  6036                           tblptrh	equ	0xFF7
  6037                           tblptrl	equ	0xFF6
  6038                           tablat	equ	0xFF5
  6039                           prodh	equ	0xFF4
  6040                           prodl	equ	0xFF3
  6041                           intcon	equ	0xFF2
  6042                           postinc0	equ	0xFEE
  6043                           fsr0h	equ	0xFEA
  6044                           fsr0l	equ	0xFE9
  6045                           wreg	equ	0xFE8
  6046                           postdec1	equ	0xFE5
  6047                           fsr1h	equ	0xFE2
  6048                           fsr1l	equ	0xFE1
  6049                           fsr2h	equ	0xFDA
  6050                           fsr2l	equ	0xFD9
  6051                           status	equ	0xFD8
  6052                           
  6053 ;; *************** function ___fltol *****************
  6054 ;; Defined at:
  6055 ;;		line 43 in file "C:\Program Files (x86)\Microchip\xc8\v1.45\sources\common\fltol.c"
  6056 ;; Parameters:    Size  Location     Type
  6057 ;;  f1              4   59[COMRAM] unsigned char 
  6058 ;; Auto vars:     Size  Location     Type
  6059 ;;  exp1            1   68[COMRAM] unsigned char 
  6060 ;;  sign1           1   67[COMRAM] unsigned char 
  6061 ;; Return value:  Size  Location     Type
  6062 ;;                  4   59[COMRAM] long 
  6063 ;; Registers used:
  6064 ;;		wreg, status,2, status,0
  6065 ;; Tracked objects:
  6066 ;;		On entry : 0/0
  6067 ;;		On exit  : 0/0
  6068 ;;		Unchanged: 0/0
  6069 ;; Data sizes:     COMRAM   BANK0   BANK1   BANK2   BANK3   BANK4   BANK5   BANK6   BANK7   BANK8   BANK9  BANK10  BANK1
      +1  BANK12  BANK13  BANK14
  6070 ;;      Params:         4       0       0       0       0       0       0       0       0       0       0       0       
      +0       0       0       0
  6071 ;;      Locals:         2       0       0       0       0       0       0       0       0       0       0       0       
      +0       0       0       0
  6072 ;;      Temps:          4       0       0       0       0       0       0       0       0       0       0       0       
      +0       0       0       0
  6073 ;;      Totals:        10       0       0       0       0       0       0       0       0       0       0       0       
      +0       0       0       0
  6074 ;;Total ram usage:       10 bytes
  6075 ;; Hardware stack levels used:    1
  6076 ;; This function calls:
  6077 ;;		Nothing
  6078 ;; This function is called by:
  6079 ;;		_TMR4_DefaultInterruptHandler
  6080 ;;		_VL53L0X_SetSignalRateLimit
  6081 ;; This function uses a non-reentrant model
  6082 ;;
  6083                           
  6084                           	psect	text45
  6085  00200C                     __ptext45:
  6086                           	opt stack 0
  6087  00200C                     ___fltol:
  6088                           	opt stack 23
  6089                           
  6090                           ;incstack = 0
  6091  00200C  343E               	rlcf	___fltol@f1+2,w,c
  6092  00200E  343F               	rlcf	___fltol@f1+3,w,c
  6093  002010  6E45               	movwf	___fltol@exp1,c
  6094  002012  5045               	movf	___fltol@exp1,w,c
  6095  002014  A4D8               	btfss	status,2,c
  6096  002016  D009               	goto	i2l2061
  6097  002018  0E00               	movlw	0
  6098  00201A  6E3C               	movwf	?___fltol,c
  6099  00201C  0E00               	movlw	0
  6100  00201E  6E3D               	movwf	?___fltol+1,c
  6101  002020  0E00               	movlw	0
  6102  002022  6E3E               	movwf	?___fltol+2,c
  6103  002024  0E00               	movlw	0
  6104  002026  6E3F               	movwf	?___fltol+3,c
  6105  002028  0012               	return	
  6106  00202A                     i2l2061:
  6107  00202A  C03C  F040         	movff	___fltol@f1,??___fltol
  6108  00202E  C03D  F041         	movff	___fltol@f1+1,??___fltol+1
  6109  002032  C03E  F042         	movff	___fltol@f1+2,??___fltol+2
  6110  002036  C03F  F043         	movff	___fltol@f1+3,??___fltol+3
  6111  00203A  0E20               	movlw	32
  6112  00203C  D005               	goto	i2u437_40
  6113  00203E                     i2u437_45:
  6114  00203E  90D8               	bcf	status,0,c
  6115  002040  3243               	rrcf	??___fltol+3,f,c
  6116  002042  3242               	rrcf	??___fltol+2,f,c
  6117  002044  3241               	rrcf	??___fltol+1,f,c
  6118  002046  3240               	rrcf	??___fltol,f,c
  6119  002048                     i2u437_40:
  6120  002048  2EE8               	decfsz	wreg,f,c
  6121  00204A  D7F9               	goto	i2u437_45
  6122  00204C  5040               	movf	??___fltol,w,c
  6123  00204E  6E44               	movwf	___fltol@sign1,c
  6124  002050  8E3E               	bsf	___fltol@f1+2,7,c
  6125  002052  0EFF               	movlw	255
  6126  002054  163C               	andwf	___fltol@f1,f,c
  6127  002056  0EFF               	movlw	255
  6128  002058  163D               	andwf	___fltol@f1+1,f,c
  6129  00205A  0EFF               	movlw	255
  6130  00205C  163E               	andwf	___fltol@f1+2,f,c
  6131  00205E  0E00               	movlw	0
  6132  002060  163F               	andwf	___fltol@f1+3,f,c
  6133  002062  0E96               	movlw	150
  6134  002064  5E45               	subwf	___fltol@exp1,f,c
  6135  002066  AE45               	btfss	___fltol@exp1,7,c
  6136  002068  D016               	goto	i2l2063
  6137  00206A  5045               	movf	___fltol@exp1,w,c
  6138  00206C  0A80               	xorlw	128
  6139  00206E  0F97               	addlw	151
  6140  002070  B0D8               	btfsc	status,0,c
  6141  002072  D009               	goto	i2l2064
  6142  002074  0E00               	movlw	0
  6143  002076  6E3C               	movwf	?___fltol,c
  6144  002078  0E00               	movlw	0
  6145  00207A  6E3D               	movwf	?___fltol+1,c
  6146  00207C  0E00               	movlw	0
  6147  00207E  6E3E               	movwf	?___fltol+2,c
  6148  002080  0E00               	movlw	0
  6149  002082  6E3F               	movwf	?___fltol+3,c
  6150  002084  0012               	return	
  6151  002086                     i2l2064:
  6152  002086  90D8               	bcf	status,0,c
  6153  002088  323F               	rrcf	___fltol@f1+3,f,c
  6154  00208A  323E               	rrcf	___fltol@f1+2,f,c
  6155  00208C  323D               	rrcf	___fltol@f1+1,f,c
  6156  00208E  323C               	rrcf	___fltol@f1,f,c
  6157  002090  3E45               	incfsz	___fltol@exp1,f,c
  6158  002092  D7F9               	goto	i2l2064
  6159  002094  D015               	goto	i2u441_40
  6160  002096                     i2l2063:
  6161  002096  0E1F               	movlw	31
  6162  002098  6445               	cpfsgt	___fltol@exp1,c
  6163  00209A  D00F               	goto	i2l2069
  6164  00209C  0E00               	movlw	0
  6165  00209E  6E3C               	movwf	?___fltol,c
  6166  0020A0  0E00               	movlw	0
  6167  0020A2  6E3D               	movwf	?___fltol+1,c
  6168  0020A4  0E00               	movlw	0
  6169  0020A6  6E3E               	movwf	?___fltol+2,c
  6170  0020A8  0E00               	movlw	0
  6171  0020AA  6E3F               	movwf	?___fltol+3,c
  6172  0020AC  0012               	return	
  6173  0020AE  90D8               	bcf	status,0,c
  6174  0020B0  363C               	rlcf	___fltol@f1,f,c
  6175  0020B2  363D               	rlcf	___fltol@f1+1,f,c
  6176  0020B4  363E               	rlcf	___fltol@f1+2,f,c
  6177  0020B6  363F               	rlcf	___fltol@f1+3,f,c
  6178  0020B8  0645               	decf	___fltol@exp1,f,c
  6179  0020BA                     i2l2069:
  6180  0020BA  5045               	movf	___fltol@exp1,w,c
  6181  0020BC  A4D8               	btfss	status,2,c
  6182  0020BE  D7F7               	goto	i2l2070
  6183  0020C0                     i2u441_40:
  6184  0020C0  5044               	movf	___fltol@sign1,w,c
  6185  0020C2  B4D8               	btfsc	status,2,c
  6186  0020C4  D008               	goto	i2l2072
  6187  0020C6  1E3F               	comf	___fltol@f1+3,f,c
  6188  0020C8  1E3E               	comf	___fltol@f1+2,f,c
  6189  0020CA  1E3D               	comf	___fltol@f1+1,f,c
  6190  0020CC  6C3C               	negf	___fltol@f1,c
  6191  0020CE  0E00               	movlw	0
  6192  0020D0  223D               	addwfc	___fltol@f1+1,f,c
  6193  0020D2  223E               	addwfc	___fltol@f1+2,f,c
  6194  0020D4  223F               	addwfc	___fltol@f1+3,f,c
  6195  0020D6                     i2l2072:
  6196  0020D6  C03C  F03C         	movff	___fltol@f1,?___fltol
  6197  0020DA  C03D  F03D         	movff	___fltol@f1+1,?___fltol+1
  6198  0020DE  C03E  F03E         	movff	___fltol@f1+2,?___fltol+2
  6199  0020E2  C03F  F03F         	movff	___fltol@f1+3,?___fltol+3
  6200  0020E6  0012               	return	
  6201  0020E8                     __end_of___fltol:
  6202                           	opt stack 0
  6203                           tosu	equ	0xFFF
  6204                           tosh	equ	0xFFE
  6205                           tosl	equ	0xFFD
  6206                           pclatu	equ	0xFFB
  6207                           pclath	equ	0xFFA
  6208                           tblptru	equ	0xFF8
  6209                           tblptrh	equ	0xFF7
  6210                           tblptrl	equ	0xFF6
  6211                           tablat	equ	0xFF5
  6212                           prodh	equ	0xFF4
  6213                           prodl	equ	0xFF3
  6214                           intcon	equ	0xFF2
  6215                           postinc0	equ	0xFEE
  6216                           fsr0h	equ	0xFEA
  6217                           fsr0l	equ	0xFE9
  6218                           wreg	equ	0xFE8
  6219                           postdec1	equ	0xFE5
  6220                           fsr1h	equ	0xFE2
  6221                           fsr1l	equ	0xFE1
  6222                           fsr2h	equ	0xFDA
  6223                           fsr2l	equ	0xFD9
  6224                           status	equ	0xFD8
  6225                           
  6226 ;; *************** function ___flmul *****************
  6227 ;; Defined at:
  6228 ;;		line 8 in file "C:\Program Files (x86)\Microchip\xc8\v1.45\sources\common\sprcmul.c"
  6229 ;; Parameters:    Size  Location     Type
  6230 ;;  b               4   14[COMRAM] long 
  6231 ;;  a               4   18[COMRAM] long 
  6232 ;; Auto vars:     Size  Location     Type
  6233 ;;  prod            4   33[COMRAM] struct .
  6234 ;;  grs             4   27[COMRAM] unsigned long 
  6235 ;;  temp            2   37[COMRAM] struct .
  6236 ;;  bexp            1   32[COMRAM] unsigned char 
  6237 ;;  aexp            1   31[COMRAM] unsigned char 
  6238 ;;  sign            1   26[COMRAM] unsigned char 
  6239 ;; Return value:  Size  Location     Type
  6240 ;;                  4   14[COMRAM] unsigned char 
  6241 ;; Registers used:
  6242 ;;		wreg, status,2, status,0, prodl, prodh
  6243 ;; Tracked objects:
  6244 ;;		On entry : 0/0
  6245 ;;		On exit  : 0/0
  6246 ;;		Unchanged: 0/0
  6247 ;; Data sizes:     COMRAM   BANK0   BANK1   BANK2   BANK3   BANK4   BANK5   BANK6   BANK7   BANK8   BANK9  BANK10  BANK1
      +1  BANK12  BANK13  BANK14
  6248 ;;      Params:         8       0       0       0       0       0       0       0       0       0       0       0       
      +0       0       0       0
  6249 ;;      Locals:        13       0       0       0       0       0       0       0       0       0       0       0       
      +0       0       0       0
  6250 ;;      Temps:          4       0       0       0       0       0       0       0       0       0       0       0       
      +0       0       0       0
  6251 ;;      Totals:        25       0       0       0       0       0       0       0       0       0       0       0       
      +0       0       0       0
  6252 ;;Total ram usage:       25 bytes
  6253 ;; Hardware stack levels used:    1
  6254 ;; This function calls:
  6255 ;;		Nothing
  6256 ;; This function is called by:
  6257 ;;		_TMR4_DefaultInterruptHandler
  6258 ;;		_VL53L0X_SetSignalRateLimit
  6259 ;; This function uses a non-reentrant model
  6260 ;;
  6261                           
  6262                           	psect	text46
  6263  000F2C                     __ptext46:
  6264                           	opt stack 0
  6265  000F2C                     ___flmul:
  6266                           	opt stack 23
  6267                           
  6268                           ;incstack = 0
  6269  000F2C  5012               	movf	___flmul@b+3,w,c
  6270  000F2E  0B80               	andlw	128
  6271  000F30  6E1B               	movwf	___flmul@sign,c
  6272  000F32  5012               	movf	___flmul@b+3,w,c
  6273  000F34  2412               	addwf	___flmul@b+3,w,c
  6274  000F36  6E21               	movwf	___flmul@bexp,c
  6275  000F38  BE11               	btfsc	___flmul@b+2,7,c
  6276  000F3A  8021               	bsf	___flmul@bexp,0,c
  6277  000F3C  5021               	movf	___flmul@bexp,w,c
  6278  000F3E  B4D8               	btfsc	status,2,c
  6279  000F40  D00D               	goto	i2l2351
  6280  000F42  2821               	incf	___flmul@bexp,w,c
  6281  000F44  A4D8               	btfss	status,2,c
  6282  000F46  D008               	goto	i2l2352
  6283  000F48  0E00               	movlw	0
  6284  000F4A  6E0F               	movwf	___flmul@b,c
  6285  000F4C  0E00               	movlw	0
  6286  000F4E  6E10               	movwf	___flmul@b+1,c
  6287  000F50  0E00               	movlw	0
  6288  000F52  6E11               	movwf	___flmul@b+2,c
  6289  000F54  0E00               	movlw	0
  6290  000F56  6E12               	movwf	___flmul@b+3,c
  6291  000F58                     i2l2352:
  6292  000F58  8E11               	bsf	___flmul@b+2,7,c
  6293  000F5A  D008               	goto	i2l2353
  6294  000F5C                     i2l2351:
  6295  000F5C  0E00               	movlw	0
  6296  000F5E  6E0F               	movwf	___flmul@b,c
  6297  000F60  0E00               	movlw	0
  6298  000F62  6E10               	movwf	___flmul@b+1,c
  6299  000F64  0E00               	movlw	0
  6300  000F66  6E11               	movwf	___flmul@b+2,c
  6301  000F68  0E00               	movlw	0
  6302  000F6A  6E12               	movwf	___flmul@b+3,c
  6303  000F6C                     i2l2353:
  6304  000F6C  5016               	movf	___flmul@a+3,w,c
  6305  000F6E  0B80               	andlw	128
  6306  000F70  1A1B               	xorwf	___flmul@sign,f,c
  6307  000F72  5016               	movf	___flmul@a+3,w,c
  6308  000F74  2416               	addwf	___flmul@a+3,w,c
  6309  000F76  6E20               	movwf	___flmul@aexp,c
  6310  000F78  BE15               	btfsc	___flmul@a+2,7,c
  6311  000F7A  8020               	bsf	___flmul@aexp,0,c
  6312  000F7C  5020               	movf	___flmul@aexp,w,c
  6313  000F7E  B4D8               	btfsc	status,2,c
  6314  000F80  D00D               	goto	i2l2355
  6315  000F82  2820               	incf	___flmul@aexp,w,c
  6316  000F84  A4D8               	btfss	status,2,c
  6317  000F86  D008               	goto	i2l2356
  6318  000F88  0E00               	movlw	0
  6319  000F8A  6E13               	movwf	___flmul@a,c
  6320  000F8C  0E00               	movlw	0
  6321  000F8E  6E14               	movwf	___flmul@a+1,c
  6322  000F90  0E00               	movlw	0
  6323  000F92  6E15               	movwf	___flmul@a+2,c
  6324  000F94  0E00               	movlw	0
  6325  000F96  6E16               	movwf	___flmul@a+3,c
  6326  000F98                     i2l2356:
  6327  000F98  8E15               	bsf	___flmul@a+2,7,c
  6328  000F9A  D008               	goto	i2l2357
  6329  000F9C                     i2l2355:
  6330  000F9C  0E00               	movlw	0
  6331  000F9E  6E13               	movwf	___flmul@a,c
  6332  000FA0  0E00               	movlw	0
  6333  000FA2  6E14               	movwf	___flmul@a+1,c
  6334  000FA4  0E00               	movlw	0
  6335  000FA6  6E15               	movwf	___flmul@a+2,c
  6336  000FA8  0E00               	movlw	0
  6337  000FAA  6E16               	movwf	___flmul@a+3,c
  6338  000FAC                     i2l2357:
  6339  000FAC  5020               	movf	___flmul@aexp,w,c
  6340  000FAE  B4D8               	btfsc	status,2,c
  6341  000FB0  D003               	goto	i2u424_40
  6342  000FB2  5021               	movf	___flmul@bexp,w,c
  6343  000FB4  A4D8               	btfss	status,2,c
  6344  000FB6  D009               	goto	i2l2358
  6345  000FB8                     i2u424_40:
  6346  000FB8  0E00               	movlw	0
  6347  000FBA  6E0F               	movwf	?___flmul,c
  6348  000FBC  0E00               	movlw	0
  6349  000FBE  6E10               	movwf	?___flmul+1,c
  6350  000FC0  0E00               	movlw	0
  6351  000FC2  6E11               	movwf	?___flmul+2,c
  6352  000FC4  0E00               	movlw	0
  6353  000FC6  6E12               	movwf	?___flmul+3,c
  6354  000FC8  0012               	return	
  6355  000FCA                     i2l2358:
  6356  000FCA  5015               	movf	___flmul@a+2,w,c
  6357  000FCC  020F               	mulwf	___flmul@b,c
  6358  000FCE  CFF3 F026          	movff	prodl,___flmul@temp
  6359  000FD2  CFF4 F027          	movff	prodh,___flmul@temp+1
  6360  000FD6  5026               	movf	___flmul@temp,w,c
  6361  000FD8  6E1C               	movwf	___flmul@grs,c
  6362  000FDA  6A1D               	clrf	___flmul@grs+1,c
  6363  000FDC  6A1E               	clrf	___flmul@grs+2,c
  6364  000FDE  6A1F               	clrf	___flmul@grs+3,c
  6365  000FE0  5027               	movf	___flmul@temp+1,w,c
  6366  000FE2  6E22               	movwf	___flmul@prod,c
  6367  000FE4  6A23               	clrf	___flmul@prod+1,c
  6368  000FE6  6A24               	clrf	___flmul@prod+2,c
  6369  000FE8  6A25               	clrf	___flmul@prod+3,c
  6370  000FEA  5014               	movf	___flmul@a+1,w,c
  6371  000FEC  0210               	mulwf	___flmul@b+1,c
  6372  000FEE  CFF3 F026          	movff	prodl,___flmul@temp
  6373  000FF2  CFF4 F027          	movff	prodh,___flmul@temp+1
  6374  000FF6  5026               	movf	___flmul@temp,w,c
  6375  000FF8  261C               	addwf	___flmul@grs,f,c
  6376  000FFA  0E00               	movlw	0
  6377  000FFC  221D               	addwfc	___flmul@grs+1,f,c
  6378  000FFE  221E               	addwfc	___flmul@grs+2,f,c
  6379  001000  221F               	addwfc	___flmul@grs+3,f,c
  6380  001002  5027               	movf	___flmul@temp+1,w,c
  6381  001004  2622               	addwf	___flmul@prod,f,c
  6382  001006  0E00               	movlw	0
  6383  001008  2223               	addwfc	___flmul@prod+1,f,c
  6384  00100A  2224               	addwfc	___flmul@prod+2,f,c
  6385  00100C  2225               	addwfc	___flmul@prod+3,f,c
  6386  00100E  5013               	movf	___flmul@a,w,c
  6387  001010  0211               	mulwf	___flmul@b+2,c
  6388  001012  CFF3 F026          	movff	prodl,___flmul@temp
  6389  001016  CFF4 F027          	movff	prodh,___flmul@temp+1
  6390  00101A  5026               	movf	___flmul@temp,w,c
  6391  00101C  261C               	addwf	___flmul@grs,f,c
  6392  00101E  0E00               	movlw	0
  6393  001020  221D               	addwfc	___flmul@grs+1,f,c
  6394  001022  221E               	addwfc	___flmul@grs+2,f,c
  6395  001024  221F               	addwfc	___flmul@grs+3,f,c
  6396  001026  5027               	movf	___flmul@temp+1,w,c
  6397  001028  2622               	addwf	___flmul@prod,f,c
  6398  00102A  0E00               	movlw	0
  6399  00102C  2223               	addwfc	___flmul@prod+1,f,c
  6400  00102E  2224               	addwfc	___flmul@prod+2,f,c
  6401  001030  2225               	addwfc	___flmul@prod+3,f,c
  6402  001032  C01E  F01F         	movff	___flmul@grs+2,___flmul@grs+3
  6403  001036  C01D  F01E         	movff	___flmul@grs+1,___flmul@grs+2
  6404  00103A  C01C  F01D         	movff	___flmul@grs,___flmul@grs+1
  6405  00103E  6A1C               	clrf	___flmul@grs,c
  6406  001040  5013               	movf	___flmul@a,w,c
  6407  001042  0210               	mulwf	___flmul@b+1,c
  6408  001044  CFF3 F026          	movff	prodl,___flmul@temp
  6409  001048  CFF4 F027          	movff	prodh,___flmul@temp+1
  6410  00104C  5026               	movf	___flmul@temp,w,c
  6411  00104E  261C               	addwf	___flmul@grs,f,c
  6412  001050  5027               	movf	___flmul@temp+1,w,c
  6413  001052  221D               	addwfc	___flmul@grs+1,f,c
  6414  001054  0E00               	movlw	0
  6415  001056  221E               	addwfc	___flmul@grs+2,f,c
  6416  001058  0E00               	movlw	0
  6417  00105A  221F               	addwfc	___flmul@grs+3,f,c
  6418  00105C  5014               	movf	___flmul@a+1,w,c
  6419  00105E  020F               	mulwf	___flmul@b,c
  6420  001060  CFF3 F026          	movff	prodl,___flmul@temp
  6421  001064  CFF4 F027          	movff	prodh,___flmul@temp+1
  6422  001068  5026               	movf	___flmul@temp,w,c
  6423  00106A  261C               	addwf	___flmul@grs,f,c
  6424  00106C  5027               	movf	___flmul@temp+1,w,c
  6425  00106E  221D               	addwfc	___flmul@grs+1,f,c
  6426  001070  0E00               	movlw	0
  6427  001072  221E               	addwfc	___flmul@grs+2,f,c
  6428  001074  0E00               	movlw	0
  6429  001076  221F               	addwfc	___flmul@grs+3,f,c
  6430  001078  C01E  F01F         	movff	___flmul@grs+2,___flmul@grs+3
  6431  00107C  C01D  F01E         	movff	___flmul@grs+1,___flmul@grs+2
  6432  001080  C01C  F01D         	movff	___flmul@grs,___flmul@grs+1
  6433  001084  6A1C               	clrf	___flmul@grs,c
  6434  001086  5013               	movf	___flmul@a,w,c
  6435  001088  020F               	mulwf	___flmul@b,c
  6436  00108A  CFF3 F026          	movff	prodl,___flmul@temp
  6437  00108E  CFF4 F027          	movff	prodh,___flmul@temp+1
  6438  001092  5026               	movf	___flmul@temp,w,c
  6439  001094  261C               	addwf	___flmul@grs,f,c
  6440  001096  5027               	movf	___flmul@temp+1,w,c
  6441  001098  221D               	addwfc	___flmul@grs+1,f,c
  6442  00109A  0E00               	movlw	0
  6443  00109C  221E               	addwfc	___flmul@grs+2,f,c
  6444  00109E  0E00               	movlw	0
  6445  0010A0  221F               	addwfc	___flmul@grs+3,f,c
  6446  0010A2  5015               	movf	___flmul@a+2,w,c
  6447  0010A4  0210               	mulwf	___flmul@b+1,c
  6448  0010A6  CFF3 F026          	movff	prodl,___flmul@temp
  6449  0010AA  CFF4 F027          	movff	prodh,___flmul@temp+1
  6450  0010AE  5026               	movf	___flmul@temp,w,c
  6451  0010B0  2622               	addwf	___flmul@prod,f,c
  6452  0010B2  5027               	movf	___flmul@temp+1,w,c
  6453  0010B4  2223               	addwfc	___flmul@prod+1,f,c
  6454  0010B6  0E00               	movlw	0
  6455  0010B8  2224               	addwfc	___flmul@prod+2,f,c
  6456  0010BA  0E00               	movlw	0
  6457  0010BC  2225               	addwfc	___flmul@prod+3,f,c
  6458  0010BE  5014               	movf	___flmul@a+1,w,c
  6459  0010C0  0211               	mulwf	___flmul@b+2,c
  6460  0010C2  CFF3 F026          	movff	prodl,___flmul@temp
  6461  0010C6  CFF4 F027          	movff	prodh,___flmul@temp+1
  6462  0010CA  5026               	movf	___flmul@temp,w,c
  6463  0010CC  2622               	addwf	___flmul@prod,f,c
  6464  0010CE  5027               	movf	___flmul@temp+1,w,c
  6465  0010D0  2223               	addwfc	___flmul@prod+1,f,c
  6466  0010D2  0E00               	movlw	0
  6467  0010D4  2224               	addwfc	___flmul@prod+2,f,c
  6468  0010D6  0E00               	movlw	0
  6469  0010D8  2225               	addwfc	___flmul@prod+3,f,c
  6470  0010DA  5015               	movf	___flmul@a+2,w,c
  6471  0010DC  0211               	mulwf	___flmul@b+2,c
  6472  0010DE  CFF3 F026          	movff	prodl,___flmul@temp
  6473  0010E2  CFF4 F027          	movff	prodh,___flmul@temp+1
  6474  0010E6  5026               	movf	___flmul@temp,w,c
  6475  0010E8  6E17               	movwf	??___flmul& (0+255),c
  6476  0010EA  5027               	movf	___flmul@temp+1,w,c
  6477  0010EC  6E18               	movwf	(??___flmul+1)& (0+255),c
  6478  0010EE  6A19               	clrf	(??___flmul+2)& (0+255),c
  6479  0010F0  6A1A               	clrf	(??___flmul+3)& (0+255),c
  6480  0010F2  C019  F01A         	movff	??___flmul+2,??___flmul+3
  6481  0010F6  C018  F019         	movff	??___flmul+1,??___flmul+2
  6482  0010FA  C017  F018         	movff	??___flmul,??___flmul+1
  6483  0010FE  6A17               	clrf	??___flmul,c
  6484  001100  5017               	movf	??___flmul,w,c
  6485  001102  2622               	addwf	___flmul@prod,f,c
  6486  001104  5018               	movf	??___flmul+1,w,c
  6487  001106  2223               	addwfc	___flmul@prod+1,f,c
  6488  001108  5019               	movf	??___flmul+2,w,c
  6489  00110A  2224               	addwfc	___flmul@prod+2,f,c
  6490  00110C  501A               	movf	??___flmul+3,w,c
  6491  00110E  2225               	addwfc	___flmul@prod+3,f,c
  6492  001110  C01C  F017         	movff	___flmul@grs,??___flmul
  6493  001114  C01D  F018         	movff	___flmul@grs+1,??___flmul+1
  6494  001118  C01E  F019         	movff	___flmul@grs+2,??___flmul+2
  6495  00111C  C01F  F01A         	movff	___flmul@grs+3,??___flmul+3
  6496  001120  0E19               	movlw	25
  6497  001122  D005               	goto	i2u425_40
  6498  001124                     i2u425_45:
  6499  001124  90D8               	bcf	status,0,c
  6500  001126  321A               	rrcf	??___flmul+3,f,c
  6501  001128  3219               	rrcf	??___flmul+2,f,c
  6502  00112A  3218               	rrcf	??___flmul+1,f,c
  6503  00112C  3217               	rrcf	??___flmul,f,c
  6504  00112E                     i2u425_40:
  6505  00112E  2EE8               	decfsz	wreg,f,c
  6506  001130  D7F9               	goto	i2u425_45
  6507  001132  5017               	movf	??___flmul,w,c
  6508  001134  2622               	addwf	___flmul@prod,f,c
  6509  001136  5018               	movf	??___flmul+1,w,c
  6510  001138  2223               	addwfc	___flmul@prod+1,f,c
  6511  00113A  5019               	movf	??___flmul+2,w,c
  6512  00113C  2224               	addwfc	___flmul@prod+2,f,c
  6513  00113E  501A               	movf	??___flmul+3,w,c
  6514  001140  2225               	addwfc	___flmul@prod+3,f,c
  6515  001142  C01E  F01F         	movff	___flmul@grs+2,___flmul@grs+3
  6516  001146  C01D  F01E         	movff	___flmul@grs+1,___flmul@grs+2
  6517  00114A  C01C  F01D         	movff	___flmul@grs,___flmul@grs+1
  6518  00114E  6A1C               	clrf	___flmul@grs,c
  6519  001150  5020               	movf	___flmul@aexp,w,c
  6520  001152  C021  F017         	movff	___flmul@bexp,??___flmul
  6521  001156  6A18               	clrf	(??___flmul+1)& (0+255),c
  6522  001158  2617               	addwf	??___flmul,f,c
  6523  00115A  0E00               	movlw	0
  6524  00115C  2218               	addwfc	??___flmul+1,f,c
  6525  00115E  0E82               	movlw	130
  6526  001160  2417               	addwf	??___flmul,w,c
  6527  001162  6E26               	movwf	___flmul@temp,c
  6528  001164  0EFF               	movlw	255
  6529  001166  2018               	addwfc	??___flmul+1,w,c
  6530  001168  6E27               	movwf	___flmul@temp+1,c
  6531  00116A  D00F               	goto	i2l2362
  6532  00116C  90D8               	bcf	status,0,c
  6533  00116E  3622               	rlcf	___flmul@prod,f,c
  6534  001170  3623               	rlcf	___flmul@prod+1,f,c
  6535  001172  3624               	rlcf	___flmul@prod+2,f,c
  6536  001174  3625               	rlcf	___flmul@prod+3,f,c
  6537  001176  BE1F               	btfsc	___flmul@grs+3,7,c
  6538  001178  8022               	bsf	___flmul@prod,0,c
  6539  00117A  90D8               	bcf	status,0,c
  6540  00117C  361C               	rlcf	___flmul@grs,f,c
  6541  00117E  361D               	rlcf	___flmul@grs+1,f,c
  6542  001180  361E               	rlcf	___flmul@grs+2,f,c
  6543  001182  361F               	rlcf	___flmul@grs+3,f,c
  6544  001184  0626               	decf	___flmul@temp,f,c
  6545  001186  A0D8               	btfss	status,0,c
  6546  001188  0627               	decf	___flmul@temp+1,f,c
  6547  00118A                     i2l2362:
  6548  00118A  AE24               	btfss	___flmul@prod+2,7,c
  6549  00118C  D7EF               	goto	i2l2363
  6550  00118E  0E00               	movlw	0
  6551  001190  6E20               	movwf	___flmul@aexp,c
  6552  001192  AE1F               	btfss	___flmul@grs+3,7,c
  6553  001194  D016               	goto	i2l2369
  6554  001196  0EFF               	movlw	255
  6555  001198  141C               	andwf	___flmul@grs,w,c
  6556  00119A  6E17               	movwf	??___flmul& (0+255),c
  6557  00119C  0EFF               	movlw	255
  6558  00119E  141D               	andwf	___flmul@grs+1,w,c
  6559  0011A0  6E18               	movwf	(??___flmul+1)& (0+255),c
  6560  0011A2  0EFF               	movlw	255
  6561  0011A4  141E               	andwf	___flmul@grs+2,w,c
  6562  0011A6  6E19               	movwf	(??___flmul+2)& (0+255),c
  6563  0011A8  0E7F               	movlw	127
  6564  0011AA  141F               	andwf	___flmul@grs+3,w,c
  6565  0011AC  6E1A               	movwf	(??___flmul+3)& (0+255),c
  6566  0011AE  5017               	movf	??___flmul,w,c
  6567  0011B0  1018               	iorwf	??___flmul+1,w,c
  6568  0011B2  1019               	iorwf	??___flmul+2,w,c
  6569  0011B4  101A               	iorwf	??___flmul+3,w,c
  6570  0011B6  A4D8               	btfss	status,2,c
  6571  0011B8  D002               	goto	i2u430_40
  6572  0011BA  A022               	btfss	___flmul@prod,0,c
  6573  0011BC  D002               	goto	i2l2369
  6574  0011BE                     i2u430_40:
  6575  0011BE  0E01               	movlw	1
  6576  0011C0  6E20               	movwf	___flmul@aexp,c
  6577  0011C2                     i2l2369:
  6578  0011C2  5020               	movf	___flmul@aexp,w,c
  6579  0011C4  B4D8               	btfsc	status,2,c
  6580  0011C6  D01F               	goto	i2l2371
  6581  0011C8  0E01               	movlw	1
  6582  0011CA  2622               	addwf	___flmul@prod,f,c
  6583  0011CC  0E00               	movlw	0
  6584  0011CE  2223               	addwfc	___flmul@prod+1,f,c
  6585  0011D0  2224               	addwfc	___flmul@prod+2,f,c
  6586  0011D2  2225               	addwfc	___flmul@prod+3,f,c
  6587  0011D4  A025               	btfss	___flmul@prod+3,0,c
  6588  0011D6  D017               	goto	i2l2371
  6589  0011D8  C022  F017         	movff	___flmul@prod,??___flmul
  6590  0011DC  C023  F018         	movff	___flmul@prod+1,??___flmul+1
  6591  0011E0  C024  F019         	movff	___flmul@prod+2,??___flmul+2
  6592  0011E4  C025  F01A         	movff	___flmul@prod+3,??___flmul+3
  6593  0011E8  341A               	rlcf	??___flmul+3,w,c
  6594  0011EA  321A               	rrcf	??___flmul+3,f,c
  6595  0011EC  3219               	rrcf	??___flmul+2,f,c
  6596  0011EE  3218               	rrcf	??___flmul+1,f,c
  6597  0011F0  3217               	rrcf	??___flmul,f,c
  6598  0011F2  C017  F022         	movff	??___flmul,___flmul@prod
  6599  0011F6  C018  F023         	movff	??___flmul+1,___flmul@prod+1
  6600  0011FA  C019  F024         	movff	??___flmul+2,___flmul@prod+2
  6601  0011FE  C01A  F025         	movff	??___flmul+3,___flmul@prod+3
  6602  001202  4A26               	infsnz	___flmul@temp,f,c
  6603  001204  2A27               	incf	___flmul@temp+1,f,c
  6604  001206                     i2l2371:
  6605  001206  BE27               	btfsc	___flmul@temp+1,7,c
  6606  001208  D00D               	goto	i2l2372
  6607  00120A  5027               	movf	___flmul@temp+1,w,c
  6608  00120C  E103               	bnz	i2u433_40
  6609  00120E  2826               	incf	___flmul@temp,w,c
  6610  001210  A0D8               	btfss	status,0,c
  6611  001212  D008               	goto	i2l2372
  6612  001214                     i2u433_40:
  6613  001214  0E00               	movlw	0
  6614  001216  6E22               	movwf	___flmul@prod,c
  6615  001218  0E00               	movlw	0
  6616  00121A  6E23               	movwf	___flmul@prod+1,c
  6617  00121C  0E80               	movlw	128
  6618  00121E  6E24               	movwf	___flmul@prod+2,c
  6619  001220  0E7F               	movlw	127
  6620  001222  D020               	goto	L4
  6621  001224                     i2l2372:
  6622  001224  BE27               	btfsc	___flmul@temp+1,7,c
  6623  001226  D005               	goto	i2u434_40
  6624  001228  5027               	movf	___flmul@temp+1,w,c
  6625  00122A  E10E               	bnz	i2l2374
  6626  00122C  0426               	decf	___flmul@temp,w,c
  6627  00122E  B0D8               	btfsc	status,0,c
  6628  001230  D00B               	goto	i2l2374
  6629  001232                     i2u434_40:
  6630  001232  0E00               	movlw	0
  6631  001234  6E22               	movwf	___flmul@prod,c
  6632  001236  0E00               	movlw	0
  6633  001238  6E23               	movwf	___flmul@prod+1,c
  6634  00123A  0E00               	movlw	0
  6635  00123C  6E24               	movwf	___flmul@prod+2,c
  6636  00123E  0E00               	movlw	0
  6637  001240  6E25               	movwf	___flmul@prod+3,c
  6638  001242  0E00               	movlw	0
  6639  001244  6E1B               	movwf	___flmul@sign,c
  6640  001246  D00F               	goto	i2l2375
  6641  001248                     i2l2374:
  6642  001248  C026  F021         	movff	___flmul@temp,___flmul@bexp
  6643  00124C  0EFF               	movlw	255
  6644  00124E  1622               	andwf	___flmul@prod,f,c
  6645  001250  0EFF               	movlw	255
  6646  001252  1623               	andwf	___flmul@prod+1,f,c
  6647  001254  0E7F               	movlw	127
  6648  001256  1624               	andwf	___flmul@prod+2,f,c
  6649  001258  0E00               	movlw	0
  6650  00125A  1625               	andwf	___flmul@prod+3,f,c
  6651  00125C  B021               	btfsc	___flmul@bexp,0,c
  6652  00125E  8E24               	bsf	___flmul@prod+2,7,c
  6653  001260  90D8               	bcf	status,0,c
  6654  001262  3021               	rrcf	___flmul@bexp,w,c
  6655  001264                     L4:
  6656  001264  6E25               	movwf	___flmul@prod+3,c
  6657  001266                     i2l2375:
  6658  001266  501B               	movf	___flmul@sign,w,c
  6659  001268  1225               	iorwf	___flmul@prod+3,f,c
  6660  00126A  C022  F00F         	movff	___flmul@prod,?___flmul
  6661  00126E  C023  F010         	movff	___flmul@prod+1,?___flmul+1
  6662  001272  C024  F011         	movff	___flmul@prod+2,?___flmul+2
  6663  001276  C025  F012         	movff	___flmul@prod+3,?___flmul+3
  6664  00127A  0012               	return	
  6665  00127C                     __end_of___flmul:
  6666                           	opt stack 0
  6667                           tosu	equ	0xFFF
  6668                           tosh	equ	0xFFE
  6669                           tosl	equ	0xFFD
  6670                           pclatu	equ	0xFFB
  6671                           pclath	equ	0xFFA
  6672                           tblptru	equ	0xFF8
  6673                           tblptrh	equ	0xFF7
  6674                           tblptrl	equ	0xFF6
  6675                           tablat	equ	0xFF5
  6676                           prodh	equ	0xFF4
  6677                           prodl	equ	0xFF3
  6678                           intcon	equ	0xFF2
  6679                           postinc0	equ	0xFEE
  6680                           fsr0h	equ	0xFEA
  6681                           fsr0l	equ	0xFE9
  6682                           wreg	equ	0xFE8
  6683                           postdec1	equ	0xFE5
  6684                           fsr1h	equ	0xFE2
  6685                           fsr1l	equ	0xFE1
  6686                           fsr2h	equ	0xFDA
  6687                           fsr2l	equ	0xFD9
  6688                           status	equ	0xFD8
  6689                           
  6690 ;; *************** function ___fladd *****************
  6691 ;; Defined at:
  6692 ;;		line 10 in file "C:\Program Files (x86)\Microchip\xc8\v1.45\sources\common\sprcadd.c"
  6693 ;; Parameters:    Size  Location     Type
  6694 ;;  b               4   39[COMRAM] unsigned char 
  6695 ;;  a               4   43[COMRAM] unsigned char 
  6696 ;; Auto vars:     Size  Location     Type
  6697 ;;  grs             1   58[COMRAM] unsigned char 
  6698 ;;  bexp            1   57[COMRAM] unsigned char 
  6699 ;;  aexp            1   56[COMRAM] unsigned char 
  6700 ;;  signs           1   55[COMRAM] unsigned char 
  6701 ;; Return value:  Size  Location     Type
  6702 ;;                  4   39[COMRAM] unsigned char 
  6703 ;; Registers used:
  6704 ;;		wreg, status,2, status,0
  6705 ;; Tracked objects:
  6706 ;;		On entry : 0/0
  6707 ;;		On exit  : 0/0
  6708 ;;		Unchanged: 0/0
  6709 ;; Data sizes:     COMRAM   BANK0   BANK1   BANK2   BANK3   BANK4   BANK5   BANK6   BANK7   BANK8   BANK9  BANK10  BANK1
      +1  BANK12  BANK13  BANK14
  6710 ;;      Params:         8       0       0       0       0       0       0       0       0       0       0       0       
      +0       0       0       0
  6711 ;;      Locals:         4       0       0       0       0       0       0       0       0       0       0       0       
      +0       0       0       0
  6712 ;;      Temps:          8       0       0       0       0       0       0       0       0       0       0       0       
      +0       0       0       0
  6713 ;;      Totals:        20       0       0       0       0       0       0       0       0       0       0       0       
      +0       0       0       0
  6714 ;;Total ram usage:       20 bytes
  6715 ;; Hardware stack levels used:    1
  6716 ;; This function calls:
  6717 ;;		Nothing
  6718 ;; This function is called by:
  6719 ;;		_TMR4_DefaultInterruptHandler
  6720 ;; This function uses a non-reentrant model
  6721 ;;
  6722                           
  6723                           	psect	text47
  6724  00127C                     __ptext47:
  6725                           	opt stack 0
  6726  00127C                     ___fladd:
  6727                           	opt stack 23
  6728                           
  6729                           ;incstack = 0
  6730  00127C  502B               	movf	___fladd@b+3,w,c
  6731  00127E  0B80               	andlw	128
  6732  001280  6E38               	movwf	___fladd@signs,c
  6733  001282  502B               	movf	___fladd@b+3,w,c
  6734  001284  242B               	addwf	___fladd@b+3,w,c
  6735  001286  6E3A               	movwf	___fladd@bexp,c
  6736  001288  BE2A               	btfsc	___fladd@b+2,7,c
  6737  00128A  803A               	bsf	___fladd@bexp,0,c
  6738  00128C  503A               	movf	___fladd@bexp,w,c
  6739  00128E  B4D8               	btfsc	status,2,c
  6740  001290  D00D               	goto	i2l2260
  6741  001292  283A               	incf	___fladd@bexp,w,c
  6742  001294  A4D8               	btfss	status,2,c
  6743  001296  D008               	goto	i2l2261
  6744  001298  0E00               	movlw	0
  6745  00129A  6E28               	movwf	___fladd@b,c
  6746  00129C  0E00               	movlw	0
  6747  00129E  6E29               	movwf	___fladd@b+1,c
  6748  0012A0  0E00               	movlw	0
  6749  0012A2  6E2A               	movwf	___fladd@b+2,c
  6750  0012A4  0E00               	movlw	0
  6751  0012A6  6E2B               	movwf	___fladd@b+3,c
  6752  0012A8                     i2l2261:
  6753  0012A8  8E2A               	bsf	___fladd@b+2,7,c
  6754  0012AA  D006               	goto	L5
  6755  0012AC                     i2l2260:
  6756  0012AC  0E00               	movlw	0
  6757  0012AE  6E28               	movwf	___fladd@b,c
  6758  0012B0  0E00               	movlw	0
  6759  0012B2  6E29               	movwf	___fladd@b+1,c
  6760  0012B4  0E00               	movlw	0
  6761  0012B6  6E2A               	movwf	___fladd@b+2,c
  6762  0012B8                     L5:
  6763  0012B8  0E00               	movlw	0
  6764  0012BA  6E2B               	movwf	___fladd@b+3,c
  6765  0012BC  502F               	movf	___fladd@a+3,w,c
  6766  0012BE  0B80               	andlw	128
  6767  0012C0  6E39               	movwf	___fladd@aexp,c
  6768  0012C2  5038               	movf	___fladd@signs,w,c
  6769  0012C4  1839               	xorwf	___fladd@aexp,w,c
  6770  0012C6  A4D8               	btfss	status,2,c
  6771  0012C8  8C38               	bsf	___fladd@signs,6,c
  6772  0012CA  502F               	movf	___fladd@a+3,w,c
  6773  0012CC  242F               	addwf	___fladd@a+3,w,c
  6774  0012CE  6E39               	movwf	___fladd@aexp,c
  6775  0012D0  BE2E               	btfsc	___fladd@a+2,7,c
  6776  0012D2  8039               	bsf	___fladd@aexp,0,c
  6777  0012D4  5039               	movf	___fladd@aexp,w,c
  6778  0012D6  B4D8               	btfsc	status,2,c
  6779  0012D8  D00D               	goto	i2l2265
  6780  0012DA  2839               	incf	___fladd@aexp,w,c
  6781  0012DC  A4D8               	btfss	status,2,c
  6782  0012DE  D008               	goto	i2l2266
  6783  0012E0  0E00               	movlw	0
  6784  0012E2  6E2C               	movwf	___fladd@a,c
  6785  0012E4  0E00               	movlw	0
  6786  0012E6  6E2D               	movwf	___fladd@a+1,c
  6787  0012E8  0E00               	movlw	0
  6788  0012EA  6E2E               	movwf	___fladd@a+2,c
  6789  0012EC  0E00               	movlw	0
  6790  0012EE  6E2F               	movwf	___fladd@a+3,c
  6791  0012F0                     i2l2266:
  6792  0012F0  8E2E               	bsf	___fladd@a+2,7,c
  6793  0012F2  D006               	goto	L6
  6794  0012F4                     i2l2265:
  6795  0012F4  0E00               	movlw	0
  6796  0012F6  6E2C               	movwf	___fladd@a,c
  6797  0012F8  0E00               	movlw	0
  6798  0012FA  6E2D               	movwf	___fladd@a+1,c
  6799  0012FC  0E00               	movlw	0
  6800  0012FE  6E2E               	movwf	___fladd@a+2,c
  6801  001300                     L6:
  6802  001300  0E00               	movlw	0
  6803  001302  6E2F               	movwf	___fladd@a+3,c
  6804  001304  503A               	movf	___fladd@bexp,w,c
  6805  001306  5C39               	subwf	___fladd@aexp,w,c
  6806  001308  B0D8               	btfsc	status,0,c
  6807  00130A  D022               	goto	i2l2268
  6808  00130C  AC38               	btfss	___fladd@signs,6,c
  6809  00130E  D002               	goto	i2l2269
  6810  001310  0E80               	movlw	128
  6811  001312  1A38               	xorwf	___fladd@signs,f,c
  6812  001314                     i2l2269:
  6813  001314  C03A  F03B         	movff	___fladd@bexp,___fladd@grs
  6814  001318  C039  F03A         	movff	___fladd@aexp,___fladd@bexp
  6815  00131C  C03B  F039         	movff	___fladd@grs,___fladd@aexp
  6816  001320  C028  F03B         	movff	___fladd@b,___fladd@grs
  6817  001324  C02C  F028         	movff	___fladd@a,___fladd@b
  6818  001328  C03B  F02C         	movff	___fladd@grs,___fladd@a
  6819  00132C  C029  F03B         	movff	___fladd@b+1,___fladd@grs
  6820  001330  C02D  F029         	movff	___fladd@a+1,___fladd@b+1
  6821  001334  C03B  F02D         	movff	___fladd@grs,___fladd@a+1
  6822  001338  C02A  F03B         	movff	___fladd@b+2,___fladd@grs
  6823  00133C  C02E  F02A         	movff	___fladd@a+2,___fladd@b+2
  6824  001340  C03B  F02E         	movff	___fladd@grs,___fladd@a+2
  6825  001344  C02B  F03B         	movff	___fladd@b+3,___fladd@grs
  6826  001348  C02F  F02B         	movff	___fladd@a+3,___fladd@b+3
  6827  00134C  C03B  F02F         	movff	___fladd@grs,___fladd@a+3
  6828  001350                     i2l2268:
  6829  001350  0E00               	movlw	0
  6830  001352  6E3B               	movwf	___fladd@grs,c
  6831  001354  503A               	movf	___fladd@bexp,w,c
  6832  001356  6E30               	movwf	??___fladd& (0+255),c
  6833  001358  6A31               	clrf	(??___fladd+1)& (0+255),c
  6834  00135A  1E30               	comf	??___fladd,f,c
  6835  00135C  1E31               	comf	??___fladd+1,f,c
  6836  00135E  4A30               	infsnz	??___fladd,f,c
  6837  001360  2A31               	incf	??___fladd+1,f,c
  6838  001362  5039               	movf	___fladd@aexp,w,c
  6839  001364  6E32               	movwf	(??___fladd+2)& (0+255),c
  6840  001366  6A33               	clrf	(??___fladd+3)& (0+255),c
  6841  001368  5030               	movf	??___fladd,w,c
  6842  00136A  2632               	addwf	??___fladd+2,f,c
  6843  00136C  5031               	movf	??___fladd+1,w,c
  6844  00136E  2233               	addwfc	??___fladd+3,f,c
  6845  001370  BE33               	btfsc	??___fladd+3,7,c
  6846  001372  D02C               	goto	i2l2272
  6847  001374  5033               	movf	??___fladd+3,w,c
  6848  001376  E104               	bnz	i2u387_40
  6849  001378  0E1A               	movlw	26
  6850  00137A  5C32               	subwf	??___fladd+2,w,c
  6851  00137C  A0D8               	btfss	status,0,c
  6852  00137E  D026               	goto	i2l2272
  6853  001380                     i2u387_40:
  6854  001380  5028               	movf	___fladd@b,w,c
  6855  001382  1029               	iorwf	___fladd@b+1,w,c
  6856  001384  102A               	iorwf	___fladd@b+2,w,c
  6857  001386  102B               	iorwf	___fladd@b+3,w,c
  6858  001388  B4D8               	btfsc	status,2,c
  6859  00138A  D002               	goto	i2u388_40
  6860  00138C  0E01               	movlw	1
  6861  00138E  D001               	goto	i2u389_40
  6862  001390                     i2u388_40:
  6863  001390  0E00               	movlw	0
  6864  001392                     i2u389_40:
  6865  001392  6E3B               	movwf	___fladd@grs,c
  6866  001394  0E00               	movlw	0
  6867  001396  6E28               	movwf	___fladd@b,c
  6868  001398  0E00               	movlw	0
  6869  00139A  6E29               	movwf	___fladd@b+1,c
  6870  00139C  0E00               	movlw	0
  6871  00139E  6E2A               	movwf	___fladd@b+2,c
  6872  0013A0  0E00               	movlw	0
  6873  0013A2  6E2B               	movwf	___fladd@b+3,c
  6874  0013A4  C039  F03A         	movff	___fladd@aexp,___fladd@bexp
  6875  0013A8  D015               	goto	i2u392_40
  6876  0013AA                     i2l2273:
  6877  0013AA  A03B               	btfss	___fladd@grs,0,c
  6878  0013AC  D005               	goto	i2l2274
  6879  0013AE  90D8               	bcf	status,0,c
  6880  0013B0  303B               	rrcf	___fladd@grs,w,c
  6881  0013B2  0901               	iorlw	1
  6882  0013B4  6E3B               	movwf	___fladd@grs,c
  6883  0013B6  D002               	goto	i2l2275
  6884  0013B8                     i2l2274:
  6885  0013B8  90D8               	bcf	status,0,c
  6886  0013BA  323B               	rrcf	___fladd@grs,f,c
  6887  0013BC                     i2l2275:
  6888  0013BC  B028               	btfsc	___fladd@b,0,c
  6889  0013BE  8E3B               	bsf	___fladd@grs,7,c
  6890  0013C0  342B               	rlcf	___fladd@b+3,w,c
  6891  0013C2  322B               	rrcf	___fladd@b+3,f,c
  6892  0013C4  322A               	rrcf	___fladd@b+2,f,c
  6893  0013C6  3229               	rrcf	___fladd@b+1,f,c
  6894  0013C8  3228               	rrcf	___fladd@b,f,c
  6895  0013CA  2A3A               	incf	___fladd@bexp,f,c
  6896  0013CC                     i2l2272:
  6897  0013CC  5039               	movf	___fladd@aexp,w,c
  6898  0013CE  5C3A               	subwf	___fladd@bexp,w,c
  6899  0013D0  A0D8               	btfss	status,0,c
  6900  0013D2  D7EB               	goto	i2l2273
  6901  0013D4                     i2u392_40:
  6902  0013D4  BC38               	btfsc	___fladd@signs,6,c
  6903  0013D6  D029               	goto	i2l2278
  6904  0013D8  503A               	movf	___fladd@bexp,w,c
  6905  0013DA  A4D8               	btfss	status,2,c
  6906  0013DC  D009               	goto	i2l2279
  6907  0013DE  0E00               	movlw	0
  6908  0013E0  6E28               	movwf	?___fladd,c
  6909  0013E2  0E00               	movlw	0
  6910  0013E4  6E29               	movwf	?___fladd+1,c
  6911  0013E6  0E00               	movlw	0
  6912  0013E8  6E2A               	movwf	?___fladd+2,c
  6913  0013EA  0E00               	movlw	0
  6914  0013EC  6E2B               	movwf	?___fladd+3,c
  6915  0013EE  0012               	return	
  6916  0013F0                     i2l2279:
  6917  0013F0  502C               	movf	___fladd@a,w,c
  6918  0013F2  2628               	addwf	___fladd@b,f,c
  6919  0013F4  502D               	movf	___fladd@a+1,w,c
  6920  0013F6  2229               	addwfc	___fladd@b+1,f,c
  6921  0013F8  502E               	movf	___fladd@a+2,w,c
  6922  0013FA  222A               	addwfc	___fladd@b+2,f,c
  6923  0013FC  502F               	movf	___fladd@a+3,w,c
  6924  0013FE  222B               	addwfc	___fladd@b+3,f,c
  6925  001400  A02B               	btfss	___fladd@b+3,0,c
  6926  001402  D083               	goto	i2u405_40
  6927  001404  A03B               	btfss	___fladd@grs,0,c
  6928  001406  D006               	goto	i2l2282
  6929  001408  90D8               	bcf	status,0,c
  6930  00140A  323B               	rrcf	___fladd@grs,f,c
  6931  00140C  503B               	movf	___fladd@grs,w,c
  6932  00140E  0901               	iorlw	1
  6933  001410  6E3B               	movwf	___fladd@grs,c
  6934  001412  D002               	goto	i2l2283
  6935  001414                     i2l2282:
  6936  001414  90D8               	bcf	status,0,c
  6937  001416  323B               	rrcf	___fladd@grs,f,c
  6938  001418                     i2l2283:
  6939  001418  B028               	btfsc	___fladd@b,0,c
  6940  00141A  8E3B               	bsf	___fladd@grs,7,c
  6941  00141C  342B               	rlcf	___fladd@b+3,w,c
  6942  00141E  322B               	rrcf	___fladd@b+3,f,c
  6943  001420  322A               	rrcf	___fladd@b+2,f,c
  6944  001422  3229               	rrcf	___fladd@b+1,f,c
  6945  001424  3228               	rrcf	___fladd@b,f,c
  6946  001426  2A3A               	incf	___fladd@bexp,f,c
  6947  001428  D070               	goto	i2u405_40
  6948  00142A                     i2l2278:
  6949  00142A  502C               	movf	___fladd@a,w,c
  6950  00142C  5C28               	subwf	___fladd@b,w,c
  6951  00142E  502D               	movf	___fladd@a+1,w,c
  6952  001430  5829               	subwfb	___fladd@b+1,w,c
  6953  001432  502E               	movf	___fladd@a+2,w,c
  6954  001434  582A               	subwfb	___fladd@b+2,w,c
  6955  001436  502B               	movf	___fladd@b+3,w,c
  6956  001438  0A80               	xorlw	128
  6957  00143A  6E30               	movwf	??___fladd& (0+255),c
  6958  00143C  502F               	movf	___fladd@a+3,w,c
  6959  00143E  0A80               	xorlw	128
  6960  001440  5830               	subwfb	??___fladd& (0+255),w,c
  6961  001442  B0D8               	btfsc	status,0,c
  6962  001444  D036               	goto	i2l2286
  6963  001446  C028  F030         	movff	___fladd@b,??___fladd
  6964  00144A  C029  F031         	movff	___fladd@b+1,??___fladd+1
  6965  00144E  C02A  F032         	movff	___fladd@b+2,??___fladd+2
  6966  001452  C02B  F033         	movff	___fladd@b+3,??___fladd+3
  6967  001456  1E30               	comf	??___fladd,f,c
  6968  001458  1E31               	comf	??___fladd+1,f,c
  6969  00145A  1E32               	comf	??___fladd+2,f,c
  6970  00145C  1E33               	comf	??___fladd+3,f,c
  6971  00145E  2A30               	incf	??___fladd,f,c
  6972  001460  0E00               	movlw	0
  6973  001462  2231               	addwfc	??___fladd+1,f,c
  6974  001464  2232               	addwfc	??___fladd+2,f,c
  6975  001466  2233               	addwfc	??___fladd+3,f,c
  6976  001468  502C               	movf	___fladd@a,w,c
  6977  00146A  2430               	addwf	??___fladd,w,c
  6978  00146C  6E34               	movwf	(??___fladd+4)& (0+255),c
  6979  00146E  502D               	movf	___fladd@a+1,w,c
  6980  001470  2031               	addwfc	??___fladd+1,w,c
  6981  001472  6E35               	movwf	(??___fladd+5)& (0+255),c
  6982  001474  502E               	movf	___fladd@a+2,w,c
  6983  001476  2032               	addwfc	??___fladd+2,w,c
  6984  001478  6E36               	movwf	(??___fladd+6)& (0+255),c
  6985  00147A  502F               	movf	___fladd@a+3,w,c
  6986  00147C  2033               	addwfc	??___fladd+3,w,c
  6987  00147E  6E37               	movwf	(??___fladd+7)& (0+255),c
  6988  001480  0EFF               	movlw	255
  6989  001482  2434               	addwf	??___fladd+4,w,c
  6990  001484  6E28               	movwf	___fladd@b,c
  6991  001486  0EFF               	movlw	255
  6992  001488  2035               	addwfc	??___fladd+5,w,c
  6993  00148A  6E29               	movwf	___fladd@b+1,c
  6994  00148C  0EFF               	movlw	255
  6995  00148E  2036               	addwfc	??___fladd+6,w,c
  6996  001490  6E2A               	movwf	___fladd@b+2,c
  6997  001492  0EFF               	movlw	255
  6998  001494  2037               	addwfc	??___fladd+7,w,c
  6999  001496  6E2B               	movwf	___fladd@b+3,c
  7000  001498  0E80               	movlw	128
  7001  00149A  1A38               	xorwf	___fladd@signs,f,c
  7002  00149C  6C3B               	negf	___fladd@grs,c
  7003  00149E  503B               	movf	___fladd@grs,w,c
  7004  0014A0  A4D8               	btfss	status,2,c
  7005  0014A2  D00F               	goto	i2l2288
  7006  0014A4  0E01               	movlw	1
  7007  0014A6  2628               	addwf	___fladd@b,f,c
  7008  0014A8  0E00               	movlw	0
  7009  0014AA  2229               	addwfc	___fladd@b+1,f,c
  7010  0014AC  222A               	addwfc	___fladd@b+2,f,c
  7011  0014AE  222B               	addwfc	___fladd@b+3,f,c
  7012  0014B0  D008               	goto	i2l2288
  7013  0014B2                     i2l2286:
  7014  0014B2  502C               	movf	___fladd@a,w,c
  7015  0014B4  5E28               	subwf	___fladd@b,f,c
  7016  0014B6  502D               	movf	___fladd@a+1,w,c
  7017  0014B8  5A29               	subwfb	___fladd@b+1,f,c
  7018  0014BA  502E               	movf	___fladd@a+2,w,c
  7019  0014BC  5A2A               	subwfb	___fladd@b+2,f,c
  7020  0014BE  502F               	movf	___fladd@a+3,w,c
  7021  0014C0  5A2B               	subwfb	___fladd@b+3,f,c
  7022  0014C2                     i2l2288:
  7023  0014C2  5028               	movf	___fladd@b,w,c
  7024  0014C4  1029               	iorwf	___fladd@b+1,w,c
  7025  0014C6  102A               	iorwf	___fladd@b+2,w,c
  7026  0014C8  102B               	iorwf	___fladd@b+3,w,c
  7027  0014CA  A4D8               	btfss	status,2,c
  7028  0014CC  D01C               	goto	i2l2295
  7029  0014CE  503B               	movf	___fladd@grs,w,c
  7030  0014D0  A4D8               	btfss	status,2,c
  7031  0014D2  D019               	goto	i2l2295
  7032  0014D4  0E00               	movlw	0
  7033  0014D6  6E28               	movwf	?___fladd,c
  7034  0014D8  0E00               	movlw	0
  7035  0014DA  6E29               	movwf	?___fladd+1,c
  7036  0014DC  0E00               	movlw	0
  7037  0014DE  6E2A               	movwf	?___fladd+2,c
  7038  0014E0  0E00               	movlw	0
  7039  0014E2  6E2B               	movwf	?___fladd+3,c
  7040  0014E4  0012               	return	
  7041  0014E6  90D8               	bcf	status,0,c
  7042  0014E8  3628               	rlcf	___fladd@b,f,c
  7043  0014EA  3629               	rlcf	___fladd@b+1,f,c
  7044  0014EC  362A               	rlcf	___fladd@b+2,f,c
  7045  0014EE  362B               	rlcf	___fladd@b+3,f,c
  7046  0014F0  BE3B               	btfsc	___fladd@grs,7,c
  7047  0014F2  8028               	bsf	___fladd@b,0,c
  7048  0014F4  A03B               	btfss	___fladd@grs,0,c
  7049  0014F6  D002               	goto	i2l2293
  7050  0014F8  80D8               	bsf	status,0,c
  7051  0014FA  D001               	goto	L7
  7052  0014FC                     i2l2293:
  7053  0014FC  90D8               	bcf	status,0,c
  7054  0014FE                     L7:
  7055  0014FE  363B               	rlcf	___fladd@grs,f,c
  7056  001500  503A               	movf	___fladd@bexp,w,c
  7057  001502  A4D8               	btfss	status,2,c
  7058  001504  063A               	decf	___fladd@bexp,f,c
  7059  001506                     i2l2295:
  7060  001506  AE2A               	btfss	___fladd@b+2,7,c
  7061  001508  D7EE               	goto	i2l2291
  7062  00150A                     i2u405_40:
  7063  00150A  0E00               	movlw	0
  7064  00150C  6E39               	movwf	___fladd@aexp,c
  7065  00150E  AE3B               	btfss	___fladd@grs,7,c
  7066  001510  D00A               	goto	i2l2300
  7067  001512  C03B  F030         	movff	___fladd@grs,??___fladd
  7068  001516  0E7F               	movlw	127
  7069  001518  1630               	andwf	??___fladd,f,c
  7070  00151A  A4D8               	btfss	status,2,c
  7071  00151C  D002               	goto	i2u408_40
  7072  00151E  A028               	btfss	___fladd@b,0,c
  7073  001520  D002               	goto	i2l2300
  7074  001522                     i2u408_40:
  7075  001522  0E01               	movlw	1
  7076  001524  6E39               	movwf	___fladd@aexp,c
  7077  001526                     i2l2300:
  7078  001526  5039               	movf	___fladd@aexp,w,c
  7079  001528  B4D8               	btfsc	status,2,c
  7080  00152A  D020               	goto	i2l2303
  7081  00152C  0E01               	movlw	1
  7082  00152E  2628               	addwf	___fladd@b,f,c
  7083  001530  0E00               	movlw	0
  7084  001532  2229               	addwfc	___fladd@b+1,f,c
  7085  001534  222A               	addwfc	___fladd@b+2,f,c
  7086  001536  222B               	addwfc	___fladd@b+3,f,c
  7087  001538  A02B               	btfss	___fladd@b+3,0,c
  7088  00153A  D018               	goto	i2l2303
  7089  00153C  C028  F030         	movff	___fladd@b,??___fladd
  7090  001540  C029  F031         	movff	___fladd@b+1,??___fladd+1
  7091  001544  C02A  F032         	movff	___fladd@b+2,??___fladd+2
  7092  001548  C02B  F033         	movff	___fladd@b+3,??___fladd+3
  7093  00154C  3433               	rlcf	??___fladd+3,w,c
  7094  00154E  3233               	rrcf	??___fladd+3,f,c
  7095  001550  3232               	rrcf	??___fladd+2,f,c
  7096  001552  3231               	rrcf	??___fladd+1,f,c
  7097  001554  3230               	rrcf	??___fladd,f,c
  7098  001556  C030  F028         	movff	??___fladd,___fladd@b
  7099  00155A  C031  F029         	movff	??___fladd+1,___fladd@b+1
  7100  00155E  C032  F02A         	movff	??___fladd+2,___fladd@b+2
  7101  001562  C033  F02B         	movff	??___fladd+3,___fladd@b+3
  7102  001566  283A               	incf	___fladd@bexp,w,c
  7103  001568  A4D8               	btfss	status,2,c
  7104  00156A  2A3A               	incf	___fladd@bexp,f,c
  7105  00156C                     i2l2303:
  7106  00156C  283A               	incf	___fladd@bexp,w,c
  7107  00156E  B4D8               	btfsc	status,2,c
  7108  001570  D003               	goto	i2u413_40
  7109  001572  503A               	movf	___fladd@bexp,w,c
  7110  001574  A4D8               	btfss	status,2,c
  7111  001576  D00D               	goto	i2l2307
  7112  001578                     i2u413_40:
  7113  001578  0E00               	movlw	0
  7114  00157A  6E28               	movwf	___fladd@b,c
  7115  00157C  0E00               	movlw	0
  7116  00157E  6E29               	movwf	___fladd@b+1,c
  7117  001580  0E00               	movlw	0
  7118  001582  6E2A               	movwf	___fladd@b+2,c
  7119  001584  0E00               	movlw	0
  7120  001586  6E2B               	movwf	___fladd@b+3,c
  7121  001588  503A               	movf	___fladd@bexp,w,c
  7122  00158A  A4D8               	btfss	status,2,c
  7123  00158C  D002               	goto	i2l2307
  7124  00158E  0E00               	movlw	0
  7125  001590  6E38               	movwf	___fladd@signs,c
  7126  001592                     i2l2307:
  7127  001592  A03A               	btfss	___fladd@bexp,0,c
  7128  001594  D002               	goto	i2l2308
  7129  001596  8E2A               	bsf	___fladd@b+2,7,c
  7130  001598  D001               	goto	i2l2309
  7131  00159A                     i2l2308:
  7132  00159A  9E2A               	bcf	___fladd@b+2,7,c
  7133  00159C                     i2l2309:
  7134  00159C  90D8               	bcf	status,0,c
  7135  00159E  303A               	rrcf	___fladd@bexp,w,c
  7136  0015A0  6E2B               	movwf	___fladd@b+3,c
  7137  0015A2  BE38               	btfsc	___fladd@signs,7,c
  7138  0015A4  8E2B               	bsf	___fladd@b+3,7,c
  7139  0015A6  C028  F028         	movff	___fladd@b,?___fladd
  7140  0015AA  C029  F029         	movff	___fladd@b+1,?___fladd+1
  7141  0015AE  C02A  F02A         	movff	___fladd@b+2,?___fladd+2
  7142  0015B2  C02B  F02B         	movff	___fladd@b+3,?___fladd+3
  7143  0015B6  0012               	return	
  7144  0015B8                     __end_of___fladd:
  7145                           	opt stack 0
  7146                           tosu	equ	0xFFF
  7147                           tosh	equ	0xFFE
  7148                           tosl	equ	0xFFD
  7149                           pclatu	equ	0xFFB
  7150                           pclath	equ	0xFFA
  7151                           tblptru	equ	0xFF8
  7152                           tblptrh	equ	0xFF7
  7153                           tblptrl	equ	0xFF6
  7154                           tablat	equ	0xFF5
  7155                           prodh	equ	0xFF4
  7156                           prodl	equ	0xFF3
  7157                           intcon	equ	0xFF2
  7158                           postinc0	equ	0xFEE
  7159                           fsr0h	equ	0xFEA
  7160                           fsr0l	equ	0xFE9
  7161                           wreg	equ	0xFE8
  7162                           postdec1	equ	0xFE5
  7163                           fsr1h	equ	0xFE2
  7164                           fsr1l	equ	0xFE1
  7165                           fsr2h	equ	0xFDA
  7166                           fsr2l	equ	0xFD9
  7167                           status	equ	0xFD8
  7168                           
  7169 ;; *************** function _PWM2_LoadDutyValue *****************
  7170 ;; Defined at:
  7171 ;;		line 82 in file "mcc_generated_files/pwm2.c"
  7172 ;; Parameters:    Size  Location     Type
  7173 ;;  dutyValue       2    0[COMRAM] unsigned int 
  7174 ;; Auto vars:     Size  Location     Type
  7175 ;;		None
  7176 ;; Return value:  Size  Location     Type
  7177 ;;                  1    wreg      void 
  7178 ;; Registers used:
  7179 ;;		wreg, status,2, status,0
  7180 ;; Tracked objects:
  7181 ;;		On entry : 0/0
  7182 ;;		On exit  : 0/0
  7183 ;;		Unchanged: 0/0
  7184 ;; Data sizes:     COMRAM   BANK0   BANK1   BANK2   BANK3   BANK4   BANK5   BANK6   BANK7   BANK8   BANK9  BANK10  BANK1
      +1  BANK12  BANK13  BANK14
  7185 ;;      Params:         2       0       0       0       0       0       0       0       0       0       0       0       
      +0       0       0       0
  7186 ;;      Locals:         0       0       0       0       0       0       0       0       0       0       0       0       
      +0       0       0       0
  7187 ;;      Temps:          0       0       0       0       0       0       0       0       0       0       0       0       
      +0       0       0       0
  7188 ;;      Totals:         2       0       0       0       0       0       0       0       0       0       0       0       
      +0       0       0       0
  7189 ;;Total ram usage:        2 bytes
  7190 ;; Hardware stack levels used:    1
  7191 ;; This function calls:
  7192 ;;		Nothing
  7193 ;; This function is called by:
  7194 ;;		_TMR4_DefaultInterruptHandler
  7195 ;; This function uses a non-reentrant model
  7196 ;;
  7197                           
  7198                           	psect	text48
  7199  00286C                     __ptext48:
  7200                           	opt stack 0
  7201  00286C                     _PWM2_LoadDutyValue:
  7202                           	opt stack 23
  7203                           
  7204                           ;pwm2.c: 84: dutyValue &= 0x03FF;
  7205                           
  7206                           ;incstack = 0
  7207  00286C  0EFF               	movlw	255
  7208  00286E  1601               	andwf	PWM2_LoadDutyValue@dutyValue,f,c
  7209  002870  0E03               	movlw	3
  7210  002872  1602               	andwf	PWM2_LoadDutyValue@dutyValue+1,f,c
  7211                           
  7212                           ;pwm2.c: 87: if(CCP2CONbits.FMT)
  7213  002874  A8A8               	btfss	4008,4,c	;volatile
  7214  002876  D00B               	goto	i2l1508
  7215                           
  7216                           ;pwm2.c: 88: {
  7217                           ;pwm2.c: 89: dutyValue <<= 6;
  7218  002878  0E06               	movlw	6
  7219  00287A                     i2u375_45:
  7220  00287A  90D8               	bcf	status,0,c
  7221  00287C  3601               	rlcf	PWM2_LoadDutyValue@dutyValue,f,c
  7222  00287E  3602               	rlcf	PWM2_LoadDutyValue@dutyValue+1,f,c
  7223  002880  2EE8               	decfsz	wreg,f,c
  7224  002882  D7FB               	goto	i2u375_45
  7225                           
  7226                           ;pwm2.c: 90: CCPR2H = dutyValue >> 8;
  7227  002884  5002               	movf	PWM2_LoadDutyValue@dutyValue+1,w,c
  7228  002886  6EA7               	movwf	4007,c	;volatile
  7229                           
  7230                           ;pwm2.c: 91: CCPR2L = dutyValue;
  7231  002888  C001  FFA6         	movff	PWM2_LoadDutyValue@dutyValue,4006	;volatile
  7232                           
  7233                           ;pwm2.c: 92: }
  7234  00288C  0012               	return	
  7235  00288E                     i2l1508:
  7236                           
  7237                           ;pwm2.c: 93: else
  7238                           ;pwm2.c: 94: {
  7239                           ;pwm2.c: 95: CCPR2H = dutyValue >> 8;
  7240  00288E  5002               	movf	PWM2_LoadDutyValue@dutyValue+1,w,c
  7241  002890  6EA7               	movwf	4007,c	;volatile
  7242                           
  7243                           ;pwm2.c: 96: CCPR2L = dutyValue;
  7244  002892  C001  FFA6         	movff	PWM2_LoadDutyValue@dutyValue,4006	;volatile
  7245  002896  0012               	return	
  7246  002898                     __end_of_PWM2_LoadDutyValue:
  7247                           	opt stack 0
  7248                           tosu	equ	0xFFF
  7249                           tosh	equ	0xFFE
  7250                           tosl	equ	0xFFD
  7251                           pclatu	equ	0xFFB
  7252                           pclath	equ	0xFFA
  7253                           tblptru	equ	0xFF8
  7254                           tblptrh	equ	0xFF7
  7255                           tblptrl	equ	0xFF6
  7256                           tablat	equ	0xFF5
  7257                           prodh	equ	0xFF4
  7258                           prodl	equ	0xFF3
  7259                           intcon	equ	0xFF2
  7260                           postinc0	equ	0xFEE
  7261                           fsr0h	equ	0xFEA
  7262                           fsr0l	equ	0xFE9
  7263                           wreg	equ	0xFE8
  7264                           postdec1	equ	0xFE5
  7265                           fsr1h	equ	0xFE2
  7266                           fsr1l	equ	0xFE1
  7267                           fsr2h	equ	0xFDA
  7268                           fsr2l	equ	0xFD9
  7269                           status	equ	0xFD8
  7270                           
  7271 ;; *************** function _PWM1_LoadDutyValue *****************
  7272 ;; Defined at:
  7273 ;;		line 82 in file "mcc_generated_files/pwm1.c"
  7274 ;; Parameters:    Size  Location     Type
  7275 ;;  dutyValue       2    0[COMRAM] unsigned int 
  7276 ;; Auto vars:     Size  Location     Type
  7277 ;;		None
  7278 ;; Return value:  Size  Location     Type
  7279 ;;                  1    wreg      void 
  7280 ;; Registers used:
  7281 ;;		wreg, status,2, status,0
  7282 ;; Tracked objects:
  7283 ;;		On entry : 0/0
  7284 ;;		On exit  : 0/0
  7285 ;;		Unchanged: 0/0
  7286 ;; Data sizes:     COMRAM   BANK0   BANK1   BANK2   BANK3   BANK4   BANK5   BANK6   BANK7   BANK8   BANK9  BANK10  BANK1
      +1  BANK12  BANK13  BANK14
  7287 ;;      Params:         2       0       0       0       0       0       0       0       0       0       0       0       
      +0       0       0       0
  7288 ;;      Locals:         0       0       0       0       0       0       0       0       0       0       0       0       
      +0       0       0       0
  7289 ;;      Temps:          0       0       0       0       0       0       0       0       0       0       0       0       
      +0       0       0       0
  7290 ;;      Totals:         2       0       0       0       0       0       0       0       0       0       0       0       
      +0       0       0       0
  7291 ;;Total ram usage:        2 bytes
  7292 ;; Hardware stack levels used:    1
  7293 ;; This function calls:
  7294 ;;		Nothing
  7295 ;; This function is called by:
  7296 ;;		_TMR4_DefaultInterruptHandler
  7297 ;; This function uses a non-reentrant model
  7298 ;;
  7299                           
  7300                           	psect	text49
  7301  002898                     __ptext49:
  7302                           	opt stack 0
  7303  002898                     _PWM1_LoadDutyValue:
  7304                           	opt stack 23
  7305                           
  7306                           ;pwm1.c: 84: dutyValue &= 0x03FF;
  7307                           
  7308                           ;incstack = 0
  7309  002898  0EFF               	movlw	255
  7310  00289A  1601               	andwf	PWM1_LoadDutyValue@dutyValue,f,c
  7311  00289C  0E03               	movlw	3
  7312  00289E  1602               	andwf	PWM1_LoadDutyValue@dutyValue+1,f,c
  7313                           
  7314                           ;pwm1.c: 87: if(CCP1CONbits.FMT)
  7315  0028A0  A8AC               	btfss	4012,4,c	;volatile
  7316  0028A2  D00B               	goto	i2l1487
  7317                           
  7318                           ;pwm1.c: 88: {
  7319                           ;pwm1.c: 89: dutyValue <<= 6;
  7320  0028A4  0E06               	movlw	6
  7321  0028A6                     i2u377_45:
  7322  0028A6  90D8               	bcf	status,0,c
  7323  0028A8  3601               	rlcf	PWM1_LoadDutyValue@dutyValue,f,c
  7324  0028AA  3602               	rlcf	PWM1_LoadDutyValue@dutyValue+1,f,c
  7325  0028AC  2EE8               	decfsz	wreg,f,c
  7326  0028AE  D7FB               	goto	i2u377_45
  7327                           
  7328                           ;pwm1.c: 90: CCPR1H = dutyValue >> 8;
  7329  0028B0  5002               	movf	PWM1_LoadDutyValue@dutyValue+1,w,c
  7330  0028B2  6EAB               	movwf	4011,c	;volatile
  7331                           
  7332                           ;pwm1.c: 91: CCPR1L = dutyValue;
  7333  0028B4  C001  FFAA         	movff	PWM1_LoadDutyValue@dutyValue,4010	;volatile
  7334                           
  7335                           ;pwm1.c: 92: }
  7336  0028B8  0012               	return	
  7337  0028BA                     i2l1487:
  7338                           
  7339                           ;pwm1.c: 93: else
  7340                           ;pwm1.c: 94: {
  7341                           ;pwm1.c: 95: CCPR1H = dutyValue >> 8;
  7342  0028BA  5002               	movf	PWM1_LoadDutyValue@dutyValue+1,w,c
  7343  0028BC  6EAB               	movwf	4011,c	;volatile
  7344                           
  7345                           ;pwm1.c: 96: CCPR1L = dutyValue;
  7346  0028BE  C001  FFAA         	movff	PWM1_LoadDutyValue@dutyValue,4010	;volatile
  7347  0028C2  0012               	return	
  7348  0028C4                     __end_of_PWM1_LoadDutyValue:
  7349                           	opt stack 0
  7350                           tosu	equ	0xFFF
  7351                           tosh	equ	0xFFE
  7352                           tosl	equ	0xFFD
  7353                           pclatu	equ	0xFFB
  7354                           pclath	equ	0xFFA
  7355                           tblptru	equ	0xFF8
  7356                           tblptrh	equ	0xFF7
  7357                           tblptrl	equ	0xFF6
  7358                           tablat	equ	0xFF5
  7359                           prodh	equ	0xFF4
  7360                           prodl	equ	0xFF3
  7361                           intcon	equ	0xFF2
  7362                           postinc0	equ	0xFEE
  7363                           fsr0h	equ	0xFEA
  7364                           fsr0l	equ	0xFE9
  7365                           wreg	equ	0xFE8
  7366                           postdec1	equ	0xFE5
  7367                           fsr1h	equ	0xFE2
  7368                           fsr1l	equ	0xFE1
  7369                           fsr2h	equ	0xFDA
  7370                           fsr2l	equ	0xFD9
  7371                           status	equ	0xFD8
  7372                           
  7373 ;; *************** function _TMR3_ISR *****************
  7374 ;; Defined at:
  7375 ;;		line 166 in file "mcc_generated_files/tmr3.c"
  7376 ;; Parameters:    Size  Location     Type
  7377 ;;		None
  7378 ;; Auto vars:     Size  Location     Type
  7379 ;;		None
  7380 ;; Return value:  Size  Location     Type
  7381 ;;                  1    wreg      void 
  7382 ;; Registers used:
  7383 ;;		wreg, status,2, status,0, pclath, tosl, cstack
  7384 ;; Tracked objects:
  7385 ;;		On entry : 0/0
  7386 ;;		On exit  : 0/0
  7387 ;;		Unchanged: 0/0
  7388 ;; Data sizes:     COMRAM   BANK0   BANK1   BANK2   BANK3   BANK4   BANK5   BANK6   BANK7   BANK8   BANK9  BANK10  BANK1
      +1  BANK12  BANK13  BANK14
  7389 ;;      Params:         0       0       0       0       0       0       0       0       0       0       0       0       
      +0       0       0       0
  7390 ;;      Locals:         0       0       0       0       0       0       0       0       0       0       0       0       
      +0       0       0       0
  7391 ;;      Temps:          0       0       0       0       0       0       0       0       0       0       0       0       
      +0       0       0       0
  7392 ;;      Totals:         0       0       0       0       0       0       0       0       0       0       0       0       
      +0       0       0       0
  7393 ;;Total ram usage:        0 bytes
  7394 ;; Hardware stack levels used:    1
  7395 ;; Hardware stack levels required when called:    2
  7396 ;; This function calls:
  7397 ;;		Absolute function
  7398 ;;		_TMR3_DefaultInterruptHandler
  7399 ;;		_TMR3_WriteTimer
  7400 ;; This function is called by:
  7401 ;;		_INTERRUPT_InterruptManager
  7402 ;; This function uses a non-reentrant model
  7403 ;;
  7404                           
  7405                           	psect	text50
  7406  002744                     __ptext50:
  7407                           	opt stack 0
  7408  002744                     _TMR3_ISR:
  7409                           	opt stack 23
  7410                           
  7411                           ;tmr3.c: 170: PIR4bits.TMR3IF = 0;
  7412                           
  7413                           ;incstack = 0
  7414  002744  010E               	movlb	14	; () banked
  7415  002746  95CE               	bcf	206,2,b	;volatile
  7416                           
  7417                           ; BSR set to: 14
  7418                           ;tmr3.c: 171: TMR3_WriteTimer(timer3ReloadVal);
  7419  002748  C0CC  F001         	movff	_timer3ReloadVal,TMR3_WriteTimer@timerVal	;volatile
  7420  00274C  C0CD  F002         	movff	_timer3ReloadVal+1,TMR3_WriteTimer@timerVal+1	;volatile
  7421  002750  EC58  F015         	call	_TMR3_WriteTimer	;wreg free
  7422                           
  7423                           ;tmr3.c: 173: if(TMR3_InterruptHandler)
  7424  002754  0100               	movlb	0	; () banked
  7425  002756  51B4               	movf	_TMR3_InterruptHandler& (0+255),w,b
  7426  002758  11B5               	iorwf	(_TMR3_InterruptHandler+1)& (0+255),w,b
  7427  00275A  11B6               	iorwf	(_TMR3_InterruptHandler+2)& (0+255),w,b
  7428  00275C  B4D8               	btfsc	status,2,c
  7429  00275E  0012               	return	
  7430                           
  7431                           ; BSR set to: 0
  7432                           ;tmr3.c: 174: {
  7433                           ;tmr3.c: 175: TMR3_InterruptHandler();
  7434  002760  D801               	call	i2u518_48
  7435  002762  0012               	return	
  7436  002764                     i2u518_48:
  7437  002764  0005               	push	
  7438  002766  6EFA               	movwf	pclath,c
  7439  002768  51B4               	movf	_TMR3_InterruptHandler& (0+255),w,b
  7440  00276A  6EFD               	movwf	tosl,c
  7441  00276C  51B5               	movf	(_TMR3_InterruptHandler+1)& (0+255),w,b
  7442  00276E  6EFE               	movwf	tosh,c
  7443  002770  51B6               	movf	(_TMR3_InterruptHandler+2)& (0+255),w,b
  7444  002772  6EFF               	movwf	tosu,c
  7445  002774  50FA               	movf	pclath,w,c
  7446  002776  0012               	return		;indir
  7447  002778                     __end_of_TMR3_ISR:
  7448                           	opt stack 0
  7449                           tosu	equ	0xFFF
  7450                           tosh	equ	0xFFE
  7451                           tosl	equ	0xFFD
  7452                           pclatu	equ	0xFFB
  7453                           pclath	equ	0xFFA
  7454                           tblptru	equ	0xFF8
  7455                           tblptrh	equ	0xFF7
  7456                           tblptrl	equ	0xFF6
  7457                           tablat	equ	0xFF5
  7458                           prodh	equ	0xFF4
  7459                           prodl	equ	0xFF3
  7460                           intcon	equ	0xFF2
  7461                           postinc0	equ	0xFEE
  7462                           fsr0h	equ	0xFEA
  7463                           fsr0l	equ	0xFE9
  7464                           wreg	equ	0xFE8
  7465                           postdec1	equ	0xFE5
  7466                           fsr1h	equ	0xFE2
  7467                           fsr1l	equ	0xFE1
  7468                           fsr2h	equ	0xFDA
  7469                           fsr2l	equ	0xFD9
  7470                           status	equ	0xFD8
  7471                           
  7472 ;; *************** function _TMR3_DefaultInterruptHandler *****************
  7473 ;; Defined at:
  7474 ;;		line 184 in file "mcc_generated_files/tmr3.c"
  7475 ;; Parameters:    Size  Location     Type
  7476 ;;		None
  7477 ;; Auto vars:     Size  Location     Type
  7478 ;;		None
  7479 ;; Return value:  Size  Location     Type
  7480 ;;                  1    wreg      void 
  7481 ;; Registers used:
  7482 ;;		wreg, status,2, cstack
  7483 ;; Tracked objects:
  7484 ;;		On entry : 0/0
  7485 ;;		On exit  : 0/0
  7486 ;;		Unchanged: 0/0
  7487 ;; Data sizes:     COMRAM   BANK0   BANK1   BANK2   BANK3   BANK4   BANK5   BANK6   BANK7   BANK8   BANK9  BANK10  BANK1
      +1  BANK12  BANK13  BANK14
  7488 ;;      Params:         0       0       0       0       0       0       0       0       0       0       0       0       
      +0       0       0       0
  7489 ;;      Locals:         0       0       0       0       0       0       0       0       0       0       0       0       
      +0       0       0       0
  7490 ;;      Temps:          0       0       0       0       0       0       0       0       0       0       0       0       
      +0       0       0       0
  7491 ;;      Totals:         0       0       0       0       0       0       0       0       0       0       0       0       
      +0       0       0       0
  7492 ;;Total ram usage:        0 bytes
  7493 ;; Hardware stack levels used:    1
  7494 ;; Hardware stack levels required when called:    1
  7495 ;; This function calls:
  7496 ;;		_TMR3_StopTimer
  7497 ;;		_TMR3_WriteTimer
  7498 ;; This function is called by:
  7499 ;;		_TMR3_Initialize
  7500 ;;		_TMR3_ISR
  7501 ;; This function uses a non-reentrant model
  7502 ;;
  7503                           
  7504                           	psect	text51
  7505  002A78                     __ptext51:
  7506                           	opt stack 0
  7507  002A78                     _TMR3_DefaultInterruptHandler:
  7508                           	opt stack 23
  7509                           
  7510                           ;tmr3.c: 188: TMR3_StopTimer();
  7511                           
  7512                           ;incstack = 0
  7513  002A78  EC40  F016         	call	_TMR3_StopTimer	;wreg free
  7514                           
  7515                           ;tmr3.c: 189: Vitesse_Moteur_D = 0;
  7516  002A7C  0E00               	movlw	0
  7517  002A7E  0100               	movlb	0	; () banked
  7518  002A80  6F9E               	movwf	(_Vitesse_Moteur_D+1)& (0+255),b
  7519  002A82  0E00               	movlw	0
  7520  002A84  6F9D               	movwf	_Vitesse_Moteur_D& (0+255),b
  7521                           
  7522                           ;tmr3.c: 190: TMR3_WriteTimer(0);
  7523  002A86  0E00               	movlw	0
  7524  002A88  6E02               	movwf	TMR3_WriteTimer@timerVal+1,c
  7525  002A8A  0E00               	movlw	0
  7526  002A8C  6E01               	movwf	TMR3_WriteTimer@timerVal,c
  7527  002A8E  EC58  F015         	call	_TMR3_WriteTimer	;wreg free
  7528  002A92  0012               	return		;funcret
  7529  002A94                     __end_of_TMR3_DefaultInterruptHandler:
  7530                           	opt stack 0
  7531                           tosu	equ	0xFFF
  7532                           tosh	equ	0xFFE
  7533                           tosl	equ	0xFFD
  7534                           pclatu	equ	0xFFB
  7535                           pclath	equ	0xFFA
  7536                           tblptru	equ	0xFF8
  7537                           tblptrh	equ	0xFF7
  7538                           tblptrl	equ	0xFF6
  7539                           tablat	equ	0xFF5
  7540                           prodh	equ	0xFF4
  7541                           prodl	equ	0xFF3
  7542                           intcon	equ	0xFF2
  7543                           postinc0	equ	0xFEE
  7544                           fsr0h	equ	0xFEA
  7545                           fsr0l	equ	0xFE9
  7546                           wreg	equ	0xFE8
  7547                           postdec1	equ	0xFE5
  7548                           fsr1h	equ	0xFE2
  7549                           fsr1l	equ	0xFE1
  7550                           fsr2h	equ	0xFDA
  7551                           fsr2l	equ	0xFD9
  7552                           status	equ	0xFD8
  7553                           
  7554 ;; *************** function _TMR1_ISR *****************
  7555 ;; Defined at:
  7556 ;;		line 166 in file "mcc_generated_files/tmr1.c"
  7557 ;; Parameters:    Size  Location     Type
  7558 ;;		None
  7559 ;; Auto vars:     Size  Location     Type
  7560 ;;		None
  7561 ;; Return value:  Size  Location     Type
  7562 ;;                  1    wreg      void 
  7563 ;; Registers used:
  7564 ;;		wreg, status,2, status,0, pclath, tosl, cstack
  7565 ;; Tracked objects:
  7566 ;;		On entry : 0/0
  7567 ;;		On exit  : 0/0
  7568 ;;		Unchanged: 0/0
  7569 ;; Data sizes:     COMRAM   BANK0   BANK1   BANK2   BANK3   BANK4   BANK5   BANK6   BANK7   BANK8   BANK9  BANK10  BANK1
      +1  BANK12  BANK13  BANK14
  7570 ;;      Params:         0       0       0       0       0       0       0       0       0       0       0       0       
      +0       0       0       0
  7571 ;;      Locals:         0       0       0       0       0       0       0       0       0       0       0       0       
      +0       0       0       0
  7572 ;;      Temps:          0       0       0       0       0       0       0       0       0       0       0       0       
      +0       0       0       0
  7573 ;;      Totals:         0       0       0       0       0       0       0       0       0       0       0       0       
      +0       0       0       0
  7574 ;;Total ram usage:        0 bytes
  7575 ;; Hardware stack levels used:    1
  7576 ;; Hardware stack levels required when called:    2
  7577 ;; This function calls:
  7578 ;;		Absolute function
  7579 ;;		_TMR1_DefaultInterruptHandler
  7580 ;;		_TMR1_WriteTimer
  7581 ;; This function is called by:
  7582 ;;		_INTERRUPT_InterruptManager
  7583 ;; This function uses a non-reentrant model
  7584 ;;
  7585                           
  7586                           	psect	text52
  7587  002778                     __ptext52:
  7588                           	opt stack 0
  7589  002778                     _TMR1_ISR:
  7590                           	opt stack 23
  7591                           
  7592                           ;tmr1.c: 170: PIR4bits.TMR1IF = 0;
  7593                           
  7594                           ;incstack = 0
  7595  002778  010E               	movlb	14	; () banked
  7596  00277A  91CE               	bcf	206,0,b	;volatile
  7597                           
  7598                           ; BSR set to: 14
  7599                           ;tmr1.c: 171: TMR1_WriteTimer(timer1ReloadVal);
  7600  00277C  C0CE  F001         	movff	_timer1ReloadVal,TMR1_WriteTimer@timerVal	;volatile
  7601  002780  C0CF  F002         	movff	_timer1ReloadVal+1,TMR1_WriteTimer@timerVal+1	;volatile
  7602  002784  EC66  F015         	call	_TMR1_WriteTimer	;wreg free
  7603                           
  7604                           ;tmr1.c: 173: if(TMR1_InterruptHandler)
  7605  002788  0100               	movlb	0	; () banked
  7606  00278A  51B7               	movf	_TMR1_InterruptHandler& (0+255),w,b
  7607  00278C  11B8               	iorwf	(_TMR1_InterruptHandler+1)& (0+255),w,b
  7608  00278E  11B9               	iorwf	(_TMR1_InterruptHandler+2)& (0+255),w,b
  7609  002790  B4D8               	btfsc	status,2,c
  7610  002792  0012               	return	
  7611                           
  7612                           ; BSR set to: 0
  7613                           ;tmr1.c: 174: {
  7614                           ;tmr1.c: 175: TMR1_InterruptHandler();
  7615  002794  D801               	call	i2u520_48
  7616  002796  0012               	return	
  7617  002798                     i2u520_48:
  7618  002798  0005               	push	
  7619  00279A  6EFA               	movwf	pclath,c
  7620  00279C  51B7               	movf	_TMR1_InterruptHandler& (0+255),w,b
  7621  00279E  6EFD               	movwf	tosl,c
  7622  0027A0  51B8               	movf	(_TMR1_InterruptHandler+1)& (0+255),w,b
  7623  0027A2  6EFE               	movwf	tosh,c
  7624  0027A4  51B9               	movf	(_TMR1_InterruptHandler+2)& (0+255),w,b
  7625  0027A6  6EFF               	movwf	tosu,c
  7626  0027A8  50FA               	movf	pclath,w,c
  7627  0027AA  0012               	return		;indir
  7628  0027AC                     __end_of_TMR1_ISR:
  7629                           	opt stack 0
  7630                           tosu	equ	0xFFF
  7631                           tosh	equ	0xFFE
  7632                           tosl	equ	0xFFD
  7633                           pclatu	equ	0xFFB
  7634                           pclath	equ	0xFFA
  7635                           tblptru	equ	0xFF8
  7636                           tblptrh	equ	0xFF7
  7637                           tblptrl	equ	0xFF6
  7638                           tablat	equ	0xFF5
  7639                           prodh	equ	0xFF4
  7640                           prodl	equ	0xFF3
  7641                           intcon	equ	0xFF2
  7642                           postinc0	equ	0xFEE
  7643                           fsr0h	equ	0xFEA
  7644                           fsr0l	equ	0xFE9
  7645                           wreg	equ	0xFE8
  7646                           postdec1	equ	0xFE5
  7647                           fsr1h	equ	0xFE2
  7648                           fsr1l	equ	0xFE1
  7649                           fsr2h	equ	0xFDA
  7650                           fsr2l	equ	0xFD9
  7651                           status	equ	0xFD8
  7652                           
  7653 ;; *************** function _TMR1_DefaultInterruptHandler *****************
  7654 ;; Defined at:
  7655 ;;		line 184 in file "mcc_generated_files/tmr1.c"
  7656 ;; Parameters:    Size  Location     Type
  7657 ;;		None
  7658 ;; Auto vars:     Size  Location     Type
  7659 ;;		None
  7660 ;; Return value:  Size  Location     Type
  7661 ;;                  1    wreg      void 
  7662 ;; Registers used:
  7663 ;;		wreg, status,2, cstack
  7664 ;; Tracked objects:
  7665 ;;		On entry : 0/0
  7666 ;;		On exit  : 0/0
  7667 ;;		Unchanged: 0/0
  7668 ;; Data sizes:     COMRAM   BANK0   BANK1   BANK2   BANK3   BANK4   BANK5   BANK6   BANK7   BANK8   BANK9  BANK10  BANK1
      +1  BANK12  BANK13  BANK14
  7669 ;;      Params:         0       0       0       0       0       0       0       0       0       0       0       0       
      +0       0       0       0
  7670 ;;      Locals:         0       0       0       0       0       0       0       0       0       0       0       0       
      +0       0       0       0
  7671 ;;      Temps:          0       0       0       0       0       0       0       0       0       0       0       0       
      +0       0       0       0
  7672 ;;      Totals:         0       0       0       0       0       0       0       0       0       0       0       0       
      +0       0       0       0
  7673 ;;Total ram usage:        0 bytes
  7674 ;; Hardware stack levels used:    1
  7675 ;; Hardware stack levels required when called:    1
  7676 ;; This function calls:
  7677 ;;		_TMR1_StopTimer
  7678 ;;		_TMR1_WriteTimer
  7679 ;; This function is called by:
  7680 ;;		_TMR1_Initialize
  7681 ;;		_TMR1_ISR
  7682 ;; This function uses a non-reentrant model
  7683 ;;
  7684                           
  7685                           	psect	text53
  7686  002A94                     __ptext53:
  7687                           	opt stack 0
  7688  002A94                     _TMR1_DefaultInterruptHandler:
  7689                           	opt stack 23
  7690                           
  7691                           ;tmr1.c: 188: TMR1_StopTimer();
  7692                           
  7693                           ;incstack = 0
  7694  002A94  EC44  F016         	call	_TMR1_StopTimer	;wreg free
  7695                           
  7696                           ;tmr1.c: 189: Vitesse_Moteur_G = 0;
  7697  002A98  0E00               	movlw	0
  7698  002A9A  0100               	movlb	0	; () banked
  7699  002A9C  6FA0               	movwf	(_Vitesse_Moteur_G+1)& (0+255),b
  7700  002A9E  0E00               	movlw	0
  7701  002AA0  6F9F               	movwf	_Vitesse_Moteur_G& (0+255),b
  7702                           
  7703                           ;tmr1.c: 190: TMR1_WriteTimer(0);
  7704  002AA2  0E00               	movlw	0
  7705  002AA4  6E02               	movwf	TMR1_WriteTimer@timerVal+1,c
  7706  002AA6  0E00               	movlw	0
  7707  002AA8  6E01               	movwf	TMR1_WriteTimer@timerVal,c
  7708  002AAA  EC66  F015         	call	_TMR1_WriteTimer	;wreg free
  7709  002AAE  0012               	return		;funcret
  7710  002AB0                     __end_of_TMR1_DefaultInterruptHandler:
  7711                           	opt stack 0
  7712                           tosu	equ	0xFFF
  7713                           tosh	equ	0xFFE
  7714                           tosl	equ	0xFFD
  7715                           pclatu	equ	0xFFB
  7716                           pclath	equ	0xFFA
  7717                           tblptru	equ	0xFF8
  7718                           tblptrh	equ	0xFF7
  7719                           tblptrl	equ	0xFF6
  7720                           tablat	equ	0xFF5
  7721                           prodh	equ	0xFF4
  7722                           prodl	equ	0xFF3
  7723                           intcon	equ	0xFF2
  7724                           postinc0	equ	0xFEE
  7725                           fsr0h	equ	0xFEA
  7726                           fsr0l	equ	0xFE9
  7727                           wreg	equ	0xFE8
  7728                           postdec1	equ	0xFE5
  7729                           fsr1h	equ	0xFE2
  7730                           fsr1l	equ	0xFE1
  7731                           fsr2h	equ	0xFDA
  7732                           fsr2l	equ	0xFD9
  7733                           status	equ	0xFD8
  7734                           
  7735 ;; *************** function _TMR0_ISR *****************
  7736 ;; Defined at:
  7737 ;;		line 135 in file "mcc_generated_files/tmr0.c"
  7738 ;; Parameters:    Size  Location     Type
  7739 ;;		None
  7740 ;; Auto vars:     Size  Location     Type
  7741 ;;		None
  7742 ;; Return value:  Size  Location     Type
  7743 ;;                  1    wreg      void 
  7744 ;; Registers used:
  7745 ;;		wreg, status,2, status,0, pclath, tosl, cstack
  7746 ;; Tracked objects:
  7747 ;;		On entry : 0/0
  7748 ;;		On exit  : 0/0
  7749 ;;		Unchanged: 0/0
  7750 ;; Data sizes:     COMRAM   BANK0   BANK1   BANK2   BANK3   BANK4   BANK5   BANK6   BANK7   BANK8   BANK9  BANK10  BANK1
      +1  BANK12  BANK13  BANK14
  7751 ;;      Params:         0       0       0       0       0       0       0       0       0       0       0       0       
      +0       0       0       0
  7752 ;;      Locals:         0       0       0       0       0       0       0       0       0       0       0       0       
      +0       0       0       0
  7753 ;;      Temps:          0       0       0       0       0       0       0       0       0       0       0       0       
      +0       0       0       0
  7754 ;;      Totals:         0       0       0       0       0       0       0       0       0       0       0       0       
      +0       0       0       0
  7755 ;;Total ram usage:        0 bytes
  7756 ;; Hardware stack levels used:    1
  7757 ;; Hardware stack levels required when called:    1
  7758 ;; This function calls:
  7759 ;;		Absolute function
  7760 ;;		_TMR0_DefaultInterruptHandler
  7761 ;; This function is called by:
  7762 ;;		_INTERRUPT_InterruptManager
  7763 ;; This function uses a non-reentrant model
  7764 ;;
  7765                           
  7766                           	psect	text54
  7767  002810                     __ptext54:
  7768                           	opt stack 0
  7769  002810                     _TMR0_ISR:
  7770                           	opt stack 24
  7771                           
  7772                           ;tmr0.c: 138: PIR0bits.TMR0IF = 0;
  7773                           
  7774                           ;incstack = 0
  7775  002810  010E               	movlb	14	; () banked
  7776  002812  9BCA               	bcf	202,5,b	;volatile
  7777                           
  7778                           ; BSR set to: 14
  7779                           ;tmr0.c: 140: TMR0H = timer0ReloadVal16bit >> 8;
  7780  002814  0100               	movlb	0	; () banked
  7781  002816  51D1               	movf	(_timer0ReloadVal16bit+1)& (0+255),w,b	;volatile
  7782  002818  6ED4               	movwf	4052,c	;volatile
  7783                           
  7784                           ; BSR set to: 0
  7785                           ;tmr0.c: 141: TMR0L = (uint8_t) timer0ReloadVal16bit;
  7786  00281A  C0D0  FFD3         	movff	_timer0ReloadVal16bit,4051	;volatile
  7787                           
  7788                           ; BSR set to: 0
  7789                           ;tmr0.c: 143: if(TMR0_InterruptHandler)
  7790  00281E  51BD               	movf	_TMR0_InterruptHandler& (0+255),w,b
  7791  002820  11BE               	iorwf	(_TMR0_InterruptHandler+1)& (0+255),w,b
  7792  002822  11BF               	iorwf	(_TMR0_InterruptHandler+2)& (0+255),w,b
  7793  002824  B4D8               	btfsc	status,2,c
  7794  002826  0012               	return	
  7795                           
  7796                           ; BSR set to: 0
  7797                           ;tmr0.c: 144: {
  7798                           ;tmr0.c: 145: TMR0_InterruptHandler();
  7799  002828  D801               	call	i2u514_48
  7800  00282A  0012               	return	
  7801  00282C                     i2u514_48:
  7802  00282C  0005               	push	
  7803  00282E  6EFA               	movwf	pclath,c
  7804  002830  51BD               	movf	_TMR0_InterruptHandler& (0+255),w,b
  7805  002832  6EFD               	movwf	tosl,c
  7806  002834  51BE               	movf	(_TMR0_InterruptHandler+1)& (0+255),w,b
  7807  002836  6EFE               	movwf	tosh,c
  7808  002838  51BF               	movf	(_TMR0_InterruptHandler+2)& (0+255),w,b
  7809  00283A  6EFF               	movwf	tosu,c
  7810  00283C  50FA               	movf	pclath,w,c
  7811  00283E  0012               	return		;indir
  7812  002840                     __end_of_TMR0_ISR:
  7813                           	opt stack 0
  7814                           tosu	equ	0xFFF
  7815                           tosh	equ	0xFFE
  7816                           tosl	equ	0xFFD
  7817                           pclatu	equ	0xFFB
  7818                           pclath	equ	0xFFA
  7819                           tblptru	equ	0xFF8
  7820                           tblptrh	equ	0xFF7
  7821                           tblptrl	equ	0xFF6
  7822                           tablat	equ	0xFF5
  7823                           prodh	equ	0xFF4
  7824                           prodl	equ	0xFF3
  7825                           intcon	equ	0xFF2
  7826                           postinc0	equ	0xFEE
  7827                           fsr0h	equ	0xFEA
  7828                           fsr0l	equ	0xFE9
  7829                           wreg	equ	0xFE8
  7830                           postdec1	equ	0xFE5
  7831                           fsr1h	equ	0xFE2
  7832                           fsr1l	equ	0xFE1
  7833                           fsr2h	equ	0xFDA
  7834                           fsr2l	equ	0xFD9
  7835                           status	equ	0xFD8
  7836                           
  7837 ;; *************** function _TMR0_DefaultInterruptHandler *****************
  7838 ;; Defined at:
  7839 ;;		line 156 in file "mcc_generated_files/tmr0.c"
  7840 ;; Parameters:    Size  Location     Type
  7841 ;;		None
  7842 ;; Auto vars:     Size  Location     Type
  7843 ;;		None
  7844 ;; Return value:  Size  Location     Type
  7845 ;;                  1    wreg      void 
  7846 ;; Registers used:
  7847 ;;		wreg, status,2, status,0
  7848 ;; Tracked objects:
  7849 ;;		On entry : 0/0
  7850 ;;		On exit  : 0/0
  7851 ;;		Unchanged: 0/0
  7852 ;; Data sizes:     COMRAM   BANK0   BANK1   BANK2   BANK3   BANK4   BANK5   BANK6   BANK7   BANK8   BANK9  BANK10  BANK1
      +1  BANK12  BANK13  BANK14
  7853 ;;      Params:         0       0       0       0       0       0       0       0       0       0       0       0       
      +0       0       0       0
  7854 ;;      Locals:         0       0       0       0       0       0       0       0       0       0       0       0       
      +0       0       0       0
  7855 ;;      Temps:          0       0       0       0       0       0       0       0       0       0       0       0       
      +0       0       0       0
  7856 ;;      Totals:         0       0       0       0       0       0       0       0       0       0       0       0       
      +0       0       0       0
  7857 ;;Total ram usage:        0 bytes
  7858 ;; Hardware stack levels used:    1
  7859 ;; This function calls:
  7860 ;;		Nothing
  7861 ;; This function is called by:
  7862 ;;		_TMR0_Initialize
  7863 ;;		_TMR0_ISR
  7864 ;; This function uses a non-reentrant model
  7865 ;;
  7866                           
  7867                           	psect	text55
  7868  002B6C                     __ptext55:
  7869                           	opt stack 0
  7870  002B6C                     _TMR0_DefaultInterruptHandler:
  7871                           	opt stack 24
  7872                           
  7873                           ;tmr0.c: 159: millisec += 1;
  7874                           
  7875                           ;incstack = 0
  7876  002B6C  4A52               	infsnz	_millisec,f,c
  7877  002B6E  2A53               	incf	_millisec+1,f,c
  7878                           
  7879                           ;tmr0.c: 160: millisec_32bits += 1;
  7880  002B70  0E01               	movlw	1
  7881  002B72  0100               	movlb	0	; () banked
  7882  002B74  2787               	addwf	_millisec_32bits& (0+255),f,b
  7883  002B76  0E00               	movlw	0
  7884  002B78  2388               	addwfc	(_millisec_32bits+1)& (0+255),f,b
  7885  002B7A  2389               	addwfc	(_millisec_32bits+2)& (0+255),f,b
  7886  002B7C  238A               	addwfc	(_millisec_32bits+3)& (0+255),f,b
  7887                           
  7888                           ; BSR set to: 0
  7889  002B7E  0012               	return		;funcret
  7890  002B80                     __end_of_TMR0_DefaultInterruptHandler:
  7891                           	opt stack 0
  7892                           tosu	equ	0xFFF
  7893                           tosh	equ	0xFFE
  7894                           tosl	equ	0xFFD
  7895                           pclatu	equ	0xFFB
  7896                           pclath	equ	0xFFA
  7897                           tblptru	equ	0xFF8
  7898                           tblptrh	equ	0xFF7
  7899                           tblptrl	equ	0xFF6
  7900                           tablat	equ	0xFF5
  7901                           prodh	equ	0xFF4
  7902                           prodl	equ	0xFF3
  7903                           intcon	equ	0xFF2
  7904                           postinc0	equ	0xFEE
  7905                           fsr0h	equ	0xFEA
  7906                           fsr0l	equ	0xFE9
  7907                           wreg	equ	0xFE8
  7908                           postdec1	equ	0xFE5
  7909                           fsr1h	equ	0xFE2
  7910                           fsr1l	equ	0xFE1
  7911                           fsr2h	equ	0xFDA
  7912                           fsr2l	equ	0xFD9
  7913                           status	equ	0xFD8
  7914                           
  7915 ;; *************** function _PIN_MANAGER_IOC *****************
  7916 ;; Defined at:
  7917 ;;		line 180 in file "mcc_generated_files/pin_manager.c"
  7918 ;; Parameters:    Size  Location     Type
  7919 ;;		None
  7920 ;; Auto vars:     Size  Location     Type
  7921 ;;		None
  7922 ;; Return value:  Size  Location     Type
  7923 ;;                  1    wreg      void 
  7924 ;; Registers used:
  7925 ;;		wreg, status,2, status,0, pclath, tosl, cstack
  7926 ;; Tracked objects:
  7927 ;;		On entry : 0/0
  7928 ;;		On exit  : 0/0
  7929 ;;		Unchanged: 0/0
  7930 ;; Data sizes:     COMRAM   BANK0   BANK1   BANK2   BANK3   BANK4   BANK5   BANK6   BANK7   BANK8   BANK9  BANK10  BANK1
      +1  BANK12  BANK13  BANK14
  7931 ;;      Params:         0       0       0       0       0       0       0       0       0       0       0       0       
      +0       0       0       0
  7932 ;;      Locals:         0       0       0       0       0       0       0       0       0       0       0       0       
      +0       0       0       0
  7933 ;;      Temps:          0       0       0       0       0       0       0       0       0       0       0       0       
      +0       0       0       0
  7934 ;;      Totals:         0       0       0       0       0       0       0       0       0       0       0       0       
      +0       0       0       0
  7935 ;;Total ram usage:        0 bytes
  7936 ;; Hardware stack levels used:    1
  7937 ;; Hardware stack levels required when called:    3
  7938 ;; This function calls:
  7939 ;;		_IOCAF5_ISR
  7940 ;;		_IOCAF6_ISR
  7941 ;;		_IOCAF7_ISR
  7942 ;;		_IOCCF0_ISR
  7943 ;; This function is called by:
  7944 ;;		_INTERRUPT_InterruptManager
  7945 ;; This function uses a non-reentrant model
  7946 ;;
  7947                           
  7948                           	psect	text56
  7949  0029BA                     __ptext56:
  7950                           	opt stack 0
  7951  0029BA                     _PIN_MANAGER_IOC:
  7952                           	opt stack 22
  7953                           
  7954                           ;pin_manager.c: 183: if(IOCAFbits.IOCAF5 == 1)
  7955                           
  7956                           ; BSR set to: 0
  7957                           ;incstack = 0
  7958  0029BA  010F               	movlb	15	; () banked
  7959  0029BC  BB0A               	btfsc	10,5,b	;volatile
  7960                           
  7961                           ; BSR set to: 15
  7962                           ;pin_manager.c: 184: {
  7963                           ;pin_manager.c: 185: IOCAF5_ISR();
  7964  0029BE  ECA1  F014         	call	_IOCAF5_ISR	;wreg free
  7965                           
  7966                           ;pin_manager.c: 186: }
  7967                           ;pin_manager.c: 188: if(IOCAFbits.IOCAF6 == 1)
  7968  0029C2  010F               	movlb	15	; () banked
  7969  0029C4  BD0A               	btfsc	10,6,b	;volatile
  7970                           
  7971                           ; BSR set to: 15
  7972                           ;pin_manager.c: 189: {
  7973                           ;pin_manager.c: 190: IOCAF6_ISR();
  7974  0029C6  EC8C  F014         	call	_IOCAF6_ISR	;wreg free
  7975                           
  7976                           ;pin_manager.c: 191: }
  7977                           ;pin_manager.c: 193: if(IOCAFbits.IOCAF7 == 1)
  7978  0029CA  010F               	movlb	15	; () banked
  7979  0029CC  BF0A               	btfsc	10,7,b	;volatile
  7980                           
  7981                           ; BSR set to: 15
  7982                           ;pin_manager.c: 194: {
  7983                           ;pin_manager.c: 195: IOCAF7_ISR();
  7984  0029CE  EC77  F014         	call	_IOCAF7_ISR	;wreg free
  7985                           
  7986                           ;pin_manager.c: 196: }
  7987                           ;pin_manager.c: 198: if(IOCCFbits.IOCCF0 == 1)
  7988  0029D2  010F               	movlb	15	; () banked
  7989  0029D4  A11A               	btfss	26,0,b	;volatile
  7990  0029D6  0012               	return	
  7991                           
  7992                           ; BSR set to: 15
  7993                           ;pin_manager.c: 199: {
  7994                           ;pin_manager.c: 200: IOCCF0_ISR();
  7995  0029D8  EC62  F014         	call	_IOCCF0_ISR	;wreg free
  7996  0029DC  0012               	return	
  7997  0029DE                     __end_of_PIN_MANAGER_IOC:
  7998                           	opt stack 0
  7999                           tosu	equ	0xFFF
  8000                           tosh	equ	0xFFE
  8001                           tosl	equ	0xFFD
  8002                           pclatu	equ	0xFFB
  8003                           pclath	equ	0xFFA
  8004                           tblptru	equ	0xFF8
  8005                           tblptrh	equ	0xFF7
  8006                           tblptrl	equ	0xFF6
  8007                           tablat	equ	0xFF5
  8008                           prodh	equ	0xFF4
  8009                           prodl	equ	0xFF3
  8010                           intcon	equ	0xFF2
  8011                           postinc0	equ	0xFEE
  8012                           fsr0h	equ	0xFEA
  8013                           fsr0l	equ	0xFE9
  8014                           wreg	equ	0xFE8
  8015                           postdec1	equ	0xFE5
  8016                           fsr1h	equ	0xFE2
  8017                           fsr1l	equ	0xFE1
  8018                           fsr2h	equ	0xFDA
  8019                           fsr2l	equ	0xFD9
  8020                           status	equ	0xFD8
  8021                           
  8022 ;; *************** function _IOCCF0_ISR *****************
  8023 ;; Defined at:
  8024 ;;		line 322 in file "mcc_generated_files/pin_manager.c"
  8025 ;; Parameters:    Size  Location     Type
  8026 ;;		None
  8027 ;; Auto vars:     Size  Location     Type
  8028 ;;		None
  8029 ;; Return value:  Size  Location     Type
  8030 ;;                  1    wreg      void 
  8031 ;; Registers used:
  8032 ;;		wreg, status,2, status,0, pclath, tosl, cstack
  8033 ;; Tracked objects:
  8034 ;;		On entry : 0/0
  8035 ;;		On exit  : 0/0
  8036 ;;		Unchanged: 0/0
  8037 ;; Data sizes:     COMRAM   BANK0   BANK1   BANK2   BANK3   BANK4   BANK5   BANK6   BANK7   BANK8   BANK9  BANK10  BANK1
      +1  BANK12  BANK13  BANK14
  8038 ;;      Params:         0       0       0       0       0       0       0       0       0       0       0       0       
      +0       0       0       0
  8039 ;;      Locals:         0       0       0       0       0       0       0       0       0       0       0       0       
      +0       0       0       0
  8040 ;;      Temps:          0       0       0       0       0       0       0       0       0       0       0       0       
      +0       0       0       0
  8041 ;;      Totals:         0       0       0       0       0       0       0       0       0       0       0       0       
      +0       0       0       0
  8042 ;;Total ram usage:        0 bytes
  8043 ;; Hardware stack levels used:    1
  8044 ;; Hardware stack levels required when called:    2
  8045 ;; This function calls:
  8046 ;;		Absolute function
  8047 ;;		_IOCCF0_DefaultInterruptHandler
  8048 ;; This function is called by:
  8049 ;;		_PIN_MANAGER_IOC
  8050 ;; This function uses a non-reentrant model
  8051 ;;
  8052                           
  8053                           	psect	text57
  8054  0028C4                     __ptext57:
  8055                           	opt stack 0
  8056  0028C4                     _IOCCF0_ISR:
  8057                           	opt stack 22
  8058                           
  8059                           ;pin_manager.c: 327: if(IOCCF0_InterruptHandler)
  8060                           
  8061                           ;incstack = 0
  8062  0028C4  0100               	movlb	0	; () banked
  8063  0028C6  51C0               	movf	_IOCCF0_InterruptHandler& (0+255),w,b
  8064  0028C8  11C1               	iorwf	(_IOCCF0_InterruptHandler+1)& (0+255),w,b
  8065  0028CA  11C2               	iorwf	(_IOCCF0_InterruptHandler+2)& (0+255),w,b
  8066  0028CC  B4D8               	btfsc	status,2,c
  8067  0028CE  D00C               	goto	i2u479_49
  8068                           
  8069                           ; BSR set to: 0
  8070                           ;pin_manager.c: 328: {
  8071                           ;pin_manager.c: 329: IOCCF0_InterruptHandler();
  8072  0028D0  D801               	call	i2u479_48
  8073  0028D2  D00A               	goto	i2u479_49
  8074  0028D4                     i2u479_48:
  8075  0028D4  0005               	push	
  8076  0028D6  6EFA               	movwf	pclath,c
  8077  0028D8  51C0               	movf	_IOCCF0_InterruptHandler& (0+255),w,b
  8078  0028DA  6EFD               	movwf	tosl,c
  8079  0028DC  51C1               	movf	(_IOCCF0_InterruptHandler+1)& (0+255),w,b
  8080  0028DE  6EFE               	movwf	tosh,c
  8081  0028E0  51C2               	movf	(_IOCCF0_InterruptHandler+2)& (0+255),w,b
  8082  0028E2  6EFF               	movwf	tosu,c
  8083  0028E4  50FA               	movf	pclath,w,c
  8084  0028E6  0012               	return		;indir
  8085  0028E8                     i2u479_49:
  8086                           
  8087                           ;pin_manager.c: 330: }
  8088                           ;pin_manager.c: 331: IOCCFbits.IOCCF0 = 0;
  8089  0028E8  010F               	movlb	15	; () banked
  8090  0028EA  911A               	bcf	26,0,b	;volatile
  8091                           
  8092                           ; BSR set to: 15
  8093  0028EC  0012               	return		;funcret
  8094  0028EE                     __end_of_IOCCF0_ISR:
  8095                           	opt stack 0
  8096                           tosu	equ	0xFFF
  8097                           tosh	equ	0xFFE
  8098                           tosl	equ	0xFFD
  8099                           pclatu	equ	0xFFB
  8100                           pclath	equ	0xFFA
  8101                           tblptru	equ	0xFF8
  8102                           tblptrh	equ	0xFF7
  8103                           tblptrl	equ	0xFF6
  8104                           tablat	equ	0xFF5
  8105                           prodh	equ	0xFF4
  8106                           prodl	equ	0xFF3
  8107                           intcon	equ	0xFF2
  8108                           postinc0	equ	0xFEE
  8109                           fsr0h	equ	0xFEA
  8110                           fsr0l	equ	0xFE9
  8111                           wreg	equ	0xFE8
  8112                           postdec1	equ	0xFE5
  8113                           fsr1h	equ	0xFE2
  8114                           fsr1l	equ	0xFE1
  8115                           fsr2h	equ	0xFDA
  8116                           fsr2l	equ	0xFD9
  8117                           status	equ	0xFD8
  8118                           
  8119 ;; *************** function _IOCCF0_DefaultInterruptHandler *****************
  8120 ;; Defined at:
  8121 ;;		line 344 in file "mcc_generated_files/pin_manager.c"
  8122 ;; Parameters:    Size  Location     Type
  8123 ;;		None
  8124 ;; Auto vars:     Size  Location     Type
  8125 ;;		None
  8126 ;; Return value:  Size  Location     Type
  8127 ;;                  1    wreg      void 
  8128 ;; Registers used:
  8129 ;;		wreg, status,2, status,0, cstack
  8130 ;; Tracked objects:
  8131 ;;		On entry : 0/0
  8132 ;;		On exit  : 0/0
  8133 ;;		Unchanged: 0/0
  8134 ;; Data sizes:     COMRAM   BANK0   BANK1   BANK2   BANK3   BANK4   BANK5   BANK6   BANK7   BANK8   BANK9  BANK10  BANK1
      +1  BANK12  BANK13  BANK14
  8135 ;;      Params:         0       0       0       0       0       0       0       0       0       0       0       0       
      +0       0       0       0
  8136 ;;      Locals:         0       0       0       0       0       0       0       0       0       0       0       0       
      +0       0       0       0
  8137 ;;      Temps:          0       0       0       0       0       0       0       0       0       0       0       0       
      +0       0       0       0
  8138 ;;      Totals:         0       0       0       0       0       0       0       0       0       0       0       0       
      +0       0       0       0
  8139 ;;Total ram usage:        0 bytes
  8140 ;; Hardware stack levels used:    1
  8141 ;; Hardware stack levels required when called:    1
  8142 ;; This function calls:
  8143 ;;		_TMR3_ReadTimer
  8144 ;;		_TMR3_StartTimer
  8145 ;;		_TMR3_StopTimer
  8146 ;;		_TMR3_WriteTimer
  8147 ;;		___aldiv
  8148 ;; This function is called by:
  8149 ;;		_PIN_MANAGER_Initialize
  8150 ;;		_IOCCF0_ISR
  8151 ;; This function uses a non-reentrant model
  8152 ;;
  8153                           
  8154                           	psect	text58
  8155  002432                     __ptext58:
  8156                           	opt stack 0
  8157  002432                     _IOCCF0_DefaultInterruptHandler:
  8158                           	opt stack 22
  8159                           
  8160                           ;pin_manager.c: 347: TMR3_StopTimer();
  8161                           
  8162                           ; BSR set to: 15
  8163                           ;incstack = 0
  8164  002432  EC40  F016         	call	_TMR3_StopTimer	;wreg free
  8165                           
  8166                           ;pin_manager.c: 349: Vitesse_Moteur_D = 87000 /TMR3_ReadTimer();
  8167  002436  0ED8               	movlw	216
  8168  002438  6E09               	movwf	___aldiv@dividend,c
  8169  00243A  0E53               	movlw	83
  8170  00243C  6E0A               	movwf	___aldiv@dividend+1,c
  8171  00243E  0E01               	movlw	1
  8172  002440  6E0B               	movwf	___aldiv@dividend+2,c
  8173  002442  0E00               	movlw	0
  8174  002444  6E0C               	movwf	___aldiv@dividend+3,c
  8175  002446  ECFF  F014         	call	_TMR3_ReadTimer	;wreg free
  8176  00244A  C001  F00D         	movff	?_TMR3_ReadTimer,___aldiv@divisor
  8177  00244E  C002  F00E         	movff	?_TMR3_ReadTimer+1,___aldiv@divisor+1
  8178  002452  6A0F               	clrf	___aldiv@divisor+2,c
  8179  002454  6A10               	clrf	___aldiv@divisor+3,c
  8180  002456  EC74  F010         	call	___aldiv	;wreg free
  8181  00245A  C009  F09D         	movff	?___aldiv,_Vitesse_Moteur_D
  8182  00245E  C00A  F09E         	movff	?___aldiv+1,_Vitesse_Moteur_D+1
  8183                           
  8184                           ;pin_manager.c: 350: if (PORTDbits.RD0 == 1)
  8185  002462  A090               	btfss	3984,0,c	;volatile
  8186  002464  D005               	goto	i2l630
  8187                           
  8188                           ;pin_manager.c: 351: {
  8189                           ;pin_manager.c: 352: Vitesse_Moteur_D = -Vitesse_Moteur_D;
  8190  002466  0100               	movlb	0	; () banked
  8191  002468  6D9D               	negf	_Vitesse_Moteur_D& (0+255),b
  8192  00246A  1F9E               	comf	(_Vitesse_Moteur_D+1)& (0+255),f,b
  8193  00246C  B0D8               	btfsc	status,0,c
  8194  00246E  2B9E               	incf	(_Vitesse_Moteur_D+1)& (0+255),f,b
  8195  002470                     i2l630:
  8196                           
  8197                           ;pin_manager.c: 357: }
  8198                           ;pin_manager.c: 358: TMR3_WriteTimer(0);
  8199                           
  8200                           ; BSR set to: 0
  8201                           
  8202                           ;pin_manager.c: 354: else
  8203                           ;pin_manager.c: 355: {
  8204                           
  8205                           ; BSR set to: 0
  8206  002470  0E00               	movlw	0
  8207  002472  6E02               	movwf	TMR3_WriteTimer@timerVal+1,c
  8208  002474  0E00               	movlw	0
  8209  002476  6E01               	movwf	TMR3_WriteTimer@timerVal,c
  8210  002478  EC58  F015         	call	_TMR3_WriteTimer	;wreg free
  8211                           
  8212                           ;pin_manager.c: 359: TMR3_StartTimer();
  8213  00247C  EC42  F016         	call	_TMR3_StartTimer	;wreg free
  8214  002480  0012               	return		;funcret
  8215  002482                     __end_of_IOCCF0_DefaultInterruptHandler:
  8216                           	opt stack 0
  8217                           tosu	equ	0xFFF
  8218                           tosh	equ	0xFFE
  8219                           tosl	equ	0xFFD
  8220                           pclatu	equ	0xFFB
  8221                           pclath	equ	0xFFA
  8222                           tblptru	equ	0xFF8
  8223                           tblptrh	equ	0xFF7
  8224                           tblptrl	equ	0xFF6
  8225                           tablat	equ	0xFF5
  8226                           prodh	equ	0xFF4
  8227                           prodl	equ	0xFF3
  8228                           intcon	equ	0xFF2
  8229                           postinc0	equ	0xFEE
  8230                           fsr0h	equ	0xFEA
  8231                           fsr0l	equ	0xFE9
  8232                           wreg	equ	0xFE8
  8233                           postdec1	equ	0xFE5
  8234                           fsr1h	equ	0xFE2
  8235                           fsr1l	equ	0xFE1
  8236                           fsr2h	equ	0xFDA
  8237                           fsr2l	equ	0xFD9
  8238                           status	equ	0xFD8
  8239                           
  8240 ;; *************** function _TMR3_WriteTimer *****************
  8241 ;; Defined at:
  8242 ;;		line 129 in file "mcc_generated_files/tmr3.c"
  8243 ;; Parameters:    Size  Location     Type
  8244 ;;  timerVal        2    0[COMRAM] unsigned int 
  8245 ;; Auto vars:     Size  Location     Type
  8246 ;;		None
  8247 ;; Return value:  Size  Location     Type
  8248 ;;                  1    wreg      void 
  8249 ;; Registers used:
  8250 ;;		wreg, status,2
  8251 ;; Tracked objects:
  8252 ;;		On entry : 0/0
  8253 ;;		On exit  : 0/0
  8254 ;;		Unchanged: 0/0
  8255 ;; Data sizes:     COMRAM   BANK0   BANK1   BANK2   BANK3   BANK4   BANK5   BANK6   BANK7   BANK8   BANK9  BANK10  BANK1
      +1  BANK12  BANK13  BANK14
  8256 ;;      Params:         2       0       0       0       0       0       0       0       0       0       0       0       
      +0       0       0       0
  8257 ;;      Locals:         0       0       0       0       0       0       0       0       0       0       0       0       
      +0       0       0       0
  8258 ;;      Temps:          0       0       0       0       0       0       0       0       0       0       0       0       
      +0       0       0       0
  8259 ;;      Totals:         2       0       0       0       0       0       0       0       0       0       0       0       
      +0       0       0       0
  8260 ;;Total ram usage:        2 bytes
  8261 ;; Hardware stack levels used:    1
  8262 ;; This function calls:
  8263 ;;		Nothing
  8264 ;; This function is called by:
  8265 ;;		_IOCCF0_DefaultInterruptHandler
  8266 ;;		_TMR3_ISR
  8267 ;;		_TMR3_DefaultInterruptHandler
  8268 ;;		_TMR3_Reload
  8269 ;; This function uses a non-reentrant model
  8270 ;;
  8271                           
  8272                           	psect	text59
  8273  002AB0                     __ptext59:
  8274                           	opt stack 0
  8275  002AB0                     _TMR3_WriteTimer:
  8276                           	opt stack 24
  8277                           
  8278                           ;tmr3.c: 131: if (T3CONbits.nT3SYNC == 1)
  8279                           
  8280                           ;incstack = 0
  8281  002AB0  A4C9               	btfss	4041,2,c	;volatile
  8282  002AB2  D007               	goto	i2l1624
  8283                           
  8284                           ;tmr3.c: 132: {
  8285                           ;tmr3.c: 134: T3CONbits.TMR3ON = 0;
  8286  002AB4  90C9               	bcf	4041,0,c	;volatile
  8287                           
  8288                           ;tmr3.c: 137: TMR3H = (timerVal >> 8);
  8289  002AB6  5002               	movf	TMR3_WriteTimer@timerVal+1,w,c
  8290  002AB8  6EC8               	movwf	4040,c	;volatile
  8291                           
  8292                           ;tmr3.c: 138: TMR3L = timerVal;
  8293  002ABA  C001  FFC7         	movff	TMR3_WriteTimer@timerVal,4039	;volatile
  8294                           
  8295                           ;tmr3.c: 141: T3CONbits.TMR3ON =1;
  8296  002ABE  80C9               	bsf	4041,0,c	;volatile
  8297                           
  8298                           ;tmr3.c: 142: }
  8299  002AC0  0012               	return	
  8300  002AC2                     i2l1624:
  8301                           
  8302                           ;tmr3.c: 143: else
  8303                           ;tmr3.c: 144: {
  8304                           ;tmr3.c: 146: TMR3H = (timerVal >> 8);
  8305  002AC2  5002               	movf	TMR3_WriteTimer@timerVal+1,w,c
  8306  002AC4  6EC8               	movwf	4040,c	;volatile
  8307                           
  8308                           ;tmr3.c: 147: TMR3L = timerVal;
  8309  002AC6  C001  FFC7         	movff	TMR3_WriteTimer@timerVal,4039	;volatile
  8310  002ACA  0012               	return	
  8311  002ACC                     __end_of_TMR3_WriteTimer:
  8312                           	opt stack 0
  8313                           tosu	equ	0xFFF
  8314                           tosh	equ	0xFFE
  8315                           tosl	equ	0xFFD
  8316                           pclatu	equ	0xFFB
  8317                           pclath	equ	0xFFA
  8318                           tblptru	equ	0xFF8
  8319                           tblptrh	equ	0xFF7
  8320                           tblptrl	equ	0xFF6
  8321                           tablat	equ	0xFF5
  8322                           prodh	equ	0xFF4
  8323                           prodl	equ	0xFF3
  8324                           intcon	equ	0xFF2
  8325                           postinc0	equ	0xFEE
  8326                           fsr0h	equ	0xFEA
  8327                           fsr0l	equ	0xFE9
  8328                           wreg	equ	0xFE8
  8329                           postdec1	equ	0xFE5
  8330                           fsr1h	equ	0xFE2
  8331                           fsr1l	equ	0xFE1
  8332                           fsr2h	equ	0xFDA
  8333                           fsr2l	equ	0xFD9
  8334                           status	equ	0xFD8
  8335                           
  8336 ;; *************** function _TMR3_StopTimer *****************
  8337 ;; Defined at:
  8338 ;;		line 107 in file "mcc_generated_files/tmr3.c"
  8339 ;; Parameters:    Size  Location     Type
  8340 ;;		None
  8341 ;; Auto vars:     Size  Location     Type
  8342 ;;		None
  8343 ;; Return value:  Size  Location     Type
  8344 ;;                  1    wreg      void 
  8345 ;; Registers used:
  8346 ;;		None
  8347 ;; Tracked objects:
  8348 ;;		On entry : 0/0
  8349 ;;		On exit  : 0/0
  8350 ;;		Unchanged: 0/0
  8351 ;; Data sizes:     COMRAM   BANK0   BANK1   BANK2   BANK3   BANK4   BANK5   BANK6   BANK7   BANK8   BANK9  BANK10  BANK1
      +1  BANK12  BANK13  BANK14
  8352 ;;      Params:         0       0       0       0       0       0       0       0       0       0       0       0       
      +0       0       0       0
  8353 ;;      Locals:         0       0       0       0       0       0       0       0       0       0       0       0       
      +0       0       0       0
  8354 ;;      Temps:          0       0       0       0       0       0       0       0       0       0       0       0       
      +0       0       0       0
  8355 ;;      Totals:         0       0       0       0       0       0       0       0       0       0       0       0       
      +0       0       0       0
  8356 ;;Total ram usage:        0 bytes
  8357 ;; Hardware stack levels used:    1
  8358 ;; This function calls:
  8359 ;;		Nothing
  8360 ;; This function is called by:
  8361 ;;		_IOCCF0_DefaultInterruptHandler
  8362 ;;		_TMR3_DefaultInterruptHandler
  8363 ;; This function uses a non-reentrant model
  8364 ;;
  8365                           
  8366                           	psect	text60
  8367  002C80                     __ptext60:
  8368                           	opt stack 0
  8369  002C80                     _TMR3_StopTimer:
  8370                           	opt stack 23
  8371                           
  8372                           ;tmr3.c: 110: T3CONbits.TMR3ON = 0;
  8373                           
  8374                           ;incstack = 0
  8375  002C80  90C9               	bcf	4041,0,c	;volatile
  8376  002C82  0012               	return		;funcret
  8377  002C84                     __end_of_TMR3_StopTimer:
  8378                           	opt stack 0
  8379                           tosu	equ	0xFFF
  8380                           tosh	equ	0xFFE
  8381                           tosl	equ	0xFFD
  8382                           pclatu	equ	0xFFB
  8383                           pclath	equ	0xFFA
  8384                           tblptru	equ	0xFF8
  8385                           tblptrh	equ	0xFF7
  8386                           tblptrl	equ	0xFF6
  8387                           tablat	equ	0xFF5
  8388                           prodh	equ	0xFF4
  8389                           prodl	equ	0xFF3
  8390                           intcon	equ	0xFF2
  8391                           postinc0	equ	0xFEE
  8392                           fsr0h	equ	0xFEA
  8393                           fsr0l	equ	0xFE9
  8394                           wreg	equ	0xFE8
  8395                           postdec1	equ	0xFE5
  8396                           fsr1h	equ	0xFE2
  8397                           fsr1l	equ	0xFE1
  8398                           fsr2h	equ	0xFDA
  8399                           fsr2l	equ	0xFD9
  8400                           status	equ	0xFD8
  8401                           
  8402 ;; *************** function _TMR3_StartTimer *****************
  8403 ;; Defined at:
  8404 ;;		line 101 in file "mcc_generated_files/tmr3.c"
  8405 ;; Parameters:    Size  Location     Type
  8406 ;;		None
  8407 ;; Auto vars:     Size  Location     Type
  8408 ;;		None
  8409 ;; Return value:  Size  Location     Type
  8410 ;;                  1    wreg      void 
  8411 ;; Registers used:
  8412 ;;		None
  8413 ;; Tracked objects:
  8414 ;;		On entry : 0/0
  8415 ;;		On exit  : 0/0
  8416 ;;		Unchanged: 0/0
  8417 ;; Data sizes:     COMRAM   BANK0   BANK1   BANK2   BANK3   BANK4   BANK5   BANK6   BANK7   BANK8   BANK9  BANK10  BANK1
      +1  BANK12  BANK13  BANK14
  8418 ;;      Params:         0       0       0       0       0       0       0       0       0       0       0       0       
      +0       0       0       0
  8419 ;;      Locals:         0       0       0       0       0       0       0       0       0       0       0       0       
      +0       0       0       0
  8420 ;;      Temps:          0       0       0       0       0       0       0       0       0       0       0       0       
      +0       0       0       0
  8421 ;;      Totals:         0       0       0       0       0       0       0       0       0       0       0       0       
      +0       0       0       0
  8422 ;;Total ram usage:        0 bytes
  8423 ;; Hardware stack levels used:    1
  8424 ;; This function calls:
  8425 ;;		Nothing
  8426 ;; This function is called by:
  8427 ;;		_IOCCF0_DefaultInterruptHandler
  8428 ;; This function uses a non-reentrant model
  8429 ;;
  8430                           
  8431                           	psect	text61
  8432  002C84                     __ptext61:
  8433                           	opt stack 0
  8434  002C84                     _TMR3_StartTimer:
  8435                           	opt stack 22
  8436                           
  8437                           ;tmr3.c: 104: T3CONbits.TMR3ON = 1;
  8438                           
  8439                           ;incstack = 0
  8440  002C84  80C9               	bsf	4041,0,c	;volatile
  8441  002C86  0012               	return		;funcret
  8442  002C88                     __end_of_TMR3_StartTimer:
  8443                           	opt stack 0
  8444                           tosu	equ	0xFFF
  8445                           tosh	equ	0xFFE
  8446                           tosl	equ	0xFFD
  8447                           pclatu	equ	0xFFB
  8448                           pclath	equ	0xFFA
  8449                           tblptru	equ	0xFF8
  8450                           tblptrh	equ	0xFF7
  8451                           tblptrl	equ	0xFF6
  8452                           tablat	equ	0xFF5
  8453                           prodh	equ	0xFF4
  8454                           prodl	equ	0xFF3
  8455                           intcon	equ	0xFF2
  8456                           postinc0	equ	0xFEE
  8457                           fsr0h	equ	0xFEA
  8458                           fsr0l	equ	0xFE9
  8459                           wreg	equ	0xFE8
  8460                           postdec1	equ	0xFE5
  8461                           fsr1h	equ	0xFE2
  8462                           fsr1l	equ	0xFE1
  8463                           fsr2h	equ	0xFDA
  8464                           fsr2l	equ	0xFD9
  8465                           status	equ	0xFD8
  8466                           
  8467 ;; *************** function _TMR3_ReadTimer *****************
  8468 ;; Defined at:
  8469 ;;		line 113 in file "mcc_generated_files/tmr3.c"
  8470 ;; Parameters:    Size  Location     Type
  8471 ;;		None
  8472 ;; Auto vars:     Size  Location     Type
  8473 ;;  readVal         2    4[COMRAM] unsigned int 
  8474 ;;  readValLow      1    7[COMRAM] unsigned char 
  8475 ;;  readValHigh     1    6[COMRAM] unsigned char 
  8476 ;; Return value:  Size  Location     Type
  8477 ;;                  2    0[COMRAM] unsigned int 
  8478 ;; Registers used:
  8479 ;;		wreg, status,2
  8480 ;; Tracked objects:
  8481 ;;		On entry : 0/0
  8482 ;;		On exit  : 0/0
  8483 ;;		Unchanged: 0/0
  8484 ;; Data sizes:     COMRAM   BANK0   BANK1   BANK2   BANK3   BANK4   BANK5   BANK6   BANK7   BANK8   BANK9  BANK10  BANK1
      +1  BANK12  BANK13  BANK14
  8485 ;;      Params:         2       0       0       0       0       0       0       0       0       0       0       0       
      +0       0       0       0
  8486 ;;      Locals:         4       0       0       0       0       0       0       0       0       0       0       0       
      +0       0       0       0
  8487 ;;      Temps:          2       0       0       0       0       0       0       0       0       0       0       0       
      +0       0       0       0
  8488 ;;      Totals:         8       0       0       0       0       0       0       0       0       0       0       0       
      +0       0       0       0
  8489 ;;Total ram usage:        8 bytes
  8490 ;; Hardware stack levels used:    1
  8491 ;; This function calls:
  8492 ;;		Nothing
  8493 ;; This function is called by:
  8494 ;;		_IOCCF0_DefaultInterruptHandler
  8495 ;; This function uses a non-reentrant model
  8496 ;;
  8497                           
  8498                           	psect	text62
  8499  0029FE                     __ptext62:
  8500                           	opt stack 0
  8501  0029FE                     _TMR3_ReadTimer:
  8502                           	opt stack 22
  8503                           
  8504                           ;tmr3.c: 115: uint16_t readVal;
  8505                           ;tmr3.c: 116: uint8_t readValHigh;
  8506                           ;tmr3.c: 117: uint8_t readValLow;
  8507                           ;tmr3.c: 119: T3CONbits.T3RD16 = 1;
  8508                           
  8509                           ;incstack = 0
  8510  0029FE  82C9               	bsf	4041,1,c	;volatile
  8511                           
  8512                           ;tmr3.c: 121: readValLow = TMR3L;
  8513  002A00  CFC7 F008          	movff	4039,TMR3_ReadTimer@readValLow	;volatile
  8514                           
  8515                           ;tmr3.c: 122: readValHigh = TMR3H;
  8516  002A04  CFC8 F007          	movff	4040,TMR3_ReadTimer@readValHigh	;volatile
  8517                           
  8518                           ;tmr3.c: 124: readVal = ((uint16_t)readValHigh << 8) | readValLow;
  8519  002A08  5007               	movf	TMR3_ReadTimer@readValHigh,w,c
  8520  002A0A  6E03               	movwf	??_TMR3_ReadTimer& (0+255),c
  8521  002A0C  5008               	movf	TMR3_ReadTimer@readValLow,w,c
  8522  002A0E  6E05               	movwf	TMR3_ReadTimer@readVal,c
  8523  002A10  C003  F006         	movff	??_TMR3_ReadTimer,TMR3_ReadTimer@readVal+1
  8524                           
  8525                           ;tmr3.c: 126: return readVal;
  8526  002A14  C005  F001         	movff	TMR3_ReadTimer@readVal,?_TMR3_ReadTimer
  8527  002A18  C006  F002         	movff	TMR3_ReadTimer@readVal+1,?_TMR3_ReadTimer+1
  8528  002A1C  0012               	return	
  8529  002A1E                     __end_of_TMR3_ReadTimer:
  8530                           	opt stack 0
  8531                           tosu	equ	0xFFF
  8532                           tosh	equ	0xFFE
  8533                           tosl	equ	0xFFD
  8534                           pclatu	equ	0xFFB
  8535                           pclath	equ	0xFFA
  8536                           tblptru	equ	0xFF8
  8537                           tblptrh	equ	0xFF7
  8538                           tblptrl	equ	0xFF6
  8539                           tablat	equ	0xFF5
  8540                           prodh	equ	0xFF4
  8541                           prodl	equ	0xFF3
  8542                           intcon	equ	0xFF2
  8543                           postinc0	equ	0xFEE
  8544                           fsr0h	equ	0xFEA
  8545                           fsr0l	equ	0xFE9
  8546                           wreg	equ	0xFE8
  8547                           postdec1	equ	0xFE5
  8548                           fsr1h	equ	0xFE2
  8549                           fsr1l	equ	0xFE1
  8550                           fsr2h	equ	0xFDA
  8551                           fsr2l	equ	0xFD9
  8552                           status	equ	0xFD8
  8553                           
  8554 ;; *************** function _IOCAF7_ISR *****************
  8555 ;; Defined at:
  8556 ;;		line 292 in file "mcc_generated_files/pin_manager.c"
  8557 ;; Parameters:    Size  Location     Type
  8558 ;;		None
  8559 ;; Auto vars:     Size  Location     Type
  8560 ;;		None
  8561 ;; Return value:  Size  Location     Type
  8562 ;;                  1    wreg      void 
  8563 ;; Registers used:
  8564 ;;		wreg, status,2, status,0, pclath, tosl, cstack
  8565 ;; Tracked objects:
  8566 ;;		On entry : 0/0
  8567 ;;		On exit  : 0/0
  8568 ;;		Unchanged: 0/0
  8569 ;; Data sizes:     COMRAM   BANK0   BANK1   BANK2   BANK3   BANK4   BANK5   BANK6   BANK7   BANK8   BANK9  BANK10  BANK1
      +1  BANK12  BANK13  BANK14
  8570 ;;      Params:         0       0       0       0       0       0       0       0       0       0       0       0       
      +0       0       0       0
  8571 ;;      Locals:         0       0       0       0       0       0       0       0       0       0       0       0       
      +0       0       0       0
  8572 ;;      Temps:          0       0       0       0       0       0       0       0       0       0       0       0       
      +0       0       0       0
  8573 ;;      Totals:         0       0       0       0       0       0       0       0       0       0       0       0       
      +0       0       0       0
  8574 ;;Total ram usage:        0 bytes
  8575 ;; Hardware stack levels used:    1
  8576 ;; Hardware stack levels required when called:    1
  8577 ;; This function calls:
  8578 ;;		Absolute function
  8579 ;;		_IOCAF7_DefaultInterruptHandler
  8580 ;; This function is called by:
  8581 ;;		_PIN_MANAGER_IOC
  8582 ;; This function uses a non-reentrant model
  8583 ;;
  8584                           
  8585                           	psect	text63
  8586  0028EE                     __ptext63:
  8587                           	opt stack 0
  8588  0028EE                     _IOCAF7_ISR:
  8589                           	opt stack 23
  8590                           
  8591                           ;pin_manager.c: 297: if(IOCAF7_InterruptHandler)
  8592                           
  8593                           ;incstack = 0
  8594  0028EE  0100               	movlb	0	; () banked
  8595  0028F0  51C3               	movf	_IOCAF7_InterruptHandler& (0+255),w,b
  8596  0028F2  11C4               	iorwf	(_IOCAF7_InterruptHandler+1)& (0+255),w,b
  8597  0028F4  11C5               	iorwf	(_IOCAF7_InterruptHandler+2)& (0+255),w,b
  8598  0028F6  B4D8               	btfsc	status,2,c
  8599  0028F8  D00C               	goto	i2u477_49
  8600                           
  8601                           ; BSR set to: 0
  8602                           ;pin_manager.c: 298: {
  8603                           ;pin_manager.c: 299: IOCAF7_InterruptHandler();
  8604  0028FA  D801               	call	i2u477_48
  8605  0028FC  D00A               	goto	i2u477_49
  8606  0028FE                     i2u477_48:
  8607  0028FE  0005               	push	
  8608  002900  6EFA               	movwf	pclath,c
  8609  002902  51C3               	movf	_IOCAF7_InterruptHandler& (0+255),w,b
  8610  002904  6EFD               	movwf	tosl,c
  8611  002906  51C4               	movf	(_IOCAF7_InterruptHandler+1)& (0+255),w,b
  8612  002908  6EFE               	movwf	tosh,c
  8613  00290A  51C5               	movf	(_IOCAF7_InterruptHandler+2)& (0+255),w,b
  8614  00290C  6EFF               	movwf	tosu,c
  8615  00290E  50FA               	movf	pclath,w,c
  8616  002910  0012               	return		;indir
  8617  002912                     i2u477_49:
  8618                           
  8619                           ;pin_manager.c: 300: }
  8620                           ;pin_manager.c: 301: IOCAFbits.IOCAF7 = 0;
  8621  002912  010F               	movlb	15	; () banked
  8622  002914  9F0A               	bcf	10,7,b	;volatile
  8623                           
  8624                           ; BSR set to: 15
  8625  002916  0012               	return		;funcret
  8626  002918                     __end_of_IOCAF7_ISR:
  8627                           	opt stack 0
  8628                           tosu	equ	0xFFF
  8629                           tosh	equ	0xFFE
  8630                           tosl	equ	0xFFD
  8631                           pclatu	equ	0xFFB
  8632                           pclath	equ	0xFFA
  8633                           tblptru	equ	0xFF8
  8634                           tblptrh	equ	0xFF7
  8635                           tblptrl	equ	0xFF6
  8636                           tablat	equ	0xFF5
  8637                           prodh	equ	0xFF4
  8638                           prodl	equ	0xFF3
  8639                           intcon	equ	0xFF2
  8640                           postinc0	equ	0xFEE
  8641                           fsr0h	equ	0xFEA
  8642                           fsr0l	equ	0xFE9
  8643                           wreg	equ	0xFE8
  8644                           postdec1	equ	0xFE5
  8645                           fsr1h	equ	0xFE2
  8646                           fsr1l	equ	0xFE1
  8647                           fsr2h	equ	0xFDA
  8648                           fsr2l	equ	0xFD9
  8649                           status	equ	0xFD8
  8650                           
  8651 ;; *************** function _IOCAF7_DefaultInterruptHandler *****************
  8652 ;; Defined at:
  8653 ;;		line 314 in file "mcc_generated_files/pin_manager.c"
  8654 ;; Parameters:    Size  Location     Type
  8655 ;;		None
  8656 ;; Auto vars:     Size  Location     Type
  8657 ;;		None
  8658 ;; Return value:  Size  Location     Type
  8659 ;;                  1    wreg      void 
  8660 ;; Registers used:
  8661 ;;		None
  8662 ;; Tracked objects:
  8663 ;;		On entry : 0/0
  8664 ;;		On exit  : 0/0
  8665 ;;		Unchanged: 0/0
  8666 ;; Data sizes:     COMRAM   BANK0   BANK1   BANK2   BANK3   BANK4   BANK5   BANK6   BANK7   BANK8   BANK9  BANK10  BANK1
      +1  BANK12  BANK13  BANK14
  8667 ;;      Params:         0       0       0       0       0       0       0       0       0       0       0       0       
      +0       0       0       0
  8668 ;;      Locals:         0       0       0       0       0       0       0       0       0       0       0       0       
      +0       0       0       0
  8669 ;;      Temps:          0       0       0       0       0       0       0       0       0       0       0       0       
      +0       0       0       0
  8670 ;;      Totals:         0       0       0       0       0       0       0       0       0       0       0       0       
      +0       0       0       0
  8671 ;;Total ram usage:        0 bytes
  8672 ;; Hardware stack levels used:    1
  8673 ;; This function calls:
  8674 ;;		Nothing
  8675 ;; This function is called by:
  8676 ;;		_PIN_MANAGER_Initialize
  8677 ;;		_IOCAF7_ISR
  8678 ;; This function uses a non-reentrant model
  8679 ;;
  8680                           
  8681                           	psect	text64
  8682  002C90                     __ptext64:
  8683                           	opt stack 0
  8684  002C90                     _IOCAF7_DefaultInterruptHandler:
  8685                           	opt stack 23
  8686                           
  8687                           ; BSR set to: 15
  8688                           ;incstack = 0
  8689  002C90  0012               	return		;funcret
  8690  002C92                     __end_of_IOCAF7_DefaultInterruptHandler:
  8691                           	opt stack 0
  8692                           tosu	equ	0xFFF
  8693                           tosh	equ	0xFFE
  8694                           tosl	equ	0xFFD
  8695                           pclatu	equ	0xFFB
  8696                           pclath	equ	0xFFA
  8697                           tblptru	equ	0xFF8
  8698                           tblptrh	equ	0xFF7
  8699                           tblptrl	equ	0xFF6
  8700                           tablat	equ	0xFF5
  8701                           prodh	equ	0xFF4
  8702                           prodl	equ	0xFF3
  8703                           intcon	equ	0xFF2
  8704                           postinc0	equ	0xFEE
  8705                           fsr0h	equ	0xFEA
  8706                           fsr0l	equ	0xFE9
  8707                           wreg	equ	0xFE8
  8708                           postdec1	equ	0xFE5
  8709                           fsr1h	equ	0xFE2
  8710                           fsr1l	equ	0xFE1
  8711                           fsr2h	equ	0xFDA
  8712                           fsr2l	equ	0xFD9
  8713                           status	equ	0xFD8
  8714                           
  8715 ;; *************** function _IOCAF6_ISR *****************
  8716 ;; Defined at:
  8717 ;;		line 251 in file "mcc_generated_files/pin_manager.c"
  8718 ;; Parameters:    Size  Location     Type
  8719 ;;		None
  8720 ;; Auto vars:     Size  Location     Type
  8721 ;;		None
  8722 ;; Return value:  Size  Location     Type
  8723 ;;                  1    wreg      void 
  8724 ;; Registers used:
  8725 ;;		wreg, status,2, status,0, pclath, tosl, cstack
  8726 ;; Tracked objects:
  8727 ;;		On entry : 0/0
  8728 ;;		On exit  : 0/0
  8729 ;;		Unchanged: 0/0
  8730 ;; Data sizes:     COMRAM   BANK0   BANK1   BANK2   BANK3   BANK4   BANK5   BANK6   BANK7   BANK8   BANK9  BANK10  BANK1
      +1  BANK12  BANK13  BANK14
  8731 ;;      Params:         0       0       0       0       0       0       0       0       0       0       0       0       
      +0       0       0       0
  8732 ;;      Locals:         0       0       0       0       0       0       0       0       0       0       0       0       
      +0       0       0       0
  8733 ;;      Temps:          0       0       0       0       0       0       0       0       0       0       0       0       
      +0       0       0       0
  8734 ;;      Totals:         0       0       0       0       0       0       0       0       0       0       0       0       
      +0       0       0       0
  8735 ;;Total ram usage:        0 bytes
  8736 ;; Hardware stack levels used:    1
  8737 ;; Hardware stack levels required when called:    1
  8738 ;; This function calls:
  8739 ;;		Absolute function
  8740 ;;		_IOCAF6_DefaultInterruptHandler
  8741 ;; This function is called by:
  8742 ;;		_PIN_MANAGER_IOC
  8743 ;; This function uses a non-reentrant model
  8744 ;;
  8745                           
  8746                           	psect	text65
  8747  002918                     __ptext65:
  8748                           	opt stack 0
  8749  002918                     _IOCAF6_ISR:
  8750                           	opt stack 23
  8751                           
  8752                           ;pin_manager.c: 256: if(IOCAF6_InterruptHandler)
  8753                           
  8754                           ;incstack = 0
  8755  002918  0100               	movlb	0	; () banked
  8756  00291A  51C6               	movf	_IOCAF6_InterruptHandler& (0+255),w,b
  8757  00291C  11C7               	iorwf	(_IOCAF6_InterruptHandler+1)& (0+255),w,b
  8758  00291E  11C8               	iorwf	(_IOCAF6_InterruptHandler+2)& (0+255),w,b
  8759  002920  B4D8               	btfsc	status,2,c
  8760  002922  D00C               	goto	i2u475_49
  8761                           
  8762                           ; BSR set to: 0
  8763                           ;pin_manager.c: 257: {
  8764                           ;pin_manager.c: 258: IOCAF6_InterruptHandler();
  8765  002924  D801               	call	i2u475_48
  8766  002926  D00A               	goto	i2u475_49
  8767  002928                     i2u475_48:
  8768  002928  0005               	push	
  8769  00292A  6EFA               	movwf	pclath,c
  8770  00292C  51C6               	movf	_IOCAF6_InterruptHandler& (0+255),w,b
  8771  00292E  6EFD               	movwf	tosl,c
  8772  002930  51C7               	movf	(_IOCAF6_InterruptHandler+1)& (0+255),w,b
  8773  002932  6EFE               	movwf	tosh,c
  8774  002934  51C8               	movf	(_IOCAF6_InterruptHandler+2)& (0+255),w,b
  8775  002936  6EFF               	movwf	tosu,c
  8776  002938  50FA               	movf	pclath,w,c
  8777  00293A  0012               	return		;indir
  8778  00293C                     i2u475_49:
  8779                           
  8780                           ;pin_manager.c: 259: }
  8781                           ;pin_manager.c: 260: IOCAFbits.IOCAF6 = 0;
  8782  00293C  010F               	movlb	15	; () banked
  8783  00293E  9D0A               	bcf	10,6,b	;volatile
  8784                           
  8785                           ; BSR set to: 15
  8786  002940  0012               	return		;funcret
  8787  002942                     __end_of_IOCAF6_ISR:
  8788                           	opt stack 0
  8789                           tosu	equ	0xFFF
  8790                           tosh	equ	0xFFE
  8791                           tosl	equ	0xFFD
  8792                           pclatu	equ	0xFFB
  8793                           pclath	equ	0xFFA
  8794                           tblptru	equ	0xFF8
  8795                           tblptrh	equ	0xFF7
  8796                           tblptrl	equ	0xFF6
  8797                           tablat	equ	0xFF5
  8798                           prodh	equ	0xFF4
  8799                           prodl	equ	0xFF3
  8800                           intcon	equ	0xFF2
  8801                           postinc0	equ	0xFEE
  8802                           fsr0h	equ	0xFEA
  8803                           fsr0l	equ	0xFE9
  8804                           wreg	equ	0xFE8
  8805                           postdec1	equ	0xFE5
  8806                           fsr1h	equ	0xFE2
  8807                           fsr1l	equ	0xFE1
  8808                           fsr2h	equ	0xFDA
  8809                           fsr2l	equ	0xFD9
  8810                           status	equ	0xFD8
  8811                           
  8812 ;; *************** function _IOCAF6_DefaultInterruptHandler *****************
  8813 ;; Defined at:
  8814 ;;		line 273 in file "mcc_generated_files/pin_manager.c"
  8815 ;; Parameters:    Size  Location     Type
  8816 ;;		None
  8817 ;; Auto vars:     Size  Location     Type
  8818 ;;		None
  8819 ;; Return value:  Size  Location     Type
  8820 ;;                  1    wreg      void 
  8821 ;; Registers used:
  8822 ;;		wreg, status,2, status,0
  8823 ;; Tracked objects:
  8824 ;;		On entry : 0/0
  8825 ;;		On exit  : 0/0
  8826 ;;		Unchanged: 0/0
  8827 ;; Data sizes:     COMRAM   BANK0   BANK1   BANK2   BANK3   BANK4   BANK5   BANK6   BANK7   BANK8   BANK9  BANK10  BANK1
      +1  BANK12  BANK13  BANK14
  8828 ;;      Params:         0       0       0       0       0       0       0       0       0       0       0       0       
      +0       0       0       0
  8829 ;;      Locals:         0       0       0       0       0       0       0       0       0       0       0       0       
      +0       0       0       0
  8830 ;;      Temps:          1       0       0       0       0       0       0       0       0       0       0       0       
      +0       0       0       0
  8831 ;;      Totals:         1       0       0       0       0       0       0       0       0       0       0       0       
      +0       0       0       0
  8832 ;;Total ram usage:        1 bytes
  8833 ;; Hardware stack levels used:    1
  8834 ;; This function calls:
  8835 ;;		Nothing
  8836 ;; This function is called by:
  8837 ;;		_PIN_MANAGER_Initialize
  8838 ;;		_IOCAF6_ISR
  8839 ;; This function uses a non-reentrant model
  8840 ;;
  8841                           
  8842                           	psect	text66
  8843  002668                     __ptext66:
  8844                           	opt stack 0
  8845  002668                     _IOCAF6_DefaultInterruptHandler:
  8846                           	opt stack 23
  8847                           
  8848                           ;pin_manager.c: 277: _delay((unsigned long)((2)*(64000000/4000.0)));
  8849                           
  8850                           ; BSR set to: 15
  8851                           ;incstack = 0
  8852  002668  0E2A               	movlw	42
  8853  00266A  6E01               	movwf	??_IOCAF6_DefaultInterruptHandler& (0+255),c
  8854  00266C  0E8E               	movlw	142
  8855  00266E                     i2u661_47:
  8856  00266E  2EE8               	decfsz	wreg,f,c
  8857  002670  D7FE               	bra	i2u661_47
  8858  002672  2E01               	decfsz	??_IOCAF6_DefaultInterruptHandler& (0+255),f,c
  8859  002674  D7FC               	bra	i2u661_47
  8860                           
  8861                           ;pin_manager.c: 278: if (!PORTAbits.RA6&&PORTDbits.RD1)
  8862  002676  AC8D               	btfss	3981,6,c	;volatile
  8863  002678  A290               	btfss	3984,1,c	;volatile
  8864  00267A  D004               	goto	i2l607
  8865                           
  8866                           ;pin_manager.c: 279: {
  8867                           ;pin_manager.c: 280: selection++;
  8868  00267C  0100               	movlb	0	; () banked
  8869  00267E  4B9B               	infsnz	_selection& (0+255),f,b
  8870  002680  2B9C               	incf	(_selection+1)& (0+255),f,b
  8871                           
  8872                           ;pin_manager.c: 281: }
  8873  002682  D007               	goto	i2l609
  8874  002684                     i2l607:
  8875                           
  8876                           ;pin_manager.c: 282: else if (!PORTAbits.RA6&&!PORTDbits.RD1)
  8877  002684  AC8D               	btfss	3981,6,c	;volatile
  8878  002686  B290               	btfsc	3984,1,c	;volatile
  8879  002688  D004               	goto	i2l609
  8880                           
  8881                           ;pin_manager.c: 283: {
  8882                           ;pin_manager.c: 284: selection--;
  8883  00268A  0100               	movlb	0	; () banked
  8884  00268C  079B               	decf	_selection& (0+255),f,b
  8885  00268E  A0D8               	btfss	status,0,c
  8886  002690  079C               	decf	(_selection+1)& (0+255),f,b
  8887  002692                     i2l609:
  8888                           
  8889                           ;pin_manager.c: 285: }
  8890                           ;pin_manager.c: 286: _delay((unsigned long)((2)*(64000000/4000.0)));
  8891                           
  8892                           ; BSR set to: 0
  8893                           
  8894                           ; BSR set to: 0
  8895  002692  0E2A               	movlw	42
  8896  002694  6E01               	movwf	??_IOCAF6_DefaultInterruptHandler& (0+255),c
  8897  002696  0E8E               	movlw	142
  8898  002698                     i2u662_47:
  8899  002698  2EE8               	decfsz	wreg,f,c
  8900  00269A  D7FE               	bra	i2u662_47
  8901  00269C  2E01               	decfsz	??_IOCAF6_DefaultInterruptHandler& (0+255),f,c
  8902  00269E  D7FC               	bra	i2u662_47
  8903  0026A0  0012               	return		;funcret
  8904  0026A2                     __end_of_IOCAF6_DefaultInterruptHandler:
  8905                           	opt stack 0
  8906                           tosu	equ	0xFFF
  8907                           tosh	equ	0xFFE
  8908                           tosl	equ	0xFFD
  8909                           pclatu	equ	0xFFB
  8910                           pclath	equ	0xFFA
  8911                           tblptru	equ	0xFF8
  8912                           tblptrh	equ	0xFF7
  8913                           tblptrl	equ	0xFF6
  8914                           tablat	equ	0xFF5
  8915                           prodh	equ	0xFF4
  8916                           prodl	equ	0xFF3
  8917                           intcon	equ	0xFF2
  8918                           postinc0	equ	0xFEE
  8919                           fsr0h	equ	0xFEA
  8920                           fsr0l	equ	0xFE9
  8921                           wreg	equ	0xFE8
  8922                           postdec1	equ	0xFE5
  8923                           fsr1h	equ	0xFE2
  8924                           fsr1l	equ	0xFE1
  8925                           fsr2h	equ	0xFDA
  8926                           fsr2l	equ	0xFD9
  8927                           status	equ	0xFD8
  8928                           
  8929 ;; *************** function _IOCAF5_ISR *****************
  8930 ;; Defined at:
  8931 ;;		line 207 in file "mcc_generated_files/pin_manager.c"
  8932 ;; Parameters:    Size  Location     Type
  8933 ;;		None
  8934 ;; Auto vars:     Size  Location     Type
  8935 ;;		None
  8936 ;; Return value:  Size  Location     Type
  8937 ;;                  1    wreg      void 
  8938 ;; Registers used:
  8939 ;;		wreg, status,2, status,0, pclath, tosl, cstack
  8940 ;; Tracked objects:
  8941 ;;		On entry : 0/0
  8942 ;;		On exit  : 0/0
  8943 ;;		Unchanged: 0/0
  8944 ;; Data sizes:     COMRAM   BANK0   BANK1   BANK2   BANK3   BANK4   BANK5   BANK6   BANK7   BANK8   BANK9  BANK10  BANK1
      +1  BANK12  BANK13  BANK14
  8945 ;;      Params:         0       0       0       0       0       0       0       0       0       0       0       0       
      +0       0       0       0
  8946 ;;      Locals:         0       0       0       0       0       0       0       0       0       0       0       0       
      +0       0       0       0
  8947 ;;      Temps:          0       0       0       0       0       0       0       0       0       0       0       0       
      +0       0       0       0
  8948 ;;      Totals:         0       0       0       0       0       0       0       0       0       0       0       0       
      +0       0       0       0
  8949 ;;Total ram usage:        0 bytes
  8950 ;; Hardware stack levels used:    1
  8951 ;; Hardware stack levels required when called:    2
  8952 ;; This function calls:
  8953 ;;		Absolute function
  8954 ;;		_IOCAF5_DefaultInterruptHandler
  8955 ;; This function is called by:
  8956 ;;		_PIN_MANAGER_IOC
  8957 ;; This function uses a non-reentrant model
  8958 ;;
  8959                           
  8960                           	psect	text67
  8961  002942                     __ptext67:
  8962                           	opt stack 0
  8963  002942                     _IOCAF5_ISR:
  8964                           	opt stack 22
  8965                           
  8966                           ;pin_manager.c: 212: if(IOCAF5_InterruptHandler)
  8967                           
  8968                           ;incstack = 0
  8969  002942  0100               	movlb	0	; () banked
  8970  002944  51C9               	movf	_IOCAF5_InterruptHandler& (0+255),w,b
  8971  002946  11CA               	iorwf	(_IOCAF5_InterruptHandler+1)& (0+255),w,b
  8972  002948  11CB               	iorwf	(_IOCAF5_InterruptHandler+2)& (0+255),w,b
  8973  00294A  B4D8               	btfsc	status,2,c
  8974  00294C  D00C               	goto	i2u473_49
  8975                           
  8976                           ; BSR set to: 0
  8977                           ;pin_manager.c: 213: {
  8978                           ;pin_manager.c: 214: IOCAF5_InterruptHandler();
  8979  00294E  D801               	call	i2u473_48
  8980  002950  D00A               	goto	i2u473_49
  8981  002952                     i2u473_48:
  8982  002952  0005               	push	
  8983  002954  6EFA               	movwf	pclath,c
  8984  002956  51C9               	movf	_IOCAF5_InterruptHandler& (0+255),w,b
  8985  002958  6EFD               	movwf	tosl,c
  8986  00295A  51CA               	movf	(_IOCAF5_InterruptHandler+1)& (0+255),w,b
  8987  00295C  6EFE               	movwf	tosh,c
  8988  00295E  51CB               	movf	(_IOCAF5_InterruptHandler+2)& (0+255),w,b
  8989  002960  6EFF               	movwf	tosu,c
  8990  002962  50FA               	movf	pclath,w,c
  8991  002964  0012               	return		;indir
  8992  002966                     i2u473_49:
  8993                           
  8994                           ;pin_manager.c: 215: }
  8995                           ;pin_manager.c: 216: IOCAFbits.IOCAF5 = 0;
  8996  002966  010F               	movlb	15	; () banked
  8997  002968  9B0A               	bcf	10,5,b	;volatile
  8998                           
  8999                           ; BSR set to: 15
  9000  00296A  0012               	return		;funcret
  9001  00296C                     __end_of_IOCAF5_ISR:
  9002                           	opt stack 0
  9003                           tosu	equ	0xFFF
  9004                           tosh	equ	0xFFE
  9005                           tosl	equ	0xFFD
  9006                           pclatu	equ	0xFFB
  9007                           pclath	equ	0xFFA
  9008                           tblptru	equ	0xFF8
  9009                           tblptrh	equ	0xFF7
  9010                           tblptrl	equ	0xFF6
  9011                           tablat	equ	0xFF5
  9012                           prodh	equ	0xFF4
  9013                           prodl	equ	0xFF3
  9014                           intcon	equ	0xFF2
  9015                           postinc0	equ	0xFEE
  9016                           fsr0h	equ	0xFEA
  9017                           fsr0l	equ	0xFE9
  9018                           wreg	equ	0xFE8
  9019                           postdec1	equ	0xFE5
  9020                           fsr1h	equ	0xFE2
  9021                           fsr1l	equ	0xFE1
  9022                           fsr2h	equ	0xFDA
  9023                           fsr2l	equ	0xFD9
  9024                           status	equ	0xFD8
  9025                           
  9026 ;; *************** function _IOCAF5_DefaultInterruptHandler *****************
  9027 ;; Defined at:
  9028 ;;		line 229 in file "mcc_generated_files/pin_manager.c"
  9029 ;; Parameters:    Size  Location     Type
  9030 ;;		None
  9031 ;; Auto vars:     Size  Location     Type
  9032 ;;		None
  9033 ;; Return value:  Size  Location     Type
  9034 ;;                  1    wreg      void 
  9035 ;; Registers used:
  9036 ;;		wreg, status,2, status,0, cstack
  9037 ;; Tracked objects:
  9038 ;;		On entry : 0/0
  9039 ;;		On exit  : 0/0
  9040 ;;		Unchanged: 0/0
  9041 ;; Data sizes:     COMRAM   BANK0   BANK1   BANK2   BANK3   BANK4   BANK5   BANK6   BANK7   BANK8   BANK9  BANK10  BANK1
      +1  BANK12  BANK13  BANK14
  9042 ;;      Params:         0       0       0       0       0       0       0       0       0       0       0       0       
      +0       0       0       0
  9043 ;;      Locals:         0       0       0       0       0       0       0       0       0       0       0       0       
      +0       0       0       0
  9044 ;;      Temps:          0       0       0       0       0       0       0       0       0       0       0       0       
      +0       0       0       0
  9045 ;;      Totals:         0       0       0       0       0       0       0       0       0       0       0       0       
      +0       0       0       0
  9046 ;;Total ram usage:        0 bytes
  9047 ;; Hardware stack levels used:    1
  9048 ;; Hardware stack levels required when called:    1
  9049 ;; This function calls:
  9050 ;;		_TMR1_ReadTimer
  9051 ;;		_TMR1_StartTimer
  9052 ;;		_TMR1_StopTimer
  9053 ;;		_TMR1_WriteTimer
  9054 ;;		___aldiv
  9055 ;; This function is called by:
  9056 ;;		_PIN_MANAGER_Initialize
  9057 ;;		_IOCAF5_ISR
  9058 ;; This function uses a non-reentrant model
  9059 ;;
  9060                           
  9061                           	psect	text68
  9062  002482                     __ptext68:
  9063                           	opt stack 0
  9064  002482                     _IOCAF5_DefaultInterruptHandler:
  9065                           	opt stack 22
  9066                           
  9067                           ;pin_manager.c: 232: TMR1_StopTimer();
  9068                           
  9069                           ; BSR set to: 15
  9070                           ;incstack = 0
  9071  002482  EC44  F016         	call	_TMR1_StopTimer	;wreg free
  9072                           
  9073                           ;pin_manager.c: 234: Vitesse_Moteur_G = 87000 /TMR1_ReadTimer();
  9074  002486  0ED8               	movlw	216
  9075  002488  6E09               	movwf	___aldiv@dividend,c
  9076  00248A  0E53               	movlw	83
  9077  00248C  6E0A               	movwf	___aldiv@dividend+1,c
  9078  00248E  0E01               	movlw	1
  9079  002490  6E0B               	movwf	___aldiv@dividend+2,c
  9080  002492  0E00               	movlw	0
  9081  002494  6E0C               	movwf	___aldiv@dividend+3,c
  9082  002496  EC0F  F015         	call	_TMR1_ReadTimer	;wreg free
  9083  00249A  C001  F00D         	movff	?_TMR1_ReadTimer,___aldiv@divisor
  9084  00249E  C002  F00E         	movff	?_TMR1_ReadTimer+1,___aldiv@divisor+1
  9085  0024A2  6A0F               	clrf	___aldiv@divisor+2,c
  9086  0024A4  6A10               	clrf	___aldiv@divisor+3,c
  9087  0024A6  EC74  F010         	call	___aldiv	;wreg free
  9088  0024AA  C009  F09F         	movff	?___aldiv,_Vitesse_Moteur_G
  9089  0024AE  C00A  F0A0         	movff	?___aldiv+1,_Vitesse_Moteur_G+1
  9090                           
  9091                           ;pin_manager.c: 235: if (PORTEbits.RE1 == 1)
  9092  0024B2  B291               	btfsc	3985,1,c	;volatile
  9093  0024B4  D005               	goto	i2l596
  9094                           
  9095                           ;pin_manager.c: 238: else
  9096                           ;pin_manager.c: 239: {
  9097                           ;pin_manager.c: 240: Vitesse_Moteur_G = -Vitesse_Moteur_G;
  9098                           
  9099                           ;pin_manager.c: 236: {
  9100                           ;pin_manager.c: 237: }
  9101  0024B6  0100               	movlb	0	; () banked
  9102  0024B8  6D9F               	negf	_Vitesse_Moteur_G& (0+255),b
  9103  0024BA  1FA0               	comf	(_Vitesse_Moteur_G+1)& (0+255),f,b
  9104  0024BC  B0D8               	btfsc	status,0,c
  9105  0024BE  2BA0               	incf	(_Vitesse_Moteur_G+1)& (0+255),f,b
  9106  0024C0                     i2l596:
  9107                           
  9108                           ;pin_manager.c: 241: }
  9109                           ;pin_manager.c: 242: TMR1_WriteTimer(0);
  9110                           
  9111                           ; BSR set to: 0
  9112  0024C0  0E00               	movlw	0
  9113  0024C2  6E02               	movwf	TMR1_WriteTimer@timerVal+1,c
  9114  0024C4  0E00               	movlw	0
  9115  0024C6  6E01               	movwf	TMR1_WriteTimer@timerVal,c
  9116  0024C8  EC66  F015         	call	_TMR1_WriteTimer	;wreg free
  9117                           
  9118                           ;pin_manager.c: 243: TMR1_StartTimer();
  9119  0024CC  EC46  F016         	call	_TMR1_StartTimer	;wreg free
  9120  0024D0  0012               	return		;funcret
  9121  0024D2                     __end_of_IOCAF5_DefaultInterruptHandler:
  9122                           	opt stack 0
  9123                           tosu	equ	0xFFF
  9124                           tosh	equ	0xFFE
  9125                           tosl	equ	0xFFD
  9126                           pclatu	equ	0xFFB
  9127                           pclath	equ	0xFFA
  9128                           tblptru	equ	0xFF8
  9129                           tblptrh	equ	0xFF7
  9130                           tblptrl	equ	0xFF6
  9131                           tablat	equ	0xFF5
  9132                           prodh	equ	0xFF4
  9133                           prodl	equ	0xFF3
  9134                           intcon	equ	0xFF2
  9135                           postinc0	equ	0xFEE
  9136                           fsr0h	equ	0xFEA
  9137                           fsr0l	equ	0xFE9
  9138                           wreg	equ	0xFE8
  9139                           postdec1	equ	0xFE5
  9140                           fsr1h	equ	0xFE2
  9141                           fsr1l	equ	0xFE1
  9142                           fsr2h	equ	0xFDA
  9143                           fsr2l	equ	0xFD9
  9144                           status	equ	0xFD8
  9145                           
  9146 ;; *************** function ___aldiv *****************
  9147 ;; Defined at:
  9148 ;;		line 8 in file "C:\Program Files (x86)\Microchip\xc8\v1.45\sources\common\aldiv.c"
  9149 ;; Parameters:    Size  Location     Type
  9150 ;;  dividend        4    8[COMRAM] long 
  9151 ;;  divisor         4   12[COMRAM] long 
  9152 ;; Auto vars:     Size  Location     Type
  9153 ;;  quotient        4   18[COMRAM] long 
  9154 ;;  sign            1   17[COMRAM] unsigned char 
  9155 ;;  counter         1   16[COMRAM] unsigned char 
  9156 ;; Return value:  Size  Location     Type
  9157 ;;                  4    8[COMRAM] long 
  9158 ;; Registers used:
  9159 ;;		wreg, status,2, status,0
  9160 ;; Tracked objects:
  9161 ;;		On entry : 0/0
  9162 ;;		On exit  : 0/0
  9163 ;;		Unchanged: 0/0
  9164 ;; Data sizes:     COMRAM   BANK0   BANK1   BANK2   BANK3   BANK4   BANK5   BANK6   BANK7   BANK8   BANK9  BANK10  BANK1
      +1  BANK12  BANK13  BANK14
  9165 ;;      Params:         8       0       0       0       0       0       0       0       0       0       0       0       
      +0       0       0       0
  9166 ;;      Locals:         6       0       0       0       0       0       0       0       0       0       0       0       
      +0       0       0       0
  9167 ;;      Temps:          0       0       0       0       0       0       0       0       0       0       0       0       
      +0       0       0       0
  9168 ;;      Totals:        14       0       0       0       0       0       0       0       0       0       0       0       
      +0       0       0       0
  9169 ;;Total ram usage:       14 bytes
  9170 ;; Hardware stack levels used:    1
  9171 ;; This function calls:
  9172 ;;		Nothing
  9173 ;; This function is called by:
  9174 ;;		_IOCAF5_DefaultInterruptHandler
  9175 ;;		_IOCCF0_DefaultInterruptHandler
  9176 ;; This function uses a non-reentrant model
  9177 ;;
  9178                           
  9179                           	psect	text69
  9180  0020E8                     __ptext69:
  9181                           	opt stack 0
  9182  0020E8                     ___aldiv:
  9183                           	opt stack 22
  9184                           
  9185                           ;incstack = 0
  9186  0020E8  0E00               	movlw	0
  9187  0020EA  6E12               	movwf	___aldiv@sign,c
  9188  0020EC  AE10               	btfss	___aldiv@divisor+3,7,c
  9189  0020EE  D00A               	goto	i2l1887
  9190  0020F0  1E10               	comf	___aldiv@divisor+3,f,c
  9191  0020F2  1E0F               	comf	___aldiv@divisor+2,f,c
  9192  0020F4  1E0E               	comf	___aldiv@divisor+1,f,c
  9193  0020F6  6C0D               	negf	___aldiv@divisor,c
  9194  0020F8  0E00               	movlw	0
  9195  0020FA  220E               	addwfc	___aldiv@divisor+1,f,c
  9196  0020FC  220F               	addwfc	___aldiv@divisor+2,f,c
  9197  0020FE  2210               	addwfc	___aldiv@divisor+3,f,c
  9198  002100  0E01               	movlw	1
  9199  002102  6E12               	movwf	___aldiv@sign,c
  9200  002104                     i2l1887:
  9201  002104  AE0C               	btfss	___aldiv@dividend+3,7,c
  9202  002106  D00A               	goto	i2l1888
  9203  002108  1E0C               	comf	___aldiv@dividend+3,f,c
  9204  00210A  1E0B               	comf	___aldiv@dividend+2,f,c
  9205  00210C  1E0A               	comf	___aldiv@dividend+1,f,c
  9206  00210E  6C09               	negf	___aldiv@dividend,c
  9207  002110  0E00               	movlw	0
  9208  002112  220A               	addwfc	___aldiv@dividend+1,f,c
  9209  002114  220B               	addwfc	___aldiv@dividend+2,f,c
  9210  002116  220C               	addwfc	___aldiv@dividend+3,f,c
  9211  002118  0E01               	movlw	1
  9212  00211A  1A12               	xorwf	___aldiv@sign,f,c
  9213  00211C                     i2l1888:
  9214  00211C  0E00               	movlw	0
  9215  00211E  6E13               	movwf	___aldiv@quotient,c
  9216  002120  0E00               	movlw	0
  9217  002122  6E14               	movwf	___aldiv@quotient+1,c
  9218  002124  0E00               	movlw	0
  9219  002126  6E15               	movwf	___aldiv@quotient+2,c
  9220  002128  0E00               	movlw	0
  9221  00212A  6E16               	movwf	___aldiv@quotient+3,c
  9222  00212C  500D               	movf	___aldiv@divisor,w,c
  9223  00212E  100E               	iorwf	___aldiv@divisor+1,w,c
  9224  002130  100F               	iorwf	___aldiv@divisor+2,w,c
  9225  002132  1010               	iorwf	___aldiv@divisor+3,w,c
  9226  002134  B4D8               	btfsc	status,2,c
  9227  002136  D02A               	goto	i2l1895
  9228  002138  0E01               	movlw	1
  9229  00213A  6E11               	movwf	___aldiv@counter,c
  9230  00213C  D006               	goto	i2l1890
  9231  00213E  90D8               	bcf	status,0,c
  9232  002140  360D               	rlcf	___aldiv@divisor,f,c
  9233  002142  360E               	rlcf	___aldiv@divisor+1,f,c
  9234  002144  360F               	rlcf	___aldiv@divisor+2,f,c
  9235  002146  3610               	rlcf	___aldiv@divisor+3,f,c
  9236  002148  2A11               	incf	___aldiv@counter,f,c
  9237  00214A                     i2l1890:
  9238  00214A  AE10               	btfss	___aldiv@divisor+3,7,c
  9239  00214C  D7F8               	goto	i2l1891
  9240  00214E                     i2u329_40:
  9241  00214E  90D8               	bcf	status,0,c
  9242  002150  3613               	rlcf	___aldiv@quotient,f,c
  9243  002152  3614               	rlcf	___aldiv@quotient+1,f,c
  9244  002154  3615               	rlcf	___aldiv@quotient+2,f,c
  9245  002156  3616               	rlcf	___aldiv@quotient+3,f,c
  9246  002158  500D               	movf	___aldiv@divisor,w,c
  9247  00215A  5C09               	subwf	___aldiv@dividend,w,c
  9248  00215C  500E               	movf	___aldiv@divisor+1,w,c
  9249  00215E  580A               	subwfb	___aldiv@dividend+1,w,c
  9250  002160  500F               	movf	___aldiv@divisor+2,w,c
  9251  002162  580B               	subwfb	___aldiv@dividend+2,w,c
  9252  002164  5010               	movf	___aldiv@divisor+3,w,c
  9253  002166  580C               	subwfb	___aldiv@dividend+3,w,c
  9254  002168  A0D8               	btfss	status,0,c
  9255  00216A  D009               	goto	i2l1894
  9256  00216C  500D               	movf	___aldiv@divisor,w,c
  9257  00216E  5E09               	subwf	___aldiv@dividend,f,c
  9258  002170  500E               	movf	___aldiv@divisor+1,w,c
  9259  002172  5A0A               	subwfb	___aldiv@dividend+1,f,c
  9260  002174  500F               	movf	___aldiv@divisor+2,w,c
  9261  002176  5A0B               	subwfb	___aldiv@dividend+2,f,c
  9262  002178  5010               	movf	___aldiv@divisor+3,w,c
  9263  00217A  5A0C               	subwfb	___aldiv@dividend+3,f,c
  9264  00217C  8013               	bsf	___aldiv@quotient,0,c
  9265  00217E                     i2l1894:
  9266  00217E  90D8               	bcf	status,0,c
  9267  002180  3210               	rrcf	___aldiv@divisor+3,f,c
  9268  002182  320F               	rrcf	___aldiv@divisor+2,f,c
  9269  002184  320E               	rrcf	___aldiv@divisor+1,f,c
  9270  002186  320D               	rrcf	___aldiv@divisor,f,c
  9271  002188  2E11               	decfsz	___aldiv@counter,f,c
  9272  00218A  D7E1               	goto	i2u329_40
  9273  00218C                     i2l1895:
  9274  00218C  5012               	movf	___aldiv@sign,w,c
  9275  00218E  B4D8               	btfsc	status,2,c
  9276  002190  D008               	goto	i2l1896
  9277  002192  1E16               	comf	___aldiv@quotient+3,f,c
  9278  002194  1E15               	comf	___aldiv@quotient+2,f,c
  9279  002196  1E14               	comf	___aldiv@quotient+1,f,c
  9280  002198  6C13               	negf	___aldiv@quotient,c
  9281  00219A  0E00               	movlw	0
  9282  00219C  2214               	addwfc	___aldiv@quotient+1,f,c
  9283  00219E  2215               	addwfc	___aldiv@quotient+2,f,c
  9284  0021A0  2216               	addwfc	___aldiv@quotient+3,f,c
  9285  0021A2                     i2l1896:
  9286  0021A2  C013  F009         	movff	___aldiv@quotient,?___aldiv
  9287  0021A6  C014  F00A         	movff	___aldiv@quotient+1,?___aldiv+1
  9288  0021AA  C015  F00B         	movff	___aldiv@quotient+2,?___aldiv+2
  9289  0021AE  C016  F00C         	movff	___aldiv@quotient+3,?___aldiv+3
  9290  0021B2  0012               	return	
  9291  0021B4                     __end_of___aldiv:
  9292                           	opt stack 0
  9293                           tosu	equ	0xFFF
  9294                           tosh	equ	0xFFE
  9295                           tosl	equ	0xFFD
  9296                           pclatu	equ	0xFFB
  9297                           pclath	equ	0xFFA
  9298                           tblptru	equ	0xFF8
  9299                           tblptrh	equ	0xFF7
  9300                           tblptrl	equ	0xFF6
  9301                           tablat	equ	0xFF5
  9302                           prodh	equ	0xFF4
  9303                           prodl	equ	0xFF3
  9304                           intcon	equ	0xFF2
  9305                           postinc0	equ	0xFEE
  9306                           fsr0h	equ	0xFEA
  9307                           fsr0l	equ	0xFE9
  9308                           wreg	equ	0xFE8
  9309                           postdec1	equ	0xFE5
  9310                           fsr1h	equ	0xFE2
  9311                           fsr1l	equ	0xFE1
  9312                           fsr2h	equ	0xFDA
  9313                           fsr2l	equ	0xFD9
  9314                           status	equ	0xFD8
  9315                           
  9316 ;; *************** function _TMR1_WriteTimer *****************
  9317 ;; Defined at:
  9318 ;;		line 129 in file "mcc_generated_files/tmr1.c"
  9319 ;; Parameters:    Size  Location     Type
  9320 ;;  timerVal        2    0[COMRAM] unsigned int 
  9321 ;; Auto vars:     Size  Location     Type
  9322 ;;		None
  9323 ;; Return value:  Size  Location     Type
  9324 ;;                  1    wreg      void 
  9325 ;; Registers used:
  9326 ;;		wreg, status,2
  9327 ;; Tracked objects:
  9328 ;;		On entry : 0/0
  9329 ;;		On exit  : 0/0
  9330 ;;		Unchanged: 0/0
  9331 ;; Data sizes:     COMRAM   BANK0   BANK1   BANK2   BANK3   BANK4   BANK5   BANK6   BANK7   BANK8   BANK9  BANK10  BANK1
      +1  BANK12  BANK13  BANK14
  9332 ;;      Params:         2       0       0       0       0       0       0       0       0       0       0       0       
      +0       0       0       0
  9333 ;;      Locals:         0       0       0       0       0       0       0       0       0       0       0       0       
      +0       0       0       0
  9334 ;;      Temps:          0       0       0       0       0       0       0       0       0       0       0       0       
      +0       0       0       0
  9335 ;;      Totals:         2       0       0       0       0       0       0       0       0       0       0       0       
      +0       0       0       0
  9336 ;;Total ram usage:        2 bytes
  9337 ;; Hardware stack levels used:    1
  9338 ;; This function calls:
  9339 ;;		Nothing
  9340 ;; This function is called by:
  9341 ;;		_IOCAF5_DefaultInterruptHandler
  9342 ;;		_TMR1_ISR
  9343 ;;		_TMR1_DefaultInterruptHandler
  9344 ;;		_TMR1_Reload
  9345 ;; This function uses a non-reentrant model
  9346 ;;
  9347                           
  9348                           	psect	text70
  9349  002ACC                     __ptext70:
  9350                           	opt stack 0
  9351  002ACC                     _TMR1_WriteTimer:
  9352                           	opt stack 24
  9353                           
  9354                           ;tmr1.c: 131: if (T1CONbits.nT1SYNC == 1)
  9355                           
  9356                           ;incstack = 0
  9357  002ACC  A4CF               	btfss	4047,2,c	;volatile
  9358  002ACE  D007               	goto	i2l1558
  9359                           
  9360                           ;tmr1.c: 132: {
  9361                           ;tmr1.c: 134: T1CONbits.TMR1ON = 0;
  9362  002AD0  90CF               	bcf	4047,0,c	;volatile
  9363                           
  9364                           ;tmr1.c: 137: TMR1H = (timerVal >> 8);
  9365  002AD2  5002               	movf	TMR1_WriteTimer@timerVal+1,w,c
  9366  002AD4  6ECE               	movwf	4046,c	;volatile
  9367                           
  9368                           ;tmr1.c: 138: TMR1L = timerVal;
  9369  002AD6  C001  FFCD         	movff	TMR1_WriteTimer@timerVal,4045	;volatile
  9370                           
  9371                           ;tmr1.c: 141: T1CONbits.TMR1ON =1;
  9372  002ADA  80CF               	bsf	4047,0,c	;volatile
  9373                           
  9374                           ;tmr1.c: 142: }
  9375  002ADC  0012               	return	
  9376  002ADE                     i2l1558:
  9377                           
  9378                           ;tmr1.c: 143: else
  9379                           ;tmr1.c: 144: {
  9380                           ;tmr1.c: 146: TMR1H = (timerVal >> 8);
  9381  002ADE  5002               	movf	TMR1_WriteTimer@timerVal+1,w,c
  9382  002AE0  6ECE               	movwf	4046,c	;volatile
  9383                           
  9384                           ;tmr1.c: 147: TMR1L = timerVal;
  9385  002AE2  C001  FFCD         	movff	TMR1_WriteTimer@timerVal,4045	;volatile
  9386  002AE6  0012               	return	
  9387  002AE8                     __end_of_TMR1_WriteTimer:
  9388                           	opt stack 0
  9389                           tosu	equ	0xFFF
  9390                           tosh	equ	0xFFE
  9391                           tosl	equ	0xFFD
  9392                           pclatu	equ	0xFFB
  9393                           pclath	equ	0xFFA
  9394                           tblptru	equ	0xFF8
  9395                           tblptrh	equ	0xFF7
  9396                           tblptrl	equ	0xFF6
  9397                           tablat	equ	0xFF5
  9398                           prodh	equ	0xFF4
  9399                           prodl	equ	0xFF3
  9400                           intcon	equ	0xFF2
  9401                           postinc0	equ	0xFEE
  9402                           fsr0h	equ	0xFEA
  9403                           fsr0l	equ	0xFE9
  9404                           wreg	equ	0xFE8
  9405                           postdec1	equ	0xFE5
  9406                           fsr1h	equ	0xFE2
  9407                           fsr1l	equ	0xFE1
  9408                           fsr2h	equ	0xFDA
  9409                           fsr2l	equ	0xFD9
  9410                           status	equ	0xFD8
  9411                           
  9412 ;; *************** function _TMR1_StopTimer *****************
  9413 ;; Defined at:
  9414 ;;		line 107 in file "mcc_generated_files/tmr1.c"
  9415 ;; Parameters:    Size  Location     Type
  9416 ;;		None
  9417 ;; Auto vars:     Size  Location     Type
  9418 ;;		None
  9419 ;; Return value:  Size  Location     Type
  9420 ;;                  1    wreg      void 
  9421 ;; Registers used:
  9422 ;;		None
  9423 ;; Tracked objects:
  9424 ;;		On entry : 0/0
  9425 ;;		On exit  : 0/0
  9426 ;;		Unchanged: 0/0
  9427 ;; Data sizes:     COMRAM   BANK0   BANK1   BANK2   BANK3   BANK4   BANK5   BANK6   BANK7   BANK8   BANK9  BANK10  BANK1
      +1  BANK12  BANK13  BANK14
  9428 ;;      Params:         0       0       0       0       0       0       0       0       0       0       0       0       
      +0       0       0       0
  9429 ;;      Locals:         0       0       0       0       0       0       0       0       0       0       0       0       
      +0       0       0       0
  9430 ;;      Temps:          0       0       0       0       0       0       0       0       0       0       0       0       
      +0       0       0       0
  9431 ;;      Totals:         0       0       0       0       0       0       0       0       0       0       0       0       
      +0       0       0       0
  9432 ;;Total ram usage:        0 bytes
  9433 ;; Hardware stack levels used:    1
  9434 ;; This function calls:
  9435 ;;		Nothing
  9436 ;; This function is called by:
  9437 ;;		_IOCAF5_DefaultInterruptHandler
  9438 ;;		_TMR1_DefaultInterruptHandler
  9439 ;; This function uses a non-reentrant model
  9440 ;;
  9441                           
  9442                           	psect	text71
  9443  002C88                     __ptext71:
  9444                           	opt stack 0
  9445  002C88                     _TMR1_StopTimer:
  9446                           	opt stack 23
  9447                           
  9448                           ;tmr1.c: 110: T1CONbits.TMR1ON = 0;
  9449                           
  9450                           ;incstack = 0
  9451  002C88  90CF               	bcf	4047,0,c	;volatile
  9452  002C8A  0012               	return		;funcret
  9453  002C8C                     __end_of_TMR1_StopTimer:
  9454                           	opt stack 0
  9455                           tosu	equ	0xFFF
  9456                           tosh	equ	0xFFE
  9457                           tosl	equ	0xFFD
  9458                           pclatu	equ	0xFFB
  9459                           pclath	equ	0xFFA
  9460                           tblptru	equ	0xFF8
  9461                           tblptrh	equ	0xFF7
  9462                           tblptrl	equ	0xFF6
  9463                           tablat	equ	0xFF5
  9464                           prodh	equ	0xFF4
  9465                           prodl	equ	0xFF3
  9466                           intcon	equ	0xFF2
  9467                           postinc0	equ	0xFEE
  9468                           fsr0h	equ	0xFEA
  9469                           fsr0l	equ	0xFE9
  9470                           wreg	equ	0xFE8
  9471                           postdec1	equ	0xFE5
  9472                           fsr1h	equ	0xFE2
  9473                           fsr1l	equ	0xFE1
  9474                           fsr2h	equ	0xFDA
  9475                           fsr2l	equ	0xFD9
  9476                           status	equ	0xFD8
  9477                           
  9478 ;; *************** function _TMR1_StartTimer *****************
  9479 ;; Defined at:
  9480 ;;		line 101 in file "mcc_generated_files/tmr1.c"
  9481 ;; Parameters:    Size  Location     Type
  9482 ;;		None
  9483 ;; Auto vars:     Size  Location     Type
  9484 ;;		None
  9485 ;; Return value:  Size  Location     Type
  9486 ;;                  1    wreg      void 
  9487 ;; Registers used:
  9488 ;;		None
  9489 ;; Tracked objects:
  9490 ;;		On entry : 0/0
  9491 ;;		On exit  : 0/0
  9492 ;;		Unchanged: 0/0
  9493 ;; Data sizes:     COMRAM   BANK0   BANK1   BANK2   BANK3   BANK4   BANK5   BANK6   BANK7   BANK8   BANK9  BANK10  BANK1
      +1  BANK12  BANK13  BANK14
  9494 ;;      Params:         0       0       0       0       0       0       0       0       0       0       0       0       
      +0       0       0       0
  9495 ;;      Locals:         0       0       0       0       0       0       0       0       0       0       0       0       
      +0       0       0       0
  9496 ;;      Temps:          0       0       0       0       0       0       0       0       0       0       0       0       
      +0       0       0       0
  9497 ;;      Totals:         0       0       0       0       0       0       0       0       0       0       0       0       
      +0       0       0       0
  9498 ;;Total ram usage:        0 bytes
  9499 ;; Hardware stack levels used:    1
  9500 ;; This function calls:
  9501 ;;		Nothing
  9502 ;; This function is called by:
  9503 ;;		_IOCAF5_DefaultInterruptHandler
  9504 ;; This function uses a non-reentrant model
  9505 ;;
  9506                           
  9507                           	psect	text72
  9508  002C8C                     __ptext72:
  9509                           	opt stack 0
  9510  002C8C                     _TMR1_StartTimer:
  9511                           	opt stack 22
  9512                           
  9513                           ;tmr1.c: 104: T1CONbits.TMR1ON = 1;
  9514                           
  9515                           ;incstack = 0
  9516  002C8C  80CF               	bsf	4047,0,c	;volatile
  9517  002C8E  0012               	return		;funcret
  9518  002C90                     __end_of_TMR1_StartTimer:
  9519                           	opt stack 0
  9520                           tosu	equ	0xFFF
  9521                           tosh	equ	0xFFE
  9522                           tosl	equ	0xFFD
  9523                           pclatu	equ	0xFFB
  9524                           pclath	equ	0xFFA
  9525                           tblptru	equ	0xFF8
  9526                           tblptrh	equ	0xFF7
  9527                           tblptrl	equ	0xFF6
  9528                           tablat	equ	0xFF5
  9529                           prodh	equ	0xFF4
  9530                           prodl	equ	0xFF3
  9531                           intcon	equ	0xFF2
  9532                           postinc0	equ	0xFEE
  9533                           fsr0h	equ	0xFEA
  9534                           fsr0l	equ	0xFE9
  9535                           wreg	equ	0xFE8
  9536                           postdec1	equ	0xFE5
  9537                           fsr1h	equ	0xFE2
  9538                           fsr1l	equ	0xFE1
  9539                           fsr2h	equ	0xFDA
  9540                           fsr2l	equ	0xFD9
  9541                           status	equ	0xFD8
  9542                           
  9543 ;; *************** function _TMR1_ReadTimer *****************
  9544 ;; Defined at:
  9545 ;;		line 113 in file "mcc_generated_files/tmr1.c"
  9546 ;; Parameters:    Size  Location     Type
  9547 ;;		None
  9548 ;; Auto vars:     Size  Location     Type
  9549 ;;  readVal         2    4[COMRAM] unsigned int 
  9550 ;;  readValLow      1    7[COMRAM] unsigned char 
  9551 ;;  readValHigh     1    6[COMRAM] unsigned char 
  9552 ;; Return value:  Size  Location     Type
  9553 ;;                  2    0[COMRAM] unsigned int 
  9554 ;; Registers used:
  9555 ;;		wreg, status,2
  9556 ;; Tracked objects:
  9557 ;;		On entry : 0/0
  9558 ;;		On exit  : 0/0
  9559 ;;		Unchanged: 0/0
  9560 ;; Data sizes:     COMRAM   BANK0   BANK1   BANK2   BANK3   BANK4   BANK5   BANK6   BANK7   BANK8   BANK9  BANK10  BANK1
      +1  BANK12  BANK13  BANK14
  9561 ;;      Params:         2       0       0       0       0       0       0       0       0       0       0       0       
      +0       0       0       0
  9562 ;;      Locals:         4       0       0       0       0       0       0       0       0       0       0       0       
      +0       0       0       0
  9563 ;;      Temps:          2       0       0       0       0       0       0       0       0       0       0       0       
      +0       0       0       0
  9564 ;;      Totals:         8       0       0       0       0       0       0       0       0       0       0       0       
      +0       0       0       0
  9565 ;;Total ram usage:        8 bytes
  9566 ;; Hardware stack levels used:    1
  9567 ;; This function calls:
  9568 ;;		Nothing
  9569 ;; This function is called by:
  9570 ;;		_IOCAF5_DefaultInterruptHandler
  9571 ;; This function uses a non-reentrant model
  9572 ;;
  9573                           
  9574                           	psect	text73
  9575  002A1E                     __ptext73:
  9576                           	opt stack 0
  9577  002A1E                     _TMR1_ReadTimer:
  9578                           	opt stack 22
  9579                           
  9580                           ;tmr1.c: 115: uint16_t readVal;
  9581                           ;tmr1.c: 116: uint8_t readValHigh;
  9582                           ;tmr1.c: 117: uint8_t readValLow;
  9583                           ;tmr1.c: 119: T1CONbits.T1RD16 = 1;
  9584                           
  9585                           ;incstack = 0
  9586  002A1E  82CF               	bsf	4047,1,c	;volatile
  9587                           
  9588                           ;tmr1.c: 121: readValLow = TMR1L;
  9589  002A20  CFCD F008          	movff	4045,TMR1_ReadTimer@readValLow	;volatile
  9590                           
  9591                           ;tmr1.c: 122: readValHigh = TMR1H;
  9592  002A24  CFCE F007          	movff	4046,TMR1_ReadTimer@readValHigh	;volatile
  9593                           
  9594                           ;tmr1.c: 124: readVal = ((uint16_t)readValHigh << 8) | readValLow;
  9595  002A28  5007               	movf	TMR1_ReadTimer@readValHigh,w,c
  9596  002A2A  6E03               	movwf	??_TMR1_ReadTimer& (0+255),c
  9597  002A2C  5008               	movf	TMR1_ReadTimer@readValLow,w,c
  9598  002A2E  6E05               	movwf	TMR1_ReadTimer@readVal,c
  9599  002A30  C003  F006         	movff	??_TMR1_ReadTimer,TMR1_ReadTimer@readVal+1
  9600                           
  9601                           ;tmr1.c: 126: return readVal;
  9602  002A34  C005  F001         	movff	TMR1_ReadTimer@readVal,?_TMR1_ReadTimer
  9603  002A38  C006  F002         	movff	TMR1_ReadTimer@readVal+1,?_TMR1_ReadTimer+1
  9604  002A3C  0012               	return	
  9605  002A3E                     __end_of_TMR1_ReadTimer:
  9606                           	opt stack 0
  9607                           tosu	equ	0xFFF
  9608                           tosh	equ	0xFFE
  9609                           tosl	equ	0xFFD
  9610                           pclatu	equ	0xFFB
  9611                           pclath	equ	0xFFA
  9612                           tblptru	equ	0xFF8
  9613                           tblptrh	equ	0xFF7
  9614                           tblptrl	equ	0xFF6
  9615                           tablat	equ	0xFF5
  9616                           prodh	equ	0xFF4
  9617                           prodl	equ	0xFF3
  9618                           intcon	equ	0xFF2
  9619                           postinc0	equ	0xFEE
  9620                           fsr0h	equ	0xFEA
  9621                           fsr0l	equ	0xFE9
  9622                           wreg	equ	0xFE8
  9623                           postdec1	equ	0xFE5
  9624                           fsr1h	equ	0xFE2
  9625                           fsr1l	equ	0xFE1
  9626                           fsr2h	equ	0xFDA
  9627                           fsr2l	equ	0xFD9
  9628                           status	equ	0xFD8
  9629                           
  9630 ;; *************** function _I2C1_ISR *****************
  9631 ;; Defined at:
  9632 ;;		line 235 in file "mcc_generated_files/i2c1.c"
  9633 ;; Parameters:    Size  Location     Type
  9634 ;;		None
  9635 ;; Auto vars:     Size  Location     Type
  9636 ;;		None
  9637 ;; Return value:  Size  Location     Type
  9638 ;;                  1    wreg      void 
  9639 ;; Registers used:
  9640 ;;		wreg, fsr2l, fsr2h, status,2, status,0, cstack
  9641 ;; Tracked objects:
  9642 ;;		On entry : 0/0
  9643 ;;		On exit  : 0/0
  9644 ;;		Unchanged: 0/0
  9645 ;; Data sizes:     COMRAM   BANK0   BANK1   BANK2   BANK3   BANK4   BANK5   BANK6   BANK7   BANK8   BANK9  BANK10  BANK1
      +1  BANK12  BANK13  BANK14
  9646 ;;      Params:         0       0       0       0       0       0       0       0       0       0       0       0       
      +0       0       0       0
  9647 ;;      Locals:         0       0       0       0       0       0       0       0       0       0       0       0       
      +0       0       0       0
  9648 ;;      Temps:          2       0       0       0       0       0       0       0       0       0       0       0       
      +0       0       0       0
  9649 ;;      Totals:         2       0       0       0       0       0       0       0       0       0       0       0       
      +0       0       0       0
  9650 ;;Total ram usage:        2 bytes
  9651 ;; Hardware stack levels used:    1
  9652 ;; Hardware stack levels required when called:    1
  9653 ;; This function calls:
  9654 ;;		_I2C1_FunctionComplete
  9655 ;;		_I2C1_Stop
  9656 ;; This function is called by:
  9657 ;;		_INTERRUPT_InterruptManager
  9658 ;; This function uses a non-reentrant model
  9659 ;;
  9660                           
  9661                           	psect	text74
  9662  00187E                     __ptext74:
  9663                           	opt stack 0
  9664  00187E                     _I2C1_ISR:
  9665                           	opt stack 24
  9666                           
  9667                           ;i2c1.c: 238: static uint8_t *pi2c_buf_ptr;
  9668                           ;i2c1.c: 239: static uint16_t i2c_address = 0;
  9669                           ;i2c1.c: 240: static uint8_t i2c_bytes_left = 0;
  9670                           ;i2c1.c: 241: static uint8_t i2c_10bit_address_restart = 0;
  9671                           ;i2c1.c: 243: PIR3bits.SSP1IF = 0;
  9672                           
  9673                           ;incstack = 0
  9674  00187E  010E               	movlb	14	; () banked
  9675  001880  91CD               	bcf	205,0,b	;volatile
  9676                           
  9677                           ;i2c1.c: 247: if(SSP1CON1bits.WCOL)
  9678  001882  AE96               	btfss	3990,7,c	;volatile
  9679  001884  D102               	goto	i2l691
  9680                           
  9681                           ; BSR set to: 14
  9682                           ;i2c1.c: 248: {
  9683                           ;i2c1.c: 250: SSP1CON1bits.WCOL = 0;
  9684  001886  9E96               	bcf	3990,7,c	;volatile
  9685                           
  9686                           ; BSR set to: 14
  9687                           ;i2c1.c: 251: i2c1_state = S_MASTER_IDLE;
  9688  001888  0E00               	movlw	0
  9689  00188A  6E59               	movwf	_i2c1_state,c
  9690                           
  9691                           ; BSR set to: 14
  9692                           ;i2c1.c: 252: *(p_i2c1_current->pTrFlag) = I2C1_MESSAGE_FAIL;
  9693  00188C  0100               	movlb	0	; () banked
  9694  00188E  EE20 F003          	lfsr	2,3
  9695  001892  5199               	movf	_p_i2c1_current& (0+255),w,b
  9696  001894  26D9               	addwf	fsr2l,f,c
  9697  001896  519A               	movf	(_p_i2c1_current+1)& (0+255),w,b
  9698  001898  22DA               	addwfc	fsr2h,f,c
  9699  00189A  CFDE F004          	movff	postinc2,??_I2C1_ISR
  9700  00189E  CFDD F005          	movff	postdec2,??_I2C1_ISR+1
  9701  0018A2  C004  FFD9         	movff	??_I2C1_ISR,fsr2l
  9702  0018A6  C005  FFDA         	movff	??_I2C1_ISR+1,fsr2h
  9703  0018AA  0E01               	movlw	1
  9704  0018AC  6EDF               	movwf	indf2,c
  9705                           
  9706                           ; BSR set to: 0
  9707                           ;i2c1.c: 255: p_i2c1_current = (0);
  9708  0018AE  0E00               	movlw	0
  9709  0018B0  6F99               	movwf	_p_i2c1_current& (0+255),b
  9710  0018B2  0E00               	movlw	0
  9711  0018B4  6F9A               	movwf	(_p_i2c1_current+1)& (0+255),b
  9712                           
  9713                           ; BSR set to: 0
  9714                           ;i2c1.c: 257: return;
  9715  0018B6  0012               	return	
  9716  0018B8                     i2l692:
  9717                           
  9718                           ;i2c1.c: 265: if(i2c1_object.trStatus.s.empty != 1)
  9719  0018B8  0100               	movlb	0	; () banked
  9720  0018BA  B374               	btfsc	(_i2c1_object+4)& (0+255),1,b
  9721  0018BC  0012               	return	
  9722                           
  9723                           ; BSR set to: 0
  9724                           ;i2c1.c: 266: {
  9725                           ;i2c1.c: 268: p_i2c1_current = i2c1_object.pTrHead;
  9726  0018BE  C072  F099         	movff	_i2c1_object+2,_p_i2c1_current
  9727  0018C2  C073  F09A         	movff	_i2c1_object+3,_p_i2c1_current+1
  9728                           
  9729                           ; BSR set to: 0
  9730                           ;i2c1.c: 269: i2c1_trb_count = i2c1_object.pTrHead->count;
  9731  0018C6  C072  FFD9         	movff	_i2c1_object+2,fsr2l
  9732  0018CA  C073  FFDA         	movff	_i2c1_object+3,fsr2h
  9733  0018CE  50DF               	movf	indf2,w,c
  9734  0018D0  6E58               	movwf	_i2c1_trb_count,c
  9735                           
  9736                           ; BSR set to: 0
  9737                           ;i2c1.c: 270: p_i2c1_trb_current = i2c1_object.pTrHead->ptrb_list;
  9738  0018D2  EE20 F001          	lfsr	2,1
  9739  0018D6  5172               	movf	(_i2c1_object+2)& (0+255),w,b
  9740  0018D8  26D9               	addwf	fsr2l,f,c
  9741  0018DA  5173               	movf	(_i2c1_object+3)& (0+255),w,b
  9742  0018DC  22DA               	addwfc	fsr2h,f,c
  9743  0018DE  CFDE F050          	movff	postinc2,_p_i2c1_trb_current
  9744  0018E2  CFDD F051          	movff	postdec2,_p_i2c1_trb_current+1
  9745                           
  9746                           ; BSR set to: 0
  9747                           ;i2c1.c: 272: i2c1_object.pTrHead++;
  9748  0018E6  0E05               	movlw	5
  9749  0018E8  2772               	addwf	(_i2c1_object+2)& (0+255),f,b
  9750  0018EA  0E00               	movlw	0
  9751  0018EC  2373               	addwfc	(_i2c1_object+3)& (0+255),f,b
  9752                           
  9753                           ; BSR set to: 0
  9754                           ;i2c1.c: 275: if(i2c1_object.pTrHead == (i2c1_tr_queue + 1))
  9755  0018EE  0EB4               	movlw	low (_i2c1_tr_queue+5)
  9756  0018F0  1972               	xorwf	(_i2c1_object+2)& (0+255),w,b
  9757  0018F2  E108               	bnz	i2l6487
  9758  0018F4  0E00               	movlw	high (_i2c1_tr_queue+5)
  9759  0018F6  1973               	xorwf	(_i2c1_object+3)& (0+255),w,b
  9760  0018F8  A4D8               	btfss	status,2,c
  9761  0018FA  D004               	goto	i2l694
  9762                           
  9763                           ; BSR set to: 0
  9764                           ;i2c1.c: 276: {
  9765                           ;i2c1.c: 278: i2c1_object.pTrHead = i2c1_tr_queue;
  9766  0018FC  0EAF               	movlw	low _i2c1_tr_queue
  9767  0018FE  6F72               	movwf	(_i2c1_object+2)& (0+255),b
  9768  001900  0E00               	movlw	high _i2c1_tr_queue
  9769  001902  6F73               	movwf	(_i2c1_object+3)& (0+255),b
  9770  001904                     i2l694:
  9771  001904                     i2l6487:
  9772                           
  9773                           ; BSR set to: 0
  9774                           ;i2c1.c: 279: }
  9775                           ;i2c1.c: 283: i2c1_object.trStatus.s.full = 0;
  9776  001904  9174               	bcf	(_i2c1_object+4)& (0+255),0,b
  9777                           
  9778                           ;i2c1.c: 286: if(i2c1_object.pTrHead == i2c1_object.pTrTail)
  9779  001906  5170               	movf	_i2c1_object& (0+255),w,b
  9780  001908  1972               	xorwf	(_i2c1_object+2)& (0+255),w,b
  9781  00190A  E104               	bnz	i2l695
  9782  00190C  5171               	movf	(_i2c1_object+1)& (0+255),w,b
  9783  00190E  1973               	xorwf	(_i2c1_object+3)& (0+255),w,b
  9784  001910  B4D8               	btfsc	status,2,c
  9785                           
  9786                           ; BSR set to: 0
  9787                           ;i2c1.c: 287: {
  9788                           ;i2c1.c: 289: i2c1_object.trStatus.s.empty = 1;
  9789  001912  8374               	bsf	(_i2c1_object+4)& (0+255),1,b
  9790  001914                     i2l695:
  9791                           
  9792                           ; BSR set to: 0
  9793                           ;i2c1.c: 290: }
  9794                           ;i2c1.c: 293: SSP1CON2bits.SEN = 1;
  9795  001914  8097               	bsf	3991,0,c	;volatile
  9796                           
  9797                           ; BSR set to: 0
  9798                           ;i2c1.c: 296: i2c1_state = S_MASTER_SEND_ADDR;
  9799  001916  0E02               	movlw	2
  9800  001918  6E59               	movwf	_i2c1_state,c
  9801                           
  9802                           ; BSR set to: 0
  9803                           ;i2c1.c: 297: }
  9804                           ;i2c1.c: 299: break;
  9805  00191A  0012               	return	
  9806  00191C                     i2l697:
  9807                           
  9808                           ;i2c1.c: 306: SSP1CON2bits.RSEN = 1;
  9809  00191C  8297               	bsf	3991,1,c	;volatile
  9810                           
  9811                           ;i2c1.c: 309: i2c1_state = S_MASTER_SEND_ADDR;
  9812  00191E  0E02               	movlw	2
  9813  001920  6E59               	movwf	_i2c1_state,c
  9814                           
  9815                           ;i2c1.c: 311: break;
  9816  001922  0012               	return	
  9817  001924                     i2l698:
  9818                           
  9819                           ;i2c1.c: 315: if(SSP1CON2bits.ACKSTAT)
  9820  001924  AC97               	btfss	3991,6,c	;volatile
  9821  001926  D006               	goto	i2l699
  9822                           
  9823                           ;i2c1.c: 316: {
  9824                           ;i2c1.c: 317: i2c1_object.i2cErrors++;
  9825  001928  0100               	movlb	0	; () banked
  9826  00192A  2B76               	incf	(_i2c1_object+6)& (0+255),f,b
  9827                           
  9828                           ; BSR set to: 0
  9829                           ;i2c1.c: 318: I2C1_Stop(I2C1_MESSAGE_ADDRESS_NO_ACK);
  9830  00192C  0E04               	movlw	4
  9831  00192E  ECDA  F012         	call	_I2C1_Stop
  9832                           
  9833                           ;i2c1.c: 319: }
  9834  001932  0012               	return	
  9835  001934                     i2l699:
  9836                           
  9837                           ;i2c1.c: 320: else
  9838                           ;i2c1.c: 321: {
  9839                           ;i2c1.c: 323: SSP1BUF = (i2c_address >> 1) & 0x00FF;
  9840  001934  90D8               	bcf	status,0,c
  9841  001936  305B               	rrcf	I2C1_ISR@i2c_address+1,w,c
  9842  001938  6E05               	movwf	(??_I2C1_ISR+1)& (0+255),c
  9843  00193A  305A               	rrcf	I2C1_ISR@i2c_address,w,c
  9844  00193C  6E04               	movwf	??_I2C1_ISR& (0+255),c
  9845  00193E  5004               	movf	??_I2C1_ISR,w,c
  9846  001940  6E92               	movwf	3986,c	;volatile
  9847                           
  9848                           ;i2c1.c: 326: if(i2c_address & 0x01)
  9849  001942  A05A               	btfss	I2C1_ISR@i2c_address,0,c
  9850  001944  D003               	goto	i2l701
  9851                           
  9852                           ;i2c1.c: 327: {
  9853                           ;i2c1.c: 330: i2c1_state = S_MASTER_10BIT_RESTART;
  9854  001946  0E0B               	movlw	11
  9855  001948  6E59               	movwf	_i2c1_state,c
  9856                           
  9857                           ;i2c1.c: 331: }
  9858  00194A  0012               	return	
  9859  00194C                     i2l701:
  9860                           
  9861                           ;i2c1.c: 332: else
  9862                           ;i2c1.c: 333: {
  9863                           ;i2c1.c: 335: i2c1_state = S_MASTER_SEND_DATA;
  9864  00194C  0E03               	movlw	3
  9865  00194E  6E59               	movwf	_i2c1_state,c
  9866                           
  9867                           ;i2c1.c: 336: }
  9868                           ;i2c1.c: 337: }
  9869                           ;i2c1.c: 339: break;
  9870  001950  0012               	return	
  9871  001952                     i2l703:
  9872                           
  9873                           ;i2c1.c: 343: if(SSP1CON2bits.ACKSTAT)
  9874  001952  AC97               	btfss	3991,6,c	;volatile
  9875  001954  D006               	goto	i2l704
  9876                           
  9877                           ;i2c1.c: 344: {
  9878                           ;i2c1.c: 345: i2c1_object.i2cErrors++;
  9879  001956  0100               	movlb	0	; () banked
  9880  001958  2B76               	incf	(_i2c1_object+6)& (0+255),f,b
  9881                           
  9882                           ; BSR set to: 0
  9883                           ;i2c1.c: 346: I2C1_Stop(I2C1_MESSAGE_ADDRESS_NO_ACK);
  9884  00195A  0E04               	movlw	4
  9885  00195C  ECDA  F012         	call	_I2C1_Stop
  9886                           
  9887                           ;i2c1.c: 347: }
  9888  001960  0012               	return	
  9889  001962                     i2l704:
  9890                           
  9891                           ;i2c1.c: 348: else
  9892                           ;i2c1.c: 349: {
  9893                           ;i2c1.c: 352: SSP1CON2bits.RSEN = 1;
  9894  001962  8297               	bsf	3991,1,c	;volatile
  9895                           
  9896                           ;i2c1.c: 356: i2c_address = 0x00F0 | ((i2c_address >> 8) & 0x0006);
  9897  001964  C05A  F004         	movff	I2C1_ISR@i2c_address,??_I2C1_ISR
  9898  001968  C05B  F005         	movff	I2C1_ISR@i2c_address+1,??_I2C1_ISR+1
  9899  00196C  C005  F004         	movff	??_I2C1_ISR+1,??_I2C1_ISR
  9900  001970  6A05               	clrf	??_I2C1_ISR+1,c
  9901  001972  0E06               	movlw	6
  9902  001974  1604               	andwf	??_I2C1_ISR,f,c
  9903  001976  0E00               	movlw	0
  9904  001978  1605               	andwf	??_I2C1_ISR+1,f,c
  9905  00197A  0EF0               	movlw	240
  9906  00197C  1004               	iorwf	??_I2C1_ISR,w,c
  9907  00197E  6E5A               	movwf	I2C1_ISR@i2c_address,c
  9908  001980  5005               	movf	??_I2C1_ISR+1,w,c
  9909  001982  6E5B               	movwf	I2C1_ISR@i2c_address+1,c
  9910                           
  9911                           ;i2c1.c: 359: i2c_address |= 0x0001;
  9912  001984  805A               	bsf	I2C1_ISR@i2c_address,0,c
  9913                           
  9914                           ;i2c1.c: 362: i2c_10bit_address_restart = 1;
  9915  001986  0E01               	movlw	1
  9916  001988  6E56               	movwf	I2C1_ISR@i2c_10bit_address_restart,c
  9917                           
  9918                           ;i2c1.c: 365: i2c1_state = S_MASTER_SEND_ADDR;
  9919  00198A  0E02               	movlw	2
  9920  00198C  6E59               	movwf	_i2c1_state,c
  9921                           
  9922                           ;i2c1.c: 366: }
  9923                           ;i2c1.c: 368: break;
  9924  00198E  0012               	return	
  9925  001990                     
  9926                           ;i2c1.c: 383: if(i2c_10bit_address_restart != 1)
  9927  001990  0456               	decf	I2C1_ISR@i2c_10bit_address_restart,w,c
  9928  001992  B4D8               	btfsc	status,2,c
  9929  001994  D01A               	goto	i2l708
  9930                           
  9931                           ;i2c1.c: 384: {
  9932                           ;i2c1.c: 386: i2c_address = p_i2c1_trb_current->address;
  9933  001996  C050  FFD9         	movff	_p_i2c1_trb_current,fsr2l
  9934  00199A  C051  FFDA         	movff	_p_i2c1_trb_current+1,fsr2h
  9935  00199E  CFDE F05A          	movff	postinc2,I2C1_ISR@i2c_address
  9936  0019A2  CFDD F05B          	movff	postdec2,I2C1_ISR@i2c_address+1
  9937                           
  9938                           ;i2c1.c: 387: pi2c_buf_ptr = p_i2c1_trb_current->pbuffer;
  9939  0019A6  EE20 F003          	lfsr	2,3
  9940  0019AA  5050               	movf	_p_i2c1_trb_current,w,c
  9941  0019AC  26D9               	addwf	fsr2l,f,c
  9942  0019AE  5051               	movf	_p_i2c1_trb_current+1,w,c
  9943  0019B0  22DA               	addwfc	fsr2h,f,c
  9944  0019B2  CFDE F097          	movff	postinc2,I2C1_ISR@pi2c_buf_ptr
  9945  0019B6  CFDD F098          	movff	postdec2,I2C1_ISR@pi2c_buf_ptr+1
  9946                           
  9947                           ;i2c1.c: 388: i2c_bytes_left = p_i2c1_trb_current->length;
  9948  0019BA  EE20 F002          	lfsr	2,2
  9949  0019BE  5050               	movf	_p_i2c1_trb_current,w,c
  9950  0019C0  26D9               	addwf	fsr2l,f,c
  9951  0019C2  5051               	movf	_p_i2c1_trb_current+1,w,c
  9952  0019C4  22DA               	addwfc	fsr2h,f,c
  9953  0019C6  50DF               	movf	indf2,w,c
  9954  0019C8  6E57               	movwf	I2C1_ISR@i2c_bytes_left,c
  9955  0019CA                     i2l708:
  9956                           
  9957                           ;i2c1.c: 411: else
  9958                           ;i2c1.c: 412: {
  9959                           ;i2c1.c: 414: SSP1BUF = i2c_address;
  9960  0019CA  C05A  FF92         	movff	I2C1_ISR@i2c_address,3986	;volatile
  9961                           
  9962                           ;i2c1.c: 415: if(i2c_address & 0x01)
  9963  0019CE  A05A               	btfss	I2C1_ISR@i2c_address,0,c
  9964  0019D0  D003               	goto	i2l712
  9965                           
  9966                           ;i2c1.c: 416: {
  9967                           ;i2c1.c: 418: i2c1_state = S_MASTER_ACK_ADDR;
  9968  0019D2  0E05               	movlw	5
  9969  0019D4  6E59               	movwf	_i2c1_state,c
  9970                           
  9971                           ;i2c1.c: 419: }
  9972  0019D6  0012               	return	
  9973  0019D8                     i2l712:
  9974                           
  9975                           ;i2c1.c: 420: else
  9976                           ;i2c1.c: 421: {
  9977                           ;i2c1.c: 423: i2c1_state = S_MASTER_SEND_DATA;
  9978  0019D8  0E03               	movlw	3
  9979  0019DA  6E59               	movwf	_i2c1_state,c
  9980                           
  9981                           ;i2c1.c: 424: }
  9982                           ;i2c1.c: 425: }
  9983                           ;i2c1.c: 426: break;
  9984  0019DC  0012               	return	
  9985  0019DE                     i2l714:
  9986                           
  9987                           ;i2c1.c: 431: if(SSP1CON2bits.ACKSTAT)
  9988  0019DE  AC97               	btfss	3991,6,c	;volatile
  9989  0019E0  D007               	goto	i2l715
  9990                           
  9991                           ;i2c1.c: 432: {
  9992                           ;i2c1.c: 434: i2c1_object.i2cErrors++;
  9993  0019E2  0100               	movlb	0	; () banked
  9994  0019E4  2B76               	incf	(_i2c1_object+6)& (0+255),f,b
  9995                           
  9996                           ; BSR set to: 0
  9997                           ;i2c1.c: 437: SSP1CON2bits.ACKSTAT = 0;
  9998  0019E6  9C97               	bcf	3991,6,c	;volatile
  9999                           
 10000                           ; BSR set to: 0
 10001                           ;i2c1.c: 440: I2C1_Stop(I2C1_DATA_NO_ACK);
 10002  0019E8  0E05               	movlw	5
 10003  0019EA  ECDA  F012         	call	_I2C1_Stop
 10004                           
 10005                           ;i2c1.c: 442: }
 10006  0019EE  0012               	return	
 10007  0019F0                     i2l715:
 10008                           
 10009                           ;i2c1.c: 443: else
 10010                           ;i2c1.c: 444: {
 10011                           ;i2c1.c: 446: if(i2c_bytes_left-- == 0U)
 10012  0019F0  0657               	decf	I2C1_ISR@i2c_bytes_left,f,c
 10013  0019F2  2857               	incf	I2C1_ISR@i2c_bytes_left,w,c
 10014  0019F4  A4D8               	btfss	status,2,c
 10015  0019F6  D00E               	goto	i2l717
 10016                           
 10017                           ;i2c1.c: 447: {
 10018                           ;i2c1.c: 451: p_i2c1_trb_current++;
 10019  0019F8  0E05               	movlw	5
 10020  0019FA  2650               	addwf	_p_i2c1_trb_current,f,c
 10021  0019FC  0E00               	movlw	0
 10022  0019FE  2251               	addwfc	_p_i2c1_trb_current+1,f,c
 10023                           
 10024                           ;i2c1.c: 454: if(--i2c1_trb_count == 0)
 10025  001A00  2E58               	decfsz	_i2c1_trb_count,f,c
 10026  001A02  D004               	goto	i2l718
 10027                           
 10028                           ;i2c1.c: 455: {
 10029                           ;i2c1.c: 456: I2C1_Stop(I2C1_MESSAGE_COMPLETE);
 10030  001A04  0E00               	movlw	0
 10031  001A06  ECDA  F012         	call	_I2C1_Stop
 10032                           
 10033                           ;i2c1.c: 457: }
 10034  001A0A  0012               	return	
 10035  001A0C                     i2l718:
 10036                           
 10037                           ;i2c1.c: 458: else
 10038                           ;i2c1.c: 459: {
 10039                           ;i2c1.c: 466: SSP1CON2bits.RSEN = 1;
 10040  001A0C  8297               	bsf	3991,1,c	;volatile
 10041                           
 10042                           ;i2c1.c: 469: i2c1_state = S_MASTER_SEND_ADDR;
 10043  001A0E  0E02               	movlw	2
 10044  001A10  6E59               	movwf	_i2c1_state,c
 10045                           
 10046                           ;i2c1.c: 471: }
 10047                           ;i2c1.c: 472: }
 10048  001A12  0012               	return	
 10049  001A14                     i2l717:
 10050                           
 10051                           ;i2c1.c: 473: else
 10052                           ;i2c1.c: 474: {
 10053                           ;i2c1.c: 476: SSP1BUF = *pi2c_buf_ptr++;
 10054  001A14  C097  FFD9         	movff	I2C1_ISR@pi2c_buf_ptr,fsr2l
 10055  001A18  C098  FFDA         	movff	I2C1_ISR@pi2c_buf_ptr+1,fsr2h
 10056  001A1C  50DF               	movf	indf2,w,c
 10057  001A1E  6E92               	movwf	3986,c	;volatile
 10058  001A20  0100               	movlb	0	; () banked
 10059  001A22  4B97               	infsnz	I2C1_ISR@pi2c_buf_ptr& (0+255),f,b
 10060  001A24  2B98               	incf	(I2C1_ISR@pi2c_buf_ptr+1)& (0+255),f,b
 10061                           
 10062                           ; BSR set to: 0
 10063                           ;i2c1.c: 477: }
 10064                           ;i2c1.c: 478: }
 10065                           ;i2c1.c: 479: break;
 10066                           
 10067                           ; BSR set to: 0
 10068  001A26  0012               	return	
 10069  001A28                     i2l721:
 10070                           
 10071                           ;i2c1.c: 484: if(SSP1CON2bits.ACKSTAT)
 10072  001A28  AC97               	btfss	3991,6,c	;volatile
 10073  001A2A  D007               	goto	i2l722
 10074                           
 10075                           ;i2c1.c: 485: {
 10076                           ;i2c1.c: 488: i2c1_object.i2cErrors++;
 10077  001A2C  0100               	movlb	0	; () banked
 10078  001A2E  2B76               	incf	(_i2c1_object+6)& (0+255),f,b
 10079                           
 10080                           ; BSR set to: 0
 10081                           ;i2c1.c: 491: I2C1_Stop(I2C1_MESSAGE_ADDRESS_NO_ACK);
 10082  001A30  0E04               	movlw	4
 10083  001A32  ECDA  F012         	call	_I2C1_Stop
 10084                           
 10085                           ;i2c1.c: 494: SSP1CON2bits.ACKSTAT = 0;
 10086  001A36  9C97               	bcf	3991,6,c	;volatile
 10087                           
 10088                           ;i2c1.c: 495: }
 10089  001A38  0012               	return	
 10090  001A3A                     i2l722:
 10091                           
 10092                           ;i2c1.c: 496: else
 10093                           ;i2c1.c: 497: {
 10094                           ;i2c1.c: 498: SSP1CON2bits.RCEN = 1;
 10095  001A3A  8697               	bsf	3991,3,c	;volatile
 10096                           
 10097                           ;i2c1.c: 499: i2c1_state = S_MASTER_ACK_RCV_DATA;
 10098  001A3C  0E08               	movlw	8
 10099  001A3E  6E59               	movwf	_i2c1_state,c
 10100                           
 10101                           ;i2c1.c: 500: }
 10102                           ;i2c1.c: 501: break;
 10103  001A40  0012               	return	
 10104  001A42                     
 10105                           ;i2c1.c: 508: i2c1_state = S_MASTER_ACK_RCV_DATA;
 10106  001A42  0E08               	movlw	8
 10107  001A44  6E59               	movwf	_i2c1_state,c
 10108                           
 10109                           ;i2c1.c: 511: SSP1CON2bits.RCEN = 1;
 10110  001A46  8697               	bsf	3991,3,c	;volatile
 10111                           
 10112                           ;i2c1.c: 513: break;
 10113  001A48  0012               	return	
 10114  001A4A                     
 10115                           ;i2c1.c: 518: *pi2c_buf_ptr++ = SSP1BUF;
 10116  001A4A  C097  FFD9         	movff	I2C1_ISR@pi2c_buf_ptr,fsr2l
 10117  001A4E  C098  FFDA         	movff	I2C1_ISR@pi2c_buf_ptr+1,fsr2h
 10118  001A52  CF92 FFDF          	movff	3986,indf2	;volatile
 10119  001A56  0100               	movlb	0	; () banked
 10120  001A58  4B97               	infsnz	I2C1_ISR@pi2c_buf_ptr& (0+255),f,b
 10121  001A5A  2B98               	incf	(I2C1_ISR@pi2c_buf_ptr+1)& (0+255),f,b
 10122                           
 10123                           ; BSR set to: 0
 10124                           ;i2c1.c: 521: if(--i2c_bytes_left)
 10125  001A5C  0E01               	movlw	1
 10126  001A5E  5E57               	subwf	I2C1_ISR@i2c_bytes_left,f,c
 10127  001A60  B4D8               	btfsc	status,2,c
 10128  001A62  D004               	goto	i2l726
 10129                           
 10130                           ; BSR set to: 0
 10131                           ;i2c1.c: 522: {
 10132                           ;i2c1.c: 528: SSP1CON2bits.ACKDT = 0;
 10133  001A64  9A97               	bcf	3991,5,c	;volatile
 10134                           
 10135                           ; BSR set to: 0
 10136                           ;i2c1.c: 531: i2c1_state = S_MASTER_RCV_DATA;
 10137  001A66  0E06               	movlw	6
 10138  001A68  6E59               	movwf	_i2c1_state,c
 10139                           
 10140                           ;i2c1.c: 532: }
 10141  001A6A  D003               	goto	i2l727
 10142  001A6C                     i2l726:
 10143                           
 10144                           ; BSR set to: 0
 10145                           ;i2c1.c: 533: else
 10146                           ;i2c1.c: 534: {
 10147                           ;i2c1.c: 538: SSP1CON2bits.ACKDT = 1;
 10148  001A6C  8A97               	bsf	3991,5,c	;volatile
 10149                           
 10150                           ; BSR set to: 0
 10151                           ;i2c1.c: 540: I2C1_FunctionComplete();
 10152  001A6E  EC80  F015         	call	_I2C1_FunctionComplete	;wreg free
 10153  001A72                     i2l727:
 10154                           
 10155                           ;i2c1.c: 541: }
 10156                           ;i2c1.c: 544: SSP1CON2bits.ACKEN = 1;
 10157  001A72  8897               	bsf	3991,4,c	;volatile
 10158                           
 10159                           ;i2c1.c: 545: break;
 10160  001A74  0012               	return	
 10161  001A76                     
 10162                           ;i2c1.c: 548: case S_MASTER_SEND_STOP:
 10163                           ;i2c1.c: 551: I2C1_Stop(I2C1_MESSAGE_COMPLETE);
 10164  001A76  0E00               	movlw	0
 10165  001A78  ECDA  F012         	call	_I2C1_Stop
 10166                           
 10167                           ;i2c1.c: 552: break;
 10168  001A7C  0012               	return	
 10169  001A7E                     
 10170                           ;i2c1.c: 558: i2c1_object.i2cErrors++;
 10171  001A7E  0100               	movlb	0	; () banked
 10172  001A80  2B76               	incf	(_i2c1_object+6)& (0+255),f,b
 10173                           
 10174                           ; BSR set to: 0
 10175                           ;i2c1.c: 559: I2C1_Stop(I2C1_LOST_STATE);
 10176  001A82  0E06               	movlw	6
 10177  001A84  ECDA  F012         	call	_I2C1_Stop
 10178                           
 10179                           ;i2c1.c: 562: }
 10180                           
 10181                           ;i2c1.c: 560: break;
 10182  001A88  0012               	return	
 10183  001A8A                     i2l691:
 10184  001A8A  5059               	movf	_i2c1_state,w,c
 10185                           
 10186                           ; Switch size 1, requested type "space"
 10187                           ; Number of cases is 11, Range of values is 0 to 11
 10188                           ; switch strategies available:
 10189                           ; Name         Instructions Cycles
 10190                           ; simple_byte           34    18 (average)
 10191                           ;	Chosen strategy is simple_byte
 10192  001A8C  0A00               	xorlw	0	; case 0
 10193  001A8E  B4D8               	btfsc	status,2,c
 10194  001A90  D713               	goto	i2l692
 10195  001A92  0A01               	xorlw	1	; case 1
 10196  001A94  B4D8               	btfsc	status,2,c
 10197  001A96  D742               	goto	i2l697
 10198  001A98  0A03               	xorlw	3	; case 2
 10199  001A9A  B4D8               	btfsc	status,2,c
 10200  001A9C  D779               	goto	i2l706
 10201  001A9E  0A01               	xorlw	1	; case 3
 10202  001AA0  B4D8               	btfsc	status,2,c
 10203  001AA2  D79D               	goto	i2l714
 10204  001AA4  0A07               	xorlw	7	; case 4
 10205  001AA6  B4D8               	btfsc	status,2,c
 10206  001AA8  D7E6               	goto	i2l728
 10207  001AAA  0A01               	xorlw	1	; case 5
 10208  001AAC  B4D8               	btfsc	status,2,c
 10209  001AAE  D7BC               	goto	i2l721
 10210  001AB0  0A03               	xorlw	3	; case 6
 10211  001AB2  B4D8               	btfsc	status,2,c
 10212  001AB4  D7C6               	goto	i2l724
 10213  001AB6  0A01               	xorlw	1	; case 7
 10214  001AB8  B4D8               	btfsc	status,2,c
 10215  001ABA  D7DD               	goto	i2l728
 10216  001ABC  0A0F               	xorlw	15	; case 8
 10217  001ABE  B4D8               	btfsc	status,2,c
 10218  001AC0  D7C4               	goto	i2l725
 10219  001AC2  0A02               	xorlw	2	; case 10
 10220  001AC4  B4D8               	btfsc	status,2,c
 10221  001AC6  D72E               	goto	i2l698
 10222  001AC8  0A01               	xorlw	1	; case 11
 10223  001ACA  B4D8               	btfsc	status,2,c
 10224  001ACC  D742               	goto	i2l703
 10225  001ACE  D7D7               	goto	i2l730
 10226  001AD0                     __end_of_I2C1_ISR:
 10227                           	opt stack 0
 10228                           tosu	equ	0xFFF
 10229                           tosh	equ	0xFFE
 10230                           tosl	equ	0xFFD
 10231                           pclatu	equ	0xFFB
 10232                           pclath	equ	0xFFA
 10233                           tblptru	equ	0xFF8
 10234                           tblptrh	equ	0xFF7
 10235                           tblptrl	equ	0xFF6
 10236                           tablat	equ	0xFF5
 10237                           prodh	equ	0xFF4
 10238                           prodl	equ	0xFF3
 10239                           intcon	equ	0xFF2
 10240                           postinc0	equ	0xFEE
 10241                           fsr0h	equ	0xFEA
 10242                           fsr0l	equ	0xFE9
 10243                           wreg	equ	0xFE8
 10244                           postdec1	equ	0xFE5
 10245                           fsr1h	equ	0xFE2
 10246                           fsr1l	equ	0xFE1
 10247                           indf2	equ	0xFDF
 10248                           postinc2	equ	0xFDE
 10249                           postdec2	equ	0xFDD
 10250                           fsr2h	equ	0xFDA
 10251                           fsr2l	equ	0xFD9
 10252                           status	equ	0xFD8
 10253                           
 10254 ;; *************** function _I2C1_Stop *****************
 10255 ;; Defined at:
 10256 ;;		line 583 in file "mcc_generated_files/i2c1.c"
 10257 ;; Parameters:    Size  Location     Type
 10258 ;;  completion_c    1    wreg     enum E11606
 10259 ;; Auto vars:     Size  Location     Type
 10260 ;;  completion_c    1    2[COMRAM] enum E11606
 10261 ;; Return value:  Size  Location     Type
 10262 ;;                  1    wreg      void 
 10263 ;; Registers used:
 10264 ;;		wreg, fsr2l, fsr2h, status,2, status,0
 10265 ;; Tracked objects:
 10266 ;;		On entry : 0/0
 10267 ;;		On exit  : 0/0
 10268 ;;		Unchanged: 0/0
 10269 ;; Data sizes:     COMRAM   BANK0   BANK1   BANK2   BANK3   BANK4   BANK5   BANK6   BANK7   BANK8   BANK9  BANK10  BANK1
      +1  BANK12  BANK13  BANK14
 10270 ;;      Params:         0       0       0       0       0       0       0       0       0       0       0       0       
      +0       0       0       0
 10271 ;;      Locals:         1       0       0       0       0       0       0       0       0       0       0       0       
      +0       0       0       0
 10272 ;;      Temps:          2       0       0       0       0       0       0       0       0       0       0       0       
      +0       0       0       0
 10273 ;;      Totals:         3       0       0       0       0       0       0       0       0       0       0       0       
      +0       0       0       0
 10274 ;;Total ram usage:        3 bytes
 10275 ;; Hardware stack levels used:    1
 10276 ;; This function calls:
 10277 ;;		Nothing
 10278 ;; This function is called by:
 10279 ;;		_I2C1_ISR
 10280 ;; This function uses a non-reentrant model
 10281 ;;
 10282                           
 10283                           	psect	text75
 10284  0025B4                     __ptext75:
 10285                           	opt stack 0
 10286  0025B4                     _I2C1_Stop:
 10287                           	opt stack 24
 10288                           
 10289                           ;incstack = 0
 10290                           ;I2C1_Stop@completion_code stored from wreg
 10291  0025B4  6E03               	movwf	I2C1_Stop@completion_code,c
 10292                           
 10293                           ;i2c1.c: 586: SSP1CON2bits.PEN = 1;
 10294  0025B6  8497               	bsf	3991,2,c	;volatile
 10295                           
 10296                           ;i2c1.c: 589: if (p_i2c1_current->pTrFlag != (0))
 10297  0025B8  0100               	movlb	0	; () banked
 10298  0025BA  EE20 F003          	lfsr	2,3
 10299  0025BE  5199               	movf	_p_i2c1_current& (0+255),w,b
 10300  0025C0  26D9               	addwf	fsr2l,f,c
 10301  0025C2  519A               	movf	(_p_i2c1_current+1)& (0+255),w,b
 10302  0025C4  22DA               	addwfc	fsr2h,f,c
 10303  0025C6  50DE               	movf	postinc2,w,c
 10304  0025C8  10DE               	iorwf	postinc2,w,c
 10305  0025CA  B4D8               	btfsc	status,2,c
 10306  0025CC  D010               	goto	i2l738
 10307                           
 10308                           ; BSR set to: 0
 10309                           ;i2c1.c: 590: {
 10310                           ;i2c1.c: 592: *(p_i2c1_current->pTrFlag) = completion_code;
 10311  0025CE  EE20 F003          	lfsr	2,3
 10312  0025D2  5199               	movf	_p_i2c1_current& (0+255),w,b
 10313  0025D4  26D9               	addwf	fsr2l,f,c
 10314  0025D6  519A               	movf	(_p_i2c1_current+1)& (0+255),w,b
 10315  0025D8  22DA               	addwfc	fsr2h,f,c
 10316  0025DA  CFDE F001          	movff	postinc2,??_I2C1_Stop
 10317  0025DE  CFDD F002          	movff	postdec2,??_I2C1_Stop+1
 10318  0025E2  C001  FFD9         	movff	??_I2C1_Stop,fsr2l
 10319  0025E6  C002  FFDA         	movff	??_I2C1_Stop+1,fsr2h
 10320  0025EA  C003  FFDF         	movff	I2C1_Stop@completion_code,indf2
 10321  0025EE                     i2l738:
 10322                           
 10323                           ; BSR set to: 0
 10324                           ;i2c1.c: 593: }
 10325                           ;i2c1.c: 596: i2c1_state = S_MASTER_IDLE;
 10326                           
 10327                           ; BSR set to: 0
 10328  0025EE  0E00               	movlw	0
 10329  0025F0  6E59               	movwf	_i2c1_state,c
 10330                           
 10331                           ; BSR set to: 0
 10332  0025F2  0012               	return		;funcret
 10333  0025F4                     __end_of_I2C1_Stop:
 10334                           	opt stack 0
 10335                           tosu	equ	0xFFF
 10336                           tosh	equ	0xFFE
 10337                           tosl	equ	0xFFD
 10338                           pclatu	equ	0xFFB
 10339                           pclath	equ	0xFFA
 10340                           tblptru	equ	0xFF8
 10341                           tblptrh	equ	0xFF7
 10342                           tblptrl	equ	0xFF6
 10343                           tablat	equ	0xFF5
 10344                           prodh	equ	0xFF4
 10345                           prodl	equ	0xFF3
 10346                           intcon	equ	0xFF2
 10347                           postinc0	equ	0xFEE
 10348                           fsr0h	equ	0xFEA
 10349                           fsr0l	equ	0xFE9
 10350                           wreg	equ	0xFE8
 10351                           postdec1	equ	0xFE5
 10352                           fsr1h	equ	0xFE2
 10353                           fsr1l	equ	0xFE1
 10354                           indf2	equ	0xFDF
 10355                           postinc2	equ	0xFDE
 10356                           postdec2	equ	0xFDD
 10357                           fsr2h	equ	0xFDA
 10358                           fsr2l	equ	0xFD9
 10359                           status	equ	0xFD8
 10360                           
 10361 ;; *************** function _I2C1_FunctionComplete *****************
 10362 ;; Defined at:
 10363 ;;		line 565 in file "mcc_generated_files/i2c1.c"
 10364 ;; Parameters:    Size  Location     Type
 10365 ;;		None
 10366 ;; Auto vars:     Size  Location     Type
 10367 ;;		None
 10368 ;; Return value:  Size  Location     Type
 10369 ;;                  1    wreg      void 
 10370 ;; Registers used:
 10371 ;;		wreg, status,2, status,0
 10372 ;; Tracked objects:
 10373 ;;		On entry : 0/0
 10374 ;;		On exit  : 0/0
 10375 ;;		Unchanged: 0/0
 10376 ;; Data sizes:     COMRAM   BANK0   BANK1   BANK2   BANK3   BANK4   BANK5   BANK6   BANK7   BANK8   BANK9  BANK10  BANK1
      +1  BANK12  BANK13  BANK14
 10377 ;;      Params:         0       0       0       0       0       0       0       0       0       0       0       0       
      +0       0       0       0
 10378 ;;      Locals:         0       0       0       0       0       0       0       0       0       0       0       0       
      +0       0       0       0
 10379 ;;      Temps:          0       0       0       0       0       0       0       0       0       0       0       0       
      +0       0       0       0
 10380 ;;      Totals:         0       0       0       0       0       0       0       0       0       0       0       0       
      +0       0       0       0
 10381 ;;Total ram usage:        0 bytes
 10382 ;; Hardware stack levels used:    1
 10383 ;; This function calls:
 10384 ;;		Nothing
 10385 ;; This function is called by:
 10386 ;;		_I2C1_ISR
 10387 ;; This function uses a non-reentrant model
 10388 ;;
 10389                           
 10390                           	psect	text76
 10391  002B00                     __ptext76:
 10392                           	opt stack 0
 10393  002B00                     _I2C1_FunctionComplete:
 10394                           	opt stack 24
 10395                           
 10396                           ;i2c1.c: 569: p_i2c1_trb_current++;
 10397                           
 10398                           ; BSR set to: 0
 10399                           ;incstack = 0
 10400  002B00  0E05               	movlw	5
 10401  002B02  2650               	addwf	_p_i2c1_trb_current,f,c
 10402  002B04  0E00               	movlw	0
 10403  002B06  2251               	addwfc	_p_i2c1_trb_current+1,f,c
 10404                           
 10405                           ;i2c1.c: 572: if(--i2c1_trb_count == 0)
 10406  002B08  2E58               	decfsz	_i2c1_trb_count,f,c
 10407  002B0A  D003               	goto	i2l733
 10408                           
 10409                           ;i2c1.c: 573: {
 10410                           ;i2c1.c: 574: i2c1_state = S_MASTER_SEND_STOP;
 10411  002B0C  0E04               	movlw	4
 10412  002B0E  6E59               	movwf	_i2c1_state,c
 10413                           
 10414                           ;i2c1.c: 575: }
 10415  002B10  0012               	return	
 10416  002B12                     i2l733:
 10417                           
 10418                           ;i2c1.c: 576: else
 10419                           ;i2c1.c: 577: {
 10420                           ;i2c1.c: 578: i2c1_state = S_MASTER_RESTART;
 10421  002B12  0E01               	movlw	1
 10422  002B14  6E59               	movwf	_i2c1_state,c
 10423  002B16  0012               	return	
 10424  002B18                     __end_of_I2C1_FunctionComplete:
 10425                           	opt stack 0
 10426                           tosu	equ	0xFFF
 10427                           tosh	equ	0xFFE
 10428                           tosl	equ	0xFFD
 10429                           pclatu	equ	0xFFB
 10430                           pclath	equ	0xFFA
 10431                           tblptru	equ	0xFF8
 10432                           tblptrh	equ	0xFF7
 10433                           tblptrl	equ	0xFF6
 10434                           tablat	equ	0xFF5
 10435                           prodh	equ	0xFF4
 10436                           prodl	equ	0xFF3
 10437                           intcon	equ	0xFF2
 10438                           postinc0	equ	0xFEE
 10439                           fsr0h	equ	0xFEA
 10440                           fsr0l	equ	0xFE9
 10441                           wreg	equ	0xFE8
 10442                           postdec1	equ	0xFE5
 10443                           fsr1h	equ	0xFE2
 10444                           fsr1l	equ	0xFE1
 10445                           indf2	equ	0xFDF
 10446                           postinc2	equ	0xFDE
 10447                           postdec2	equ	0xFDD
 10448                           fsr2h	equ	0xFDA
 10449                           fsr2l	equ	0xFD9
 10450                           status	equ	0xFD8
 10451                           
 10452 ;; *************** function _I2C1_BusCollisionISR *****************
 10453 ;; Defined at:
 10454 ;;		line 742 in file "mcc_generated_files/i2c1.c"
 10455 ;; Parameters:    Size  Location     Type
 10456 ;;		None
 10457 ;; Auto vars:     Size  Location     Type
 10458 ;;		None
 10459 ;; Return value:  Size  Location     Type
 10460 ;;                  1    wreg      void 
 10461 ;; Registers used:
 10462 ;;		None
 10463 ;; Tracked objects:
 10464 ;;		On entry : 0/0
 10465 ;;		On exit  : 0/0
 10466 ;;		Unchanged: 0/0
 10467 ;; Data sizes:     COMRAM   BANK0   BANK1   BANK2   BANK3   BANK4   BANK5   BANK6   BANK7   BANK8   BANK9  BANK10  BANK1
      +1  BANK12  BANK13  BANK14
 10468 ;;      Params:         0       0       0       0       0       0       0       0       0       0       0       0       
      +0       0       0       0
 10469 ;;      Locals:         0       0       0       0       0       0       0       0       0       0       0       0       
      +0       0       0       0
 10470 ;;      Temps:          0       0       0       0       0       0       0       0       0       0       0       0       
      +0       0       0       0
 10471 ;;      Totals:         0       0       0       0       0       0       0       0       0       0       0       0       
      +0       0       0       0
 10472 ;;Total ram usage:        0 bytes
 10473 ;; Hardware stack levels used:    1
 10474 ;; This function calls:
 10475 ;;		Nothing
 10476 ;; This function is called by:
 10477 ;;		_INTERRUPT_InterruptManager
 10478 ;; This function uses a non-reentrant model
 10479 ;;
 10480                           
 10481                           	psect	text77
 10482  002C6A                     __ptext77:
 10483                           	opt stack 0
 10484  002C6A                     _I2C1_BusCollisionISR:
 10485                           	opt stack 25
 10486                           
 10487                           ;i2c1.c: 745: PIR3bits.BCL1IF = 0;
 10488                           
 10489                           ;incstack = 0
 10490  002C6A  010E               	movlb	14	; () banked
 10491  002C6C  93CD               	bcf	205,1,b	;volatile
 10492                           
 10493                           ; BSR set to: 14
 10494  002C6E  0012               	return		;funcret
 10495  002C70                     __end_of_I2C1_BusCollisionISR:
 10496                           	opt stack 0
 10497                           tosu	equ	0xFFF
 10498                           tosh	equ	0xFFE
 10499                           tosl	equ	0xFFD
 10500                           pclatu	equ	0xFFB
 10501                           pclath	equ	0xFFA
 10502                           tblptru	equ	0xFF8
 10503                           tblptrh	equ	0xFF7
 10504                           tblptrl	equ	0xFF6
 10505                           tablat	equ	0xFF5
 10506                           prodh	equ	0xFF4
 10507                           prodl	equ	0xFF3
 10508                           intcon	equ	0xFF2
 10509                           postinc0	equ	0xFEE
 10510                           fsr0h	equ	0xFEA
 10511                           fsr0l	equ	0xFE9
 10512                           wreg	equ	0xFE8
 10513                           postdec1	equ	0xFE5
 10514                           fsr1h	equ	0xFE2
 10515                           fsr1l	equ	0xFE1
 10516                           indf2	equ	0xFDF
 10517                           postinc2	equ	0xFDE
 10518                           postdec2	equ	0xFDD
 10519                           fsr2h	equ	0xFDA
 10520                           fsr2l	equ	0xFD9
 10521                           status	equ	0xFD8
 10522                           
 10523 ;; *************** function _EUSART1_Transmit_ISR *****************
 10524 ;; Defined at:
 10525 ;;		line 194 in file "mcc_generated_files/eusart1.c"
 10526 ;; Parameters:    Size  Location     Type
 10527 ;;		None
 10528 ;; Auto vars:     Size  Location     Type
 10529 ;;		None
 10530 ;; Return value:  Size  Location     Type
 10531 ;;                  1    wreg      void 
 10532 ;; Registers used:
 10533 ;;		wreg, fsr2l, fsr2h, status,2, status,0, prodl, prodh
 10534 ;; Tracked objects:
 10535 ;;		On entry : 0/0
 10536 ;;		On exit  : 0/0
 10537 ;;		Unchanged: 0/0
 10538 ;; Data sizes:     COMRAM   BANK0   BANK1   BANK2   BANK3   BANK4   BANK5   BANK6   BANK7   BANK8   BANK9  BANK10  BANK1
      +1  BANK12  BANK13  BANK14
 10539 ;;      Params:         0       0       0       0       0       0       0       0       0       0       0       0       
      +0       0       0       0
 10540 ;;      Locals:         0       0       0       0       0       0       0       0       0       0       0       0       
      +0       0       0       0
 10541 ;;      Temps:          0       0       0       0       0       0       0       0       0       0       0       0       
      +0       0       0       0
 10542 ;;      Totals:         0       0       0       0       0       0       0       0       0       0       0       0       
      +0       0       0       0
 10543 ;;Total ram usage:        0 bytes
 10544 ;; Hardware stack levels used:    1
 10545 ;; This function calls:
 10546 ;;		Nothing
 10547 ;; This function is called by:
 10548 ;;		_EUSART1_Initialize
 10549 ;;		_INTERRUPT_InterruptManager
 10550 ;; This function uses a non-reentrant model
 10551 ;;
 10552                           
 10553                           	psect	text78
 10554  0027DE                     __ptext78:
 10555                           	opt stack 0
 10556  0027DE                     _EUSART1_Transmit_ISR:
 10557                           	opt stack 25
 10558                           
 10559                           ;eusart1.c: 198: if(sizeof(eusart1TxBuffer) > eusart1TxBufferRemaining)
 10560                           
 10561                           ; BSR set to: 14
 10562                           ;incstack = 0
 10563  0027DE  0E08               	movlw	8
 10564  0027E0  0100               	movlb	0	; () banked
 10565  0027E2  61D2               	cpfslt	_eusart1TxBufferRemaining& (0+255),b	;volatile
 10566  0027E4  D012               	goto	i2l1239
 10567                           
 10568                           ; BSR set to: 0
 10569                           ;eusart1.c: 199: {
 10570                           ;eusart1.c: 200: TX1REG = eusart1TxBuffer[eusart1TxTail++];
 10571  0027E6  51A3               	movf	_eusart1TxTail& (0+255),w,b	;volatile
 10572  0027E8  0D01               	mullw	1
 10573  0027EA  0E68               	movlw	low _eusart1TxBuffer
 10574  0027EC  24F3               	addwf	prodl,w,c
 10575  0027EE  6ED9               	movwf	fsr2l,c
 10576  0027F0  0E00               	movlw	high _eusart1TxBuffer
 10577  0027F2  20F4               	addwfc	prodh,w,c
 10578  0027F4  6EDA               	movwf	fsr2h,c
 10579  0027F6  50DF               	movf	indf2,w,c
 10580  0027F8  6E9A               	movwf	3994,c	;volatile
 10581                           
 10582                           ; BSR set to: 0
 10583  0027FA  2BA3               	incf	_eusart1TxTail& (0+255),f,b	;volatile
 10584                           
 10585                           ; BSR set to: 0
 10586                           ;eusart1.c: 201: if(sizeof(eusart1TxBuffer) <= eusart1TxTail)
 10587  0027FC  0E07               	movlw	7
 10588  0027FE  65A3               	cpfsgt	_eusart1TxTail& (0+255),b	;volatile
 10589  002800  D002               	goto	i2l1240
 10590                           
 10591                           ; BSR set to: 0
 10592                           ;eusart1.c: 202: {
 10593                           ;eusart1.c: 203: eusart1TxTail = 0;
 10594  002802  0E00               	movlw	0
 10595  002804  6FA3               	movwf	_eusart1TxTail& (0+255),b	;volatile
 10596  002806                     i2l1240:
 10597                           
 10598                           ; BSR set to: 0
 10599                           ;eusart1.c: 204: }
 10600                           ;eusart1.c: 205: eusart1TxBufferRemaining++;
 10601                           
 10602                           ; BSR set to: 0
 10603  002806  2BD2               	incf	_eusart1TxBufferRemaining& (0+255),f,b	;volatile
 10604                           
 10605                           ;eusart1.c: 206: }
 10606  002808  0012               	return	
 10607  00280A                     i2l1239:
 10608                           
 10609                           ; BSR set to: 0
 10610                           ;eusart1.c: 207: else
 10611                           ;eusart1.c: 208: {
 10612                           ;eusart1.c: 209: PIE3bits.TX1IE = 0;
 10613  00280A  010E               	movlb	14	; () banked
 10614  00280C  99C5               	bcf	197,4,b	;volatile
 10615  00280E  0012               	return	
 10616  002810                     __end_of_EUSART1_Transmit_ISR:
 10617                           	opt stack 0
 10618                           tosu	equ	0xFFF
 10619                           tosh	equ	0xFFE
 10620                           tosl	equ	0xFFD
 10621                           pclatu	equ	0xFFB
 10622                           pclath	equ	0xFFA
 10623                           tblptru	equ	0xFF8
 10624                           tblptrh	equ	0xFF7
 10625                           tblptrl	equ	0xFF6
 10626                           tablat	equ	0xFF5
 10627                           prodh	equ	0xFF4
 10628                           prodl	equ	0xFF3
 10629                           intcon	equ	0xFF2
 10630                           postinc0	equ	0xFEE
 10631                           fsr0h	equ	0xFEA
 10632                           fsr0l	equ	0xFE9
 10633                           wreg	equ	0xFE8
 10634                           postdec1	equ	0xFE5
 10635                           fsr1h	equ	0xFE2
 10636                           fsr1l	equ	0xFE1
 10637                           indf2	equ	0xFDF
 10638                           postinc2	equ	0xFDE
 10639                           postdec2	equ	0xFDD
 10640                           fsr2h	equ	0xFDA
 10641                           fsr2l	equ	0xFD9
 10642                           status	equ	0xFD8
 10643                           
 10644 ;; *************** function _EUSART1_Receive_ISR *****************
 10645 ;; Defined at:
 10646 ;;		line 213 in file "mcc_generated_files/eusart1.c"
 10647 ;; Parameters:    Size  Location     Type
 10648 ;;		None
 10649 ;; Auto vars:     Size  Location     Type
 10650 ;;		None
 10651 ;; Return value:  Size  Location     Type
 10652 ;;                  1    wreg      void 
 10653 ;; Registers used:
 10654 ;;		wreg, fsr2l, fsr2h, status,2, status,0, pclath, tosl, prodl, prodh, cstack
 10655 ;; Tracked objects:
 10656 ;;		On entry : 0/0
 10657 ;;		On exit  : 0/0
 10658 ;;		Unchanged: 0/0
 10659 ;; Data sizes:     COMRAM   BANK0   BANK1   BANK2   BANK3   BANK4   BANK5   BANK6   BANK7   BANK8   BANK9  BANK10  BANK1
      +1  BANK12  BANK13  BANK14
 10660 ;;      Params:         0       0       0       0       0       0       0       0       0       0       0       0       
      +0       0       0       0
 10661 ;;      Locals:         0       0       0       0       0       0       0       0       0       0       0       0       
      +0       0       0       0
 10662 ;;      Temps:          0       0       0       0       0       0       0       0       0       0       0       0       
      +0       0       0       0
 10663 ;;      Totals:         0       0       0       0       0       0       0       0       0       0       0       0       
      +0       0       0       0
 10664 ;;Total ram usage:        0 bytes
 10665 ;; Hardware stack levels used:    1
 10666 ;; Hardware stack levels required when called:    2
 10667 ;; This function calls:
 10668 ;;		Absolute function
 10669 ;;		_EUSART1_DefaultErrorHandler
 10670 ;;		_EUSART1_DefaultFramingErrorHandler
 10671 ;;		_EUSART1_DefaultOverrunErrorHandler
 10672 ;;		_EUSART1_RxDataHandler
 10673 ;; This function is called by:
 10674 ;;		_EUSART1_Initialize
 10675 ;;		_INTERRUPT_InterruptManager
 10676 ;; This function uses a non-reentrant model
 10677 ;;
 10678                           
 10679                           	psect	text79
 10680  0021B4                     __ptext79:
 10681                           	opt stack 0
 10682  0021B4                     _EUSART1_Receive_ISR:
 10683                           	opt stack 23
 10684                           
 10685                           ;eusart1.c: 216: eusart1RxStatusBuffer[eusart1RxHead].status = 0;
 10686                           
 10687                           ;incstack = 0
 10688  0021B4  0100               	movlb	0	; () banked
 10689  0021B6  51A2               	movf	_eusart1RxHead& (0+255),w,b	;volatile
 10690  0021B8  0D01               	mullw	1
 10691  0021BA  0E60               	movlw	low _eusart1RxStatusBuffer
 10692  0021BC  24F3               	addwf	prodl,w,c
 10693  0021BE  6ED9               	movwf	fsr2l,c
 10694  0021C0  0E00               	movlw	high _eusart1RxStatusBuffer
 10695  0021C2  20F4               	addwfc	prodh,w,c
 10696  0021C4  6EDA               	movwf	fsr2h,c
 10697  0021C6  0E00               	movlw	0
 10698  0021C8  6EDF               	movwf	indf2,c
 10699                           
 10700                           ; BSR set to: 0
 10701                           ;eusart1.c: 218: if(RC1STAbits.FERR){
 10702  0021CA  A49D               	btfss	3997,2,c	;volatile
 10703  0021CC  D016               	goto	i2u524_49
 10704                           
 10705                           ; BSR set to: 0
 10706                           ;eusart1.c: 219: eusart1RxStatusBuffer[eusart1RxHead].ferr = 1;
 10707  0021CE  51A2               	movf	_eusart1RxHead& (0+255),w,b	;volatile
 10708  0021D0  0D01               	mullw	1
 10709  0021D2  0E60               	movlw	low _eusart1RxStatusBuffer
 10710  0021D4  24F3               	addwf	prodl,w,c
 10711  0021D6  6ED9               	movwf	fsr2l,c
 10712  0021D8  0E00               	movlw	high _eusart1RxStatusBuffer
 10713  0021DA  20F4               	addwfc	prodh,w,c
 10714  0021DC  6EDA               	movwf	fsr2h,c
 10715  0021DE  82DF               	bsf	indf2,1,c
 10716                           
 10717                           ; BSR set to: 0
 10718                           ;eusart1.c: 220: EUSART1_FramingErrorHandler();
 10719  0021E0  D801               	call	i2u524_48
 10720  0021E2  D00B               	goto	i2u524_49
 10721  0021E4                     i2u524_48:
 10722  0021E4  0005               	push	
 10723  0021E6  6EFA               	movwf	pclath,c
 10724  0021E8  0101               	movlb	1	; () banked
 10725  0021EA  5183               	movf	_EUSART1_FramingErrorHandler& (0+255),w,b
 10726  0021EC  6EFD               	movwf	tosl,c
 10727  0021EE  5184               	movf	(_EUSART1_FramingErrorHandler+1)& (0+255),w,b
 10728  0021F0  6EFE               	movwf	tosh,c
 10729  0021F2  5185               	movf	(_EUSART1_FramingErrorHandler+2)& (0+255),w,b
 10730  0021F4  6EFF               	movwf	tosu,c
 10731  0021F6  50FA               	movf	pclath,w,c
 10732  0021F8  0012               	return		;indir
 10733  0021FA                     i2u524_49:
 10734                           
 10735                           ;eusart1.c: 221: }
 10736                           ;eusart1.c: 223: if(RC1STAbits.OERR){
 10737  0021FA  A29D               	btfss	3997,1,c	;volatile
 10738  0021FC  D017               	goto	i2u526_49
 10739                           
 10740                           ;eusart1.c: 224: eusart1RxStatusBuffer[eusart1RxHead].oerr = 1;
 10741  0021FE  0100               	movlb	0	; () banked
 10742  002200  51A2               	movf	_eusart1RxHead& (0+255),w,b	;volatile
 10743  002202  0D01               	mullw	1
 10744  002204  0E60               	movlw	low _eusart1RxStatusBuffer
 10745  002206  24F3               	addwf	prodl,w,c
 10746  002208  6ED9               	movwf	fsr2l,c
 10747  00220A  0E00               	movlw	high _eusart1RxStatusBuffer
 10748  00220C  20F4               	addwfc	prodh,w,c
 10749  00220E  6EDA               	movwf	fsr2h,c
 10750  002210  84DF               	bsf	indf2,2,c
 10751                           
 10752                           ; BSR set to: 0
 10753                           ;eusart1.c: 225: EUSART1_OverrunErrorHandler();
 10754  002212  D801               	call	i2u526_48
 10755  002214  D00B               	goto	i2u526_49
 10756  002216                     i2u526_48:
 10757  002216  0005               	push	
 10758  002218  6EFA               	movwf	pclath,c
 10759  00221A  0101               	movlb	1	; () banked
 10760  00221C  5180               	movf	_EUSART1_OverrunErrorHandler& (0+255),w,b
 10761  00221E  6EFD               	movwf	tosl,c
 10762  002220  5181               	movf	(_EUSART1_OverrunErrorHandler+1)& (0+255),w,b
 10763  002222  6EFE               	movwf	tosh,c
 10764  002224  5182               	movf	(_EUSART1_OverrunErrorHandler+2)& (0+255),w,b
 10765  002226  6EFF               	movwf	tosu,c
 10766  002228  50FA               	movf	pclath,w,c
 10767  00222A  0012               	return		;indir
 10768  00222C                     i2u526_49:
 10769                           
 10770                           ;eusart1.c: 226: }
 10771                           ;eusart1.c: 228: if(eusart1RxStatusBuffer[eusart1RxHead].status){
 10772  00222C  0100               	movlb	0	; () banked
 10773  00222E  51A2               	movf	_eusart1RxHead& (0+255),w,b	;volatile
 10774  002230  0D01               	mullw	1
 10775  002232  0E60               	movlw	low _eusart1RxStatusBuffer
 10776  002234  24F3               	addwf	prodl,w,c
 10777  002236  6ED9               	movwf	fsr2l,c
 10778  002238  0E00               	movlw	high _eusart1RxStatusBuffer
 10779  00223A  20F4               	addwfc	prodh,w,c
 10780  00223C  6EDA               	movwf	fsr2h,c
 10781  00223E  50DF               	movf	indf2,w,c
 10782  002240  B4D8               	btfsc	status,2,c
 10783  002242  D00D               	goto	i2l1247
 10784                           
 10785                           ; BSR set to: 0
 10786                           ;eusart1.c: 229: EUSART1_ErrorHandler();
 10787  002244  D801               	call	i2u528_48
 10788  002246  0012               	return	
 10789  002248                     i2u528_48:
 10790  002248  0005               	push	
 10791  00224A  6EFA               	movwf	pclath,c
 10792  00224C  0101               	movlb	1	; () banked
 10793  00224E  517D               	movf	_EUSART1_ErrorHandler& (0+255),w,b
 10794  002250  6EFD               	movwf	tosl,c
 10795  002252  517E               	movf	(_EUSART1_ErrorHandler+1)& (0+255),w,b
 10796  002254  6EFE               	movwf	tosh,c
 10797  002256  517F               	movf	(_EUSART1_ErrorHandler+2)& (0+255),w,b
 10798  002258  6EFF               	movwf	tosu,c
 10799  00225A  50FA               	movf	pclath,w,c
 10800  00225C  0012               	return		;indir
 10801  00225E                     i2l1247:
 10802                           
 10803                           ;eusart1.c: 231: EUSART1_RxDataHandler();
 10804  00225E  ECCA  F014         	call	_EUSART1_RxDataHandler	;wreg free
 10805  002262  0012               	return	
 10806  002264                     __end_of_EUSART1_Receive_ISR:
 10807                           	opt stack 0
 10808                           tosu	equ	0xFFF
 10809                           tosh	equ	0xFFE
 10810                           tosl	equ	0xFFD
 10811                           pclatu	equ	0xFFB
 10812                           pclath	equ	0xFFA
 10813                           tblptru	equ	0xFF8
 10814                           tblptrh	equ	0xFF7
 10815                           tblptrl	equ	0xFF6
 10816                           tablat	equ	0xFF5
 10817                           prodh	equ	0xFF4
 10818                           prodl	equ	0xFF3
 10819                           intcon	equ	0xFF2
 10820                           postinc0	equ	0xFEE
 10821                           fsr0h	equ	0xFEA
 10822                           fsr0l	equ	0xFE9
 10823                           wreg	equ	0xFE8
 10824                           postdec1	equ	0xFE5
 10825                           fsr1h	equ	0xFE2
 10826                           fsr1l	equ	0xFE1
 10827                           indf2	equ	0xFDF
 10828                           postinc2	equ	0xFDE
 10829                           postdec2	equ	0xFDD
 10830                           fsr2h	equ	0xFDA
 10831                           fsr2l	equ	0xFD9
 10832                           status	equ	0xFD8
 10833                           
 10834 ;; *************** function _EUSART1_DefaultOverrunErrorHandler *****************
 10835 ;; Defined at:
 10836 ;;		line 249 in file "mcc_generated_files/eusart1.c"
 10837 ;; Parameters:    Size  Location     Type
 10838 ;;		None
 10839 ;; Auto vars:     Size  Location     Type
 10840 ;;		None
 10841 ;; Return value:  Size  Location     Type
 10842 ;;                  1    wreg      void 
 10843 ;; Registers used:
 10844 ;;		None
 10845 ;; Tracked objects:
 10846 ;;		On entry : 0/0
 10847 ;;		On exit  : 0/0
 10848 ;;		Unchanged: 0/0
 10849 ;; Data sizes:     COMRAM   BANK0   BANK1   BANK2   BANK3   BANK4   BANK5   BANK6   BANK7   BANK8   BANK9  BANK10  BANK1
      +1  BANK12  BANK13  BANK14
 10850 ;;      Params:         0       0       0       0       0       0       0       0       0       0       0       0       
      +0       0       0       0
 10851 ;;      Locals:         0       0       0       0       0       0       0       0       0       0       0       0       
      +0       0       0       0
 10852 ;;      Temps:          0       0       0       0       0       0       0       0       0       0       0       0       
      +0       0       0       0
 10853 ;;      Totals:         0       0       0       0       0       0       0       0       0       0       0       0       
      +0       0       0       0
 10854 ;;Total ram usage:        0 bytes
 10855 ;; Hardware stack levels used:    1
 10856 ;; This function calls:
 10857 ;;		Nothing
 10858 ;; This function is called by:
 10859 ;;		_EUSART1_Initialize
 10860 ;;		_EUSART1_Receive_ISR
 10861 ;; This function uses a non-reentrant model
 10862 ;;
 10863                           
 10864                           	psect	text80
 10865  002C70                     __ptext80:
 10866                           	opt stack 0
 10867  002C70                     _EUSART1_DefaultOverrunErrorHandler:
 10868                           	opt stack 24
 10869                           
 10870                           ;eusart1.c: 252: RC1STAbits.CREN = 0;
 10871                           
 10872                           ;incstack = 0
 10873  002C70  989D               	bcf	3997,4,c	;volatile
 10874                           
 10875                           ;eusart1.c: 253: RC1STAbits.CREN = 1;
 10876  002C72  889D               	bsf	3997,4,c	;volatile
 10877  002C74  0012               	return		;funcret
 10878  002C76                     __end_of_EUSART1_DefaultOverrunErrorHandler:
 10879                           	opt stack 0
 10880                           tosu	equ	0xFFF
 10881                           tosh	equ	0xFFE
 10882                           tosl	equ	0xFFD
 10883                           pclatu	equ	0xFFB
 10884                           pclath	equ	0xFFA
 10885                           tblptru	equ	0xFF8
 10886                           tblptrh	equ	0xFF7
 10887                           tblptrl	equ	0xFF6
 10888                           tablat	equ	0xFF5
 10889                           prodh	equ	0xFF4
 10890                           prodl	equ	0xFF3
 10891                           intcon	equ	0xFF2
 10892                           postinc0	equ	0xFEE
 10893                           fsr0h	equ	0xFEA
 10894                           fsr0l	equ	0xFE9
 10895                           wreg	equ	0xFE8
 10896                           postdec1	equ	0xFE5
 10897                           fsr1h	equ	0xFE2
 10898                           fsr1l	equ	0xFE1
 10899                           indf2	equ	0xFDF
 10900                           postinc2	equ	0xFDE
 10901                           postdec2	equ	0xFDD
 10902                           fsr2h	equ	0xFDA
 10903                           fsr2l	equ	0xFD9
 10904                           status	equ	0xFD8
 10905                           
 10906 ;; *************** function _EUSART1_DefaultFramingErrorHandler *****************
 10907 ;; Defined at:
 10908 ;;		line 247 in file "mcc_generated_files/eusart1.c"
 10909 ;; Parameters:    Size  Location     Type
 10910 ;;		None
 10911 ;; Auto vars:     Size  Location     Type
 10912 ;;		None
 10913 ;; Return value:  Size  Location     Type
 10914 ;;                  1    wreg      void 
 10915 ;; Registers used:
 10916 ;;		None
 10917 ;; Tracked objects:
 10918 ;;		On entry : 0/0
 10919 ;;		On exit  : 0/0
 10920 ;;		Unchanged: 0/0
 10921 ;; Data sizes:     COMRAM   BANK0   BANK1   BANK2   BANK3   BANK4   BANK5   BANK6   BANK7   BANK8   BANK9  BANK10  BANK1
      +1  BANK12  BANK13  BANK14
 10922 ;;      Params:         0       0       0       0       0       0       0       0       0       0       0       0       
      +0       0       0       0
 10923 ;;      Locals:         0       0       0       0       0       0       0       0       0       0       0       0       
      +0       0       0       0
 10924 ;;      Temps:          0       0       0       0       0       0       0       0       0       0       0       0       
      +0       0       0       0
 10925 ;;      Totals:         0       0       0       0       0       0       0       0       0       0       0       0       
      +0       0       0       0
 10926 ;;Total ram usage:        0 bytes
 10927 ;; Hardware stack levels used:    1
 10928 ;; This function calls:
 10929 ;;		Nothing
 10930 ;; This function is called by:
 10931 ;;		_EUSART1_Initialize
 10932 ;;		_EUSART1_Receive_ISR
 10933 ;; This function uses a non-reentrant model
 10934 ;;
 10935                           
 10936                           	psect	text81
 10937  002C92                     __ptext81:
 10938                           	opt stack 0
 10939  002C92                     _EUSART1_DefaultFramingErrorHandler:
 10940                           	opt stack 24
 10941                           
 10942                           ;incstack = 0
 10943  002C92  0012               	return		;funcret
 10944  002C94                     __end_of_EUSART1_DefaultFramingErrorHandler:
 10945                           	opt stack 0
 10946                           tosu	equ	0xFFF
 10947                           tosh	equ	0xFFE
 10948                           tosl	equ	0xFFD
 10949                           pclatu	equ	0xFFB
 10950                           pclath	equ	0xFFA
 10951                           tblptru	equ	0xFF8
 10952                           tblptrh	equ	0xFF7
 10953                           tblptrl	equ	0xFF6
 10954                           tablat	equ	0xFF5
 10955                           prodh	equ	0xFF4
 10956                           prodl	equ	0xFF3
 10957                           intcon	equ	0xFF2
 10958                           postinc0	equ	0xFEE
 10959                           fsr0h	equ	0xFEA
 10960                           fsr0l	equ	0xFE9
 10961                           wreg	equ	0xFE8
 10962                           postdec1	equ	0xFE5
 10963                           fsr1h	equ	0xFE2
 10964                           fsr1l	equ	0xFE1
 10965                           indf2	equ	0xFDF
 10966                           postinc2	equ	0xFDE
 10967                           postdec2	equ	0xFDD
 10968                           fsr2h	equ	0xFDA
 10969                           fsr2l	equ	0xFD9
 10970                           status	equ	0xFD8
 10971                           
 10972 ;; *************** function _EUSART1_DefaultErrorHandler *****************
 10973 ;; Defined at:
 10974 ;;		line 257 in file "mcc_generated_files/eusart1.c"
 10975 ;; Parameters:    Size  Location     Type
 10976 ;;		None
 10977 ;; Auto vars:     Size  Location     Type
 10978 ;;		None
 10979 ;; Return value:  Size  Location     Type
 10980 ;;                  1    wreg      void 
 10981 ;; Registers used:
 10982 ;;		wreg, fsr2l, fsr2h, status,2, status,0, prodl, prodh, cstack
 10983 ;; Tracked objects:
 10984 ;;		On entry : 0/0
 10985 ;;		On exit  : 0/0
 10986 ;;		Unchanged: 0/0
 10987 ;; Data sizes:     COMRAM   BANK0   BANK1   BANK2   BANK3   BANK4   BANK5   BANK6   BANK7   BANK8   BANK9  BANK10  BANK1
      +1  BANK12  BANK13  BANK14
 10988 ;;      Params:         0       0       0       0       0       0       0       0       0       0       0       0       
      +0       0       0       0
 10989 ;;      Locals:         0       0       0       0       0       0       0       0       0       0       0       0       
      +0       0       0       0
 10990 ;;      Temps:          0       0       0       0       0       0       0       0       0       0       0       0       
      +0       0       0       0
 10991 ;;      Totals:         0       0       0       0       0       0       0       0       0       0       0       0       
      +0       0       0       0
 10992 ;;Total ram usage:        0 bytes
 10993 ;; Hardware stack levels used:    1
 10994 ;; Hardware stack levels required when called:    1
 10995 ;; This function calls:
 10996 ;;		_EUSART1_RxDataHandler
 10997 ;; This function is called by:
 10998 ;;		_EUSART1_Initialize
 10999 ;;		_EUSART1_Receive_ISR
 11000 ;; This function uses a non-reentrant model
 11001 ;;
 11002                           
 11003                           	psect	text82
 11004  002C76                     __ptext82:
 11005                           	opt stack 0
 11006  002C76                     _EUSART1_DefaultErrorHandler:
 11007                           	opt stack 23
 11008                           
 11009                           ;eusart1.c: 258: EUSART1_RxDataHandler();
 11010                           
 11011                           ;incstack = 0
 11012  002C76  ECCA  F014         	call	_EUSART1_RxDataHandler	;wreg free
 11013  002C7A  0012               	return		;funcret
 11014  002C7C                     __end_of_EUSART1_DefaultErrorHandler:
 11015                           	opt stack 0
 11016                           tosu	equ	0xFFF
 11017                           tosh	equ	0xFFE
 11018                           tosl	equ	0xFFD
 11019                           pclatu	equ	0xFFB
 11020                           pclath	equ	0xFFA
 11021                           tblptru	equ	0xFF8
 11022                           tblptrh	equ	0xFF7
 11023                           tblptrl	equ	0xFF6
 11024                           tablat	equ	0xFF5
 11025                           prodh	equ	0xFF4
 11026                           prodl	equ	0xFF3
 11027                           intcon	equ	0xFF2
 11028                           postinc0	equ	0xFEE
 11029                           fsr0h	equ	0xFEA
 11030                           fsr0l	equ	0xFE9
 11031                           wreg	equ	0xFE8
 11032                           postdec1	equ	0xFE5
 11033                           fsr1h	equ	0xFE2
 11034                           fsr1l	equ	0xFE1
 11035                           indf2	equ	0xFDF
 11036                           postinc2	equ	0xFDE
 11037                           postdec2	equ	0xFDD
 11038                           fsr2h	equ	0xFDA
 11039                           fsr2l	equ	0xFD9
 11040                           status	equ	0xFD8
 11041                           
 11042 ;; *************** function _EUSART1_RxDataHandler *****************
 11043 ;; Defined at:
 11044 ;;		line 237 in file "mcc_generated_files/eusart1.c"
 11045 ;; Parameters:    Size  Location     Type
 11046 ;;		None
 11047 ;; Auto vars:     Size  Location     Type
 11048 ;;		None
 11049 ;; Return value:  Size  Location     Type
 11050 ;;                  1    wreg      void 
 11051 ;; Registers used:
 11052 ;;		wreg, fsr2l, fsr2h, status,2, status,0, prodl, prodh
 11053 ;; Tracked objects:
 11054 ;;		On entry : 0/0
 11055 ;;		On exit  : 0/0
 11056 ;;		Unchanged: 0/0
 11057 ;; Data sizes:     COMRAM   BANK0   BANK1   BANK2   BANK3   BANK4   BANK5   BANK6   BANK7   BANK8   BANK9  BANK10  BANK1
      +1  BANK12  BANK13  BANK14
 11058 ;;      Params:         0       0       0       0       0       0       0       0       0       0       0       0       
      +0       0       0       0
 11059 ;;      Locals:         0       0       0       0       0       0       0       0       0       0       0       0       
      +0       0       0       0
 11060 ;;      Temps:          0       0       0       0       0       0       0       0       0       0       0       0       
      +0       0       0       0
 11061 ;;      Totals:         0       0       0       0       0       0       0       0       0       0       0       0       
      +0       0       0       0
 11062 ;;Total ram usage:        0 bytes
 11063 ;; Hardware stack levels used:    1
 11064 ;; This function calls:
 11065 ;;		Nothing
 11066 ;; This function is called by:
 11067 ;;		_EUSART1_Receive_ISR
 11068 ;;		_EUSART1_DefaultErrorHandler
 11069 ;; This function uses a non-reentrant model
 11070 ;;
 11071                           
 11072                           	psect	text83
 11073  002994                     __ptext83:
 11074                           	opt stack 0
 11075  002994                     _EUSART1_RxDataHandler:
 11076                           	opt stack 24
 11077                           
 11078                           ;eusart1.c: 239: eusart1RxBuffer[eusart1RxHead++] = RC1REG;
 11079                           
 11080                           ;incstack = 0
 11081  002994  0100               	movlb	0	; () banked
 11082  002996  51A2               	movf	_eusart1RxHead& (0+255),w,b	;volatile
 11083  002998  0D01               	mullw	1
 11084  00299A  0E00               	movlw	low _eusart1RxBuffer
 11085  00299C  24F3               	addwf	prodl,w,c
 11086  00299E  6ED9               	movwf	fsr2l,c
 11087  0029A0  0E01               	movlw	high _eusart1RxBuffer
 11088  0029A2  20F4               	addwfc	prodh,w,c
 11089  0029A4  6EDA               	movwf	fsr2h,c
 11090  0029A6  CF99 FFDF          	movff	3993,indf2	;volatile
 11091                           
 11092                           ; BSR set to: 0
 11093  0029AA  2BA2               	incf	_eusart1RxHead& (0+255),f,b	;volatile
 11094                           
 11095                           ; BSR set to: 0
 11096                           ;eusart1.c: 240: if(sizeof(eusart1RxBuffer) <= eusart1RxHead)
 11097  0029AC  0E07               	movlw	7
 11098  0029AE  65A2               	cpfsgt	_eusart1RxHead& (0+255),b	;volatile
 11099  0029B0  D002               	goto	i2l1252
 11100                           
 11101                           ; BSR set to: 0
 11102                           ;eusart1.c: 241: {
 11103                           ;eusart1.c: 242: eusart1RxHead = 0;
 11104  0029B2  0E00               	movlw	0
 11105  0029B4  6FA2               	movwf	_eusart1RxHead& (0+255),b	;volatile
 11106  0029B6                     i2l1252:
 11107                           
 11108                           ; BSR set to: 0
 11109                           ;eusart1.c: 243: }
 11110                           ;eusart1.c: 244: eusart1RxCount++;
 11111                           
 11112                           ; BSR set to: 0
 11113  0029B6  2A54               	incf	_eusart1RxCount,f,c	;volatile
 11114                           
 11115                           ; BSR set to: 0
 11116  0029B8  0012               	return		;funcret
 11117  0029BA                     __end_of_EUSART1_RxDataHandler:
 11118                           	opt stack 0
 11119                           tosu	equ	0xFFF
 11120                           tosh	equ	0xFFE
 11121                           tosl	equ	0xFFD
 11122                           pclatu	equ	0xFFB
 11123                           pclath	equ	0xFFA
 11124                           tblptru	equ	0xFF8
 11125                           tblptrh	equ	0xFF7
 11126                           tblptrl	equ	0xFF6
 11127                           tablat	equ	0xFF5
 11128                           prodh	equ	0xFF4
 11129                           prodl	equ	0xFF3
 11130                           intcon	equ	0xFF2
 11131                           postinc0	equ	0xFEE
 11132                           fsr0h	equ	0xFEA
 11133                           fsr0l	equ	0xFE9
 11134                           wreg	equ	0xFE8
 11135                           postdec1	equ	0xFE5
 11136                           fsr1h	equ	0xFE2
 11137                           fsr1l	equ	0xFE1
 11138                           indf2	equ	0xFDF
 11139                           postinc2	equ	0xFDE
 11140                           postdec2	equ	0xFDD
 11141                           fsr2h	equ	0xFDA
 11142                           fsr2l	equ	0xFD9
 11143                           status	equ	0xFD8
 11144                           tosu	equ	0xFFF
 11145                           tosh	equ	0xFFE
 11146                           tosl	equ	0xFFD
 11147                           pclatu	equ	0xFFB
 11148                           pclath	equ	0xFFA
 11149                           tblptru	equ	0xFF8
 11150                           tblptrh	equ	0xFF7
 11151                           tblptrl	equ	0xFF6
 11152                           tablat	equ	0xFF5
 11153                           prodh	equ	0xFF4
 11154                           prodl	equ	0xFF3
 11155                           intcon	equ	0xFF2
 11156                           postinc0	equ	0xFEE
 11157                           fsr0h	equ	0xFEA
 11158                           fsr0l	equ	0xFE9
 11159                           wreg	equ	0xFE8
 11160                           postdec1	equ	0xFE5
 11161                           fsr1h	equ	0xFE2
 11162                           fsr1l	equ	0xFE1
 11163                           indf2	equ	0xFDF
 11164                           postinc2	equ	0xFDE
 11165                           postdec2	equ	0xFDD
 11166                           fsr2h	equ	0xFDA
 11167                           fsr2l	equ	0xFD9
 11168                           status	equ	0xFD8
 11169                           
 11170                           	psect	text84
 11171  000000                     __ptext84:
 11172                           	opt stack 0
 11173                           tosu	equ	0xFFF
 11174                           tosh	equ	0xFFE
 11175                           tosl	equ	0xFFD
 11176                           pclatu	equ	0xFFB
 11177                           pclath	equ	0xFFA
 11178                           tblptru	equ	0xFF8
 11179                           tblptrh	equ	0xFF7
 11180                           tblptrl	equ	0xFF6
 11181                           tablat	equ	0xFF5
 11182                           prodh	equ	0xFF4
 11183                           prodl	equ	0xFF3
 11184                           intcon	equ	0xFF2
 11185                           postinc0	equ	0xFEE
 11186                           fsr0h	equ	0xFEA
 11187                           fsr0l	equ	0xFE9
 11188                           wreg	equ	0xFE8
 11189                           postdec1	equ	0xFE5
 11190                           fsr1h	equ	0xFE2
 11191                           fsr1l	equ	0xFE1
 11192                           indf2	equ	0xFDF
 11193                           postinc2	equ	0xFDE
 11194                           postdec2	equ	0xFDD
 11195                           fsr2h	equ	0xFDA
 11196                           fsr2l	equ	0xFD9
 11197                           status	equ	0xFD8
 11198                           
 11199                           	psect	rparam
 11200  0000                     tosu	equ	0xFFF
 11201                           tosh	equ	0xFFE
 11202                           tosl	equ	0xFFD
 11203                           pclatu	equ	0xFFB
 11204                           pclath	equ	0xFFA
 11205                           tblptru	equ	0xFF8
 11206                           tblptrh	equ	0xFF7
 11207                           tblptrl	equ	0xFF6
 11208                           tablat	equ	0xFF5
 11209                           prodh	equ	0xFF4
 11210                           prodl	equ	0xFF3
 11211                           intcon	equ	0xFF2
 11212                           postinc0	equ	0xFEE
 11213                           fsr0h	equ	0xFEA
 11214                           fsr0l	equ	0xFE9
 11215                           wreg	equ	0xFE8
 11216                           postdec1	equ	0xFE5
 11217                           fsr1h	equ	0xFE2
 11218                           fsr1l	equ	0xFE1
 11219                           indf2	equ	0xFDF
 11220                           postinc2	equ	0xFDE
 11221                           postdec2	equ	0xFDD
 11222                           fsr2h	equ	0xFDA
 11223                           fsr2l	equ	0xFD9
 11224                           status	equ	0xFD8
 11225                           
 11226                           	psect	temp
 11227  00005C                     btemp:
 11228                           	opt stack 0
 11229  00005C                     	ds	1
 11230  0000                     int$flags	set	btemp
 11231  0000                     wtemp6	set	btemp+1
 11232                           tosu	equ	0xFFF
 11233                           tosh	equ	0xFFE
 11234                           tosl	equ	0xFFD
 11235                           pclatu	equ	0xFFB
 11236                           pclath	equ	0xFFA
 11237                           tblptru	equ	0xFF8
 11238                           tblptrh	equ	0xFF7
 11239                           tblptrl	equ	0xFF6
 11240                           tablat	equ	0xFF5
 11241                           prodh	equ	0xFF4
 11242                           prodl	equ	0xFF3
 11243                           intcon	equ	0xFF2
 11244                           postinc0	equ	0xFEE
 11245                           fsr0h	equ	0xFEA
 11246                           fsr0l	equ	0xFE9
 11247                           wreg	equ	0xFE8
 11248                           postdec1	equ	0xFE5
 11249                           fsr1h	equ	0xFE2
 11250                           fsr1l	equ	0xFE1
 11251                           indf2	equ	0xFDF
 11252                           postinc2	equ	0xFDE
 11253                           postdec2	equ	0xFDD
 11254                           fsr2h	equ	0xFDA
 11255                           fsr2l	equ	0xFD9
 11256                           status	equ	0xFD8


Data Sizes:
    Strings     42
    Constant    0
    Data        11
    BSS         225
    Persistent  46
    Stack       0

Auto Spaces:
    Space          Size  Autos    Used
    COMRAM           94     75      91
    BANK0           160     18     144
    BANK1           256     15     155
    BANK2           256      0       0
    BANK3           256      0       0
    BANK4           256      0       0
    BANK5           256      0       0
    BANK6           256      0       0
    BANK7           256      0       0
    BANK8           256      0       0
    BANK9           256      0       0
    BANK10          256      0       0
    BANK11          256      0       0
    BANK12          256      0       0
    BANK13          256      0       0
    BANK14          136      0       0

Pointer List with Targets:

    i2c1_tr_queue.ptrb_list.pbuffer	PTR unsigned char  size(2) Largest target is 0
		 -> VL53L0X_StaticInit@refSpadMap(COMRAM[6]), ReadRegisters@writeBuffer(COMRAM[2]), ReadRegisters@status(COMRAM[1]), ReadRegister16@regValueL(COMRAM[1]), 
		 -> ReadRegister16@regValueH(COMRAM[1]), ReadRegister16@reg(COMRAM[1]), ReadRegister16@status(COMRAM[1]), ReadRegister@regValue(COMRAM[1]), 
		 -> ReadRegister@reg(COMRAM[1]), ReadRegister@status(COMRAM[1]), WriteRegisters@writeBuffer(COMRAM[2]), WriteRegisters@status(COMRAM[1]), 
		 -> WriteRegister32@writeBuffer(COMRAM[5]), WriteRegister32@status(COMRAM[1]), WriteRegister16@writeBuffer(COMRAM[3]), WriteRegister16@status(COMRAM[1]), 
		 -> WriteRegister@writeBuffer(COMRAM[2]), WriteRegister@status(COMRAM[1]), 

    WriteRegister@writeTRB.pbuffer	PTR unsigned char  size(2) Largest target is 0
		 -> VL53L0X_StaticInit@refSpadMap(COMRAM[6]), ReadRegisters@writeBuffer(COMRAM[2]), ReadRegisters@status(COMRAM[1]), ReadRegister16@regValueL(COMRAM[1]), 
		 -> ReadRegister16@regValueH(COMRAM[1]), ReadRegister16@reg(COMRAM[1]), ReadRegister16@status(COMRAM[1]), ReadRegister@regValue(COMRAM[1]), 
		 -> ReadRegister@reg(COMRAM[1]), ReadRegister@status(COMRAM[1]), WriteRegisters@writeBuffer(COMRAM[2]), WriteRegisters@status(COMRAM[1]), 
		 -> WriteRegister32@writeBuffer(COMRAM[5]), WriteRegister32@status(COMRAM[1]), WriteRegister16@writeBuffer(COMRAM[3]), WriteRegister16@status(COMRAM[1]), 
		 -> WriteRegister@writeBuffer(COMRAM[2]), WriteRegister@status(COMRAM[1]), 

    WriteRegister16@writeTRB.pbuffer	PTR unsigned char  size(2) Largest target is 0
		 -> VL53L0X_StaticInit@refSpadMap(COMRAM[6]), ReadRegisters@writeBuffer(COMRAM[2]), ReadRegisters@status(COMRAM[1]), ReadRegister16@regValueL(COMRAM[1]), 
		 -> ReadRegister16@regValueH(COMRAM[1]), ReadRegister16@reg(COMRAM[1]), ReadRegister16@status(COMRAM[1]), ReadRegister@regValue(COMRAM[1]), 
		 -> ReadRegister@reg(COMRAM[1]), ReadRegister@status(COMRAM[1]), WriteRegisters@writeBuffer(COMRAM[2]), WriteRegisters@status(COMRAM[1]), 
		 -> WriteRegister32@writeBuffer(COMRAM[5]), WriteRegister32@status(COMRAM[1]), WriteRegister16@writeBuffer(COMRAM[3]), WriteRegister16@status(COMRAM[1]), 
		 -> WriteRegister@writeBuffer(COMRAM[2]), WriteRegister@status(COMRAM[1]), 

    WriteRegister32@writeTRB.pbuffer	PTR unsigned char  size(2) Largest target is 0
		 -> VL53L0X_StaticInit@refSpadMap(COMRAM[6]), ReadRegisters@writeBuffer(COMRAM[2]), ReadRegisters@status(COMRAM[1]), ReadRegister16@regValueL(COMRAM[1]), 
		 -> ReadRegister16@regValueH(COMRAM[1]), ReadRegister16@reg(COMRAM[1]), ReadRegister16@status(COMRAM[1]), ReadRegister@regValue(COMRAM[1]), 
		 -> ReadRegister@reg(COMRAM[1]), ReadRegister@status(COMRAM[1]), WriteRegisters@writeBuffer(COMRAM[2]), WriteRegisters@status(COMRAM[1]), 
		 -> WriteRegister32@writeBuffer(COMRAM[5]), WriteRegister32@status(COMRAM[1]), WriteRegister16@writeBuffer(COMRAM[3]), WriteRegister16@status(COMRAM[1]), 
		 -> WriteRegister@writeBuffer(COMRAM[2]), WriteRegister@status(COMRAM[1]), 

    WriteRegisters@writeTRB.pbuffer	PTR unsigned char  size(2) Largest target is 0
		 -> VL53L0X_StaticInit@refSpadMap(COMRAM[6]), ReadRegisters@writeBuffer(COMRAM[2]), ReadRegisters@status(COMRAM[1]), ReadRegister16@regValueL(COMRAM[1]), 
		 -> ReadRegister16@regValueH(COMRAM[1]), ReadRegister16@reg(COMRAM[1]), ReadRegister16@status(COMRAM[1]), ReadRegister@regValue(COMRAM[1]), 
		 -> ReadRegister@reg(COMRAM[1]), ReadRegister@status(COMRAM[1]), WriteRegisters@writeBuffer(COMRAM[2]), WriteRegisters@status(COMRAM[1]), 
		 -> WriteRegister32@writeBuffer(COMRAM[5]), WriteRegister32@status(COMRAM[1]), WriteRegister16@writeBuffer(COMRAM[3]), WriteRegister16@status(COMRAM[1]), 
		 -> WriteRegister@writeBuffer(COMRAM[2]), WriteRegister@status(COMRAM[1]), 

    ReadRegister@readTRB.pbuffer	PTR unsigned char  size(2) Largest target is 0
		 -> VL53L0X_StaticInit@refSpadMap(COMRAM[6]), ReadRegisters@writeBuffer(COMRAM[2]), ReadRegisters@status(COMRAM[1]), ReadRegister16@regValueL(COMRAM[1]), 
		 -> ReadRegister16@regValueH(COMRAM[1]), ReadRegister16@reg(COMRAM[1]), ReadRegister16@status(COMRAM[1]), ReadRegister@regValue(COMRAM[1]), 
		 -> ReadRegister@reg(COMRAM[1]), ReadRegister@status(COMRAM[1]), WriteRegisters@writeBuffer(COMRAM[2]), WriteRegisters@status(COMRAM[1]), 
		 -> WriteRegister32@writeBuffer(COMRAM[5]), WriteRegister32@status(COMRAM[1]), WriteRegister16@writeBuffer(COMRAM[3]), WriteRegister16@status(COMRAM[1]), 
		 -> WriteRegister@writeBuffer(COMRAM[2]), WriteRegister@status(COMRAM[1]), 

    ReadRegister16@readTRB.pbuffer	PTR unsigned char  size(2) Largest target is 0
		 -> VL53L0X_StaticInit@refSpadMap(COMRAM[6]), ReadRegisters@writeBuffer(COMRAM[2]), ReadRegisters@status(COMRAM[1]), ReadRegister16@regValueL(COMRAM[1]), 
		 -> ReadRegister16@regValueH(COMRAM[1]), ReadRegister16@reg(COMRAM[1]), ReadRegister16@status(COMRAM[1]), ReadRegister@regValue(COMRAM[1]), 
		 -> ReadRegister@reg(COMRAM[1]), ReadRegister@status(COMRAM[1]), WriteRegisters@writeBuffer(COMRAM[2]), WriteRegisters@status(COMRAM[1]), 
		 -> WriteRegister32@writeBuffer(COMRAM[5]), WriteRegister32@status(COMRAM[1]), WriteRegister16@writeBuffer(COMRAM[3]), WriteRegister16@status(COMRAM[1]), 
		 -> WriteRegister@writeBuffer(COMRAM[2]), WriteRegister@status(COMRAM[1]), 

    ReadRegisters@readTRB.pbuffer	PTR unsigned char  size(2) Largest target is 0
		 -> VL53L0X_StaticInit@refSpadMap(COMRAM[6]), ReadRegisters@writeBuffer(COMRAM[2]), ReadRegisters@status(COMRAM[1]), ReadRegister16@regValueL(COMRAM[1]), 
		 -> ReadRegister16@regValueH(COMRAM[1]), ReadRegister16@reg(COMRAM[1]), ReadRegister16@status(COMRAM[1]), ReadRegister@regValue(COMRAM[1]), 
		 -> ReadRegister@reg(COMRAM[1]), ReadRegister@status(COMRAM[1]), WriteRegisters@writeBuffer(COMRAM[2]), WriteRegisters@status(COMRAM[1]), 
		 -> WriteRegister32@writeBuffer(COMRAM[5]), WriteRegister32@status(COMRAM[1]), WriteRegister16@writeBuffer(COMRAM[3]), WriteRegister16@status(COMRAM[1]), 
		 -> WriteRegister@writeBuffer(COMRAM[2]), WriteRegister@status(COMRAM[1]), 

    i2c1_tr_queue.pTrFlag	PTR enum E11606 size(2) Largest target is 0
		 -> VL53L0X_StaticInit@refSpadMap(COMRAM[6]), ReadRegisters@writeBuffer(COMRAM[2]), ReadRegisters@status(COMRAM[1]), ReadRegister16@regValueL(COMRAM[1]), 
		 -> ReadRegister16@regValueH(COMRAM[1]), ReadRegister16@reg(COMRAM[1]), ReadRegister16@status(COMRAM[1]), ReadRegister@regValue(COMRAM[1]), 
		 -> ReadRegister@reg(COMRAM[1]), ReadRegister@status(COMRAM[1]), WriteRegisters@writeBuffer(COMRAM[2]), WriteRegisters@status(COMRAM[1]), 
		 -> WriteRegister32@writeBuffer(COMRAM[5]), WriteRegister32@status(COMRAM[1]), WriteRegister16@writeBuffer(COMRAM[3]), WriteRegister16@status(COMRAM[1]), 
		 -> WriteRegister@writeBuffer(COMRAM[2]), WriteRegister@status(COMRAM[1]), 

    i2c1_tr_queue.ptrb_list	PTR struct . size(2) Largest target is 0
		 -> I2C1_MasterRead@trBlock(BANK0[5]), I2C1_MasterWrite@trBlock(BANK0[5]), ReadRegisters@readTRB(COMRAM[10]), ReadRegister16@readTRB(COMRAM[15]), 
		 -> ReadRegister@readTRB(COMRAM[10]), WriteRegisters@writeTRB(COMRAM[10]), WriteRegister32@writeTRB(COMRAM[5]), WriteRegister16@writeTRB(COMRAM[5]), 
		 -> WriteRegister@writeTRB(COMRAM[5]), 

    TMR3_SetInterruptHandler@InterruptHandler	PTR FTN()void  size(3) Largest target is 1
		 -> TMR3_DefaultInterruptHandler(), 

    TMR3_InterruptHandler	PTR FTN()void  size(3) Largest target is 1
		 -> TMR3_DefaultInterruptHandler(), Absolute function(), 

    TMR1_SetInterruptHandler@InterruptHandler	PTR FTN()void  size(3) Largest target is 1
		 -> TMR1_DefaultInterruptHandler(), 

    TMR1_InterruptHandler	PTR FTN()void  size(3) Largest target is 1
		 -> TMR1_DefaultInterruptHandler(), Absolute function(), 

    TMR4_SetInterruptHandler@InterruptHandler	PTR FTN()void  size(3) Largest target is 1
		 -> TMR4_DefaultInterruptHandler(), 

    TMR4_InterruptHandler	PTR FTN()void  size(3) Largest target is 1
		 -> TMR4_DefaultInterruptHandler(), Absolute function(), 

    EUSART1_SetRxInterruptHandler@interruptHandler	PTR FTN()void  size(3) Largest target is 1
		 -> EUSART1_Receive_ISR(), 

    EUSART1_SetTxInterruptHandler@interruptHandler	PTR FTN()void  size(3) Largest target is 1
		 -> EUSART1_Transmit_ISR(), 

    EUSART1_SetErrorHandler@interruptHandler	PTR FTN()void  size(3) Largest target is 1
		 -> EUSART1_DefaultErrorHandler(), 

    EUSART1_SetOverrunErrorHandler@interruptHandler	PTR FTN()void  size(3) Largest target is 1
		 -> EUSART1_DefaultOverrunErrorHandler(), 

    EUSART1_SetFramingErrorHandler@interruptHandler	PTR FTN()void  size(3) Largest target is 1
		 -> EUSART1_DefaultFramingErrorHandler(), 

    EUSART1_ErrorHandler	PTR FTN()void  size(3) Largest target is 1
		 -> EUSART1_DefaultErrorHandler(), Absolute function(), 

    EUSART1_OverrunErrorHandler	PTR FTN()void  size(3) Largest target is 1
		 -> EUSART1_DefaultOverrunErrorHandler(), Absolute function(), 

    EUSART1_FramingErrorHandler	PTR FTN()void  size(3) Largest target is 1
		 -> EUSART1_DefaultFramingErrorHandler(), Absolute function(), 

    TMR0_SetInterruptHandler@InterruptHandler	PTR FTN()void  size(3) Largest target is 1
		 -> TMR0_DefaultInterruptHandler(), 

    TMR0_InterruptHandler	PTR FTN()void  size(3) Largest target is 1
		 -> TMR0_DefaultInterruptHandler(), Absolute function(), 

    EUSART1_RxDefaultInterruptHandler	PTR FTN()void  size(3) Largest target is 1
		 -> EUSART1_Receive_ISR(), Absolute function(), 

    EUSART1_TxDefaultInterruptHandler	PTR FTN()void  size(3) Largest target is 1
		 -> EUSART1_Transmit_ISR(), Absolute function(), 

    I2C1_MasterWriteTRBBuild@ptrb.pbuffer	PTR unsigned char  size(2) Largest target is 6
		 -> VL53L0X_StaticInit@refSpadMap(COMRAM[6]), ReadRegisters@writeBuffer(COMRAM[2]), ReadRegisters@status(COMRAM[1]), ReadRegister16@regValueL(COMRAM[1]), 
		 -> ReadRegister16@regValueH(COMRAM[1]), ReadRegister16@reg(COMRAM[1]), ReadRegister16@status(COMRAM[1]), ReadRegister@regValue(COMRAM[1]), 
		 -> ReadRegister@reg(COMRAM[1]), ReadRegister@status(COMRAM[1]), WriteRegisters@writeBuffer(COMRAM[2]), WriteRegisters@status(COMRAM[1]), 
		 -> WriteRegister32@writeBuffer(COMRAM[5]), WriteRegister32@status(COMRAM[1]), WriteRegister16@writeBuffer(COMRAM[3]), WriteRegister16@status(COMRAM[1]), 
		 -> WriteRegister@writeBuffer(COMRAM[2]), WriteRegister@status(COMRAM[1]), 

    I2C1_MasterReadTRBBuild@ptrb.pbuffer	PTR unsigned char  size(2) Largest target is 6
		 -> VL53L0X_StaticInit@refSpadMap(COMRAM[6]), ReadRegisters@writeBuffer(COMRAM[2]), ReadRegisters@status(COMRAM[1]), ReadRegister16@regValueL(COMRAM[1]), 
		 -> ReadRegister16@regValueH(COMRAM[1]), ReadRegister16@reg(COMRAM[1]), ReadRegister16@status(COMRAM[1]), ReadRegister@regValue(COMRAM[1]), 
		 -> ReadRegister@reg(COMRAM[1]), ReadRegister@status(COMRAM[1]), WriteRegisters@writeBuffer(COMRAM[2]), WriteRegisters@status(COMRAM[1]), 
		 -> WriteRegister32@writeBuffer(COMRAM[5]), WriteRegister32@status(COMRAM[1]), WriteRegister16@writeBuffer(COMRAM[3]), WriteRegister16@status(COMRAM[1]), 
		 -> WriteRegister@writeBuffer(COMRAM[2]), WriteRegister@status(COMRAM[1]), 

    i2c1_object.pTrTail.ptrb_list.pbuffer	PTR unsigned char  size(2) Largest target is 6
		 -> VL53L0X_StaticInit@refSpadMap(COMRAM[6]), ReadRegisters@writeBuffer(COMRAM[2]), ReadRegisters@status(COMRAM[1]), ReadRegister16@regValueL(COMRAM[1]), 
		 -> ReadRegister16@regValueH(COMRAM[1]), ReadRegister16@reg(COMRAM[1]), ReadRegister16@status(COMRAM[1]), ReadRegister@regValue(COMRAM[1]), 
		 -> ReadRegister@reg(COMRAM[1]), ReadRegister@status(COMRAM[1]), WriteRegisters@writeBuffer(COMRAM[2]), WriteRegisters@status(COMRAM[1]), 
		 -> WriteRegister32@writeBuffer(COMRAM[5]), WriteRegister32@status(COMRAM[1]), WriteRegister16@writeBuffer(COMRAM[3]), WriteRegister16@status(COMRAM[1]), 
		 -> WriteRegister@writeBuffer(COMRAM[2]), WriteRegister@status(COMRAM[1]), 

    i2c1_object.pTrTail.pTrFlag	PTR enum E11606 size(2) Largest target is 6
		 -> VL53L0X_StaticInit@refSpadMap(COMRAM[6]), ReadRegisters@writeBuffer(COMRAM[2]), ReadRegisters@status(COMRAM[1]), ReadRegister16@regValueL(COMRAM[1]), 
		 -> ReadRegister16@regValueH(COMRAM[1]), ReadRegister16@reg(COMRAM[1]), ReadRegister16@status(COMRAM[1]), ReadRegister@regValue(COMRAM[1]), 
		 -> ReadRegister@reg(COMRAM[1]), ReadRegister@status(COMRAM[1]), WriteRegisters@writeBuffer(COMRAM[2]), WriteRegisters@status(COMRAM[1]), 
		 -> WriteRegister32@writeBuffer(COMRAM[5]), WriteRegister32@status(COMRAM[1]), WriteRegister16@writeBuffer(COMRAM[3]), WriteRegister16@status(COMRAM[1]), 
		 -> WriteRegister@writeBuffer(COMRAM[2]), WriteRegister@status(COMRAM[1]), 

    i2c1_object.pTrTail.ptrb_list	PTR struct . size(2) Largest target is 18
		 -> I2C1_MasterRead@trBlock(BANK0[5]), I2C1_MasterWrite@trBlock(BANK0[5]), ReadRegisters@readTRB(COMRAM[10]), ReadRegister16@readTRB(COMRAM[15]), 
		 -> ReadRegister@readTRB(COMRAM[10]), WriteRegisters@writeTRB(COMRAM[10]), WriteRegister32@writeTRB(COMRAM[5]), WriteRegister16@writeTRB(COMRAM[5]), 
		 -> WriteRegister@writeTRB(COMRAM[5]), 

    F11721.pbuffer	PTR unsigned char  size(2) Largest target is 6
		 -> VL53L0X_StaticInit@refSpadMap(COMRAM[6]), ReadRegisters@writeBuffer(COMRAM[2]), ReadRegisters@status(COMRAM[1]), ReadRegister16@regValueL(COMRAM[1]), 
		 -> ReadRegister16@regValueH(COMRAM[1]), ReadRegister16@reg(COMRAM[1]), ReadRegister16@status(COMRAM[1]), ReadRegister@regValue(COMRAM[1]), 
		 -> ReadRegister@reg(COMRAM[1]), ReadRegister@status(COMRAM[1]), WriteRegisters@writeBuffer(COMRAM[2]), WriteRegisters@status(COMRAM[1]), 
		 -> WriteRegister32@writeBuffer(COMRAM[5]), WriteRegister32@status(COMRAM[1]), WriteRegister16@writeBuffer(COMRAM[3]), WriteRegister16@status(COMRAM[1]), 
		 -> WriteRegister@writeBuffer(COMRAM[2]), WriteRegister@status(COMRAM[1]), 

    F11716.pbuffer	PTR unsigned char  size(2) Largest target is 6
		 -> VL53L0X_StaticInit@refSpadMap(COMRAM[6]), ReadRegisters@writeBuffer(COMRAM[2]), ReadRegisters@status(COMRAM[1]), ReadRegister16@regValueL(COMRAM[1]), 
		 -> ReadRegister16@regValueH(COMRAM[1]), ReadRegister16@reg(COMRAM[1]), ReadRegister16@status(COMRAM[1]), ReadRegister@regValue(COMRAM[1]), 
		 -> ReadRegister@reg(COMRAM[1]), ReadRegister@status(COMRAM[1]), WriteRegisters@writeBuffer(COMRAM[2]), WriteRegisters@status(COMRAM[1]), 
		 -> WriteRegister32@writeBuffer(COMRAM[5]), WriteRegister32@status(COMRAM[1]), WriteRegister16@writeBuffer(COMRAM[3]), WriteRegister16@status(COMRAM[1]), 
		 -> WriteRegister@writeBuffer(COMRAM[2]), WriteRegister@status(COMRAM[1]), 

    I2C1_ISR@pi2c_buf_ptr	PTR unsigned char  size(2) Largest target is 6
		 -> NULL(NULL[0]), VL53L0X_StaticInit@refSpadMap(COMRAM[6]), ReadRegisters@writeBuffer(COMRAM[2]), ReadRegisters@status(COMRAM[1]), 
		 -> ReadRegister16@regValueL(COMRAM[1]), ReadRegister16@regValueH(COMRAM[1]), ReadRegister16@reg(COMRAM[1]), ReadRegister16@status(COMRAM[1]), 
		 -> ReadRegister@regValue(COMRAM[1]), ReadRegister@reg(COMRAM[1]), ReadRegister@status(COMRAM[1]), WriteRegisters@writeBuffer(COMRAM[2]), 
		 -> WriteRegisters@status(COMRAM[1]), WriteRegister32@writeBuffer(COMRAM[5]), WriteRegister32@status(COMRAM[1]), WriteRegister16@writeBuffer(COMRAM[3]), 
		 -> WriteRegister16@status(COMRAM[1]), WriteRegister@writeBuffer(COMRAM[2]), WriteRegister@status(COMRAM[1]), 

    p_i2c1_trb_current.pbuffer	PTR unsigned char  size(2) Largest target is 6
		 -> VL53L0X_StaticInit@refSpadMap(COMRAM[6]), ReadRegisters@writeBuffer(COMRAM[2]), ReadRegisters@status(COMRAM[1]), ReadRegister16@regValueL(COMRAM[1]), 
		 -> ReadRegister16@regValueH(COMRAM[1]), ReadRegister16@reg(COMRAM[1]), ReadRegister16@status(COMRAM[1]), ReadRegister@regValue(COMRAM[1]), 
		 -> ReadRegister@reg(COMRAM[1]), ReadRegister@status(COMRAM[1]), WriteRegisters@writeBuffer(COMRAM[2]), WriteRegisters@status(COMRAM[1]), 
		 -> WriteRegister32@writeBuffer(COMRAM[5]), WriteRegister32@status(COMRAM[1]), WriteRegister16@writeBuffer(COMRAM[3]), WriteRegister16@status(COMRAM[1]), 
		 -> WriteRegister@writeBuffer(COMRAM[2]), WriteRegister@status(COMRAM[1]), 

    p_i2c1_trb_current	PTR struct . size(2) Largest target is 18
		 -> I2C1_MasterRead@trBlock(BANK0[5]), I2C1_MasterWrite@trBlock(BANK0[5]), NULL(NULL[0]), ReadRegisters@readTRB(COMRAM[10]), 
		 -> ReadRegister16@readTRB(COMRAM[15]), ReadRegister@readTRB(COMRAM[10]), WriteRegisters@writeTRB(COMRAM[10]), WriteRegister32@writeTRB(COMRAM[5]), 
		 -> WriteRegister16@writeTRB(COMRAM[5]), WriteRegister@writeTRB(COMRAM[5]), 

    i2c1_object.pTrHead.pTrFlag	PTR enum E11606 size(2) Largest target is 6
		 -> VL53L0X_StaticInit@refSpadMap(COMRAM[6]), ReadRegisters@writeBuffer(COMRAM[2]), ReadRegisters@status(COMRAM[1]), ReadRegister16@regValueL(COMRAM[1]), 
		 -> ReadRegister16@regValueH(COMRAM[1]), ReadRegister16@reg(COMRAM[1]), ReadRegister16@status(COMRAM[1]), ReadRegister@regValue(COMRAM[1]), 
		 -> ReadRegister@reg(COMRAM[1]), ReadRegister@status(COMRAM[1]), WriteRegisters@writeBuffer(COMRAM[2]), WriteRegisters@status(COMRAM[1]), 
		 -> WriteRegister32@writeBuffer(COMRAM[5]), WriteRegister32@status(COMRAM[1]), WriteRegister16@writeBuffer(COMRAM[3]), WriteRegister16@status(COMRAM[1]), 
		 -> WriteRegister@writeBuffer(COMRAM[2]), WriteRegister@status(COMRAM[1]), 

    i2c1_object.pTrHead.ptrb_list	PTR struct . size(2) Largest target is 18
		 -> I2C1_MasterRead@trBlock(BANK0[5]), I2C1_MasterWrite@trBlock(BANK0[5]), ReadRegisters@readTRB(COMRAM[10]), ReadRegister16@readTRB(COMRAM[15]), 
		 -> ReadRegister@readTRB(COMRAM[10]), WriteRegisters@writeTRB(COMRAM[10]), WriteRegister32@writeTRB(COMRAM[5]), WriteRegister16@writeTRB(COMRAM[5]), 
		 -> WriteRegister@writeTRB(COMRAM[5]), 

    S76$pbuffer	PTR unsigned char  size(2) Largest target is 6
		 -> VL53L0X_StaticInit@refSpadMap(COMRAM[6]), ReadRegisters@writeBuffer(COMRAM[2]), ReadRegisters@status(COMRAM[1]), ReadRegister16@regValueL(COMRAM[1]), 
		 -> ReadRegister16@regValueH(COMRAM[1]), ReadRegister16@reg(COMRAM[1]), ReadRegister16@status(COMRAM[1]), ReadRegister@regValue(COMRAM[1]), 
		 -> ReadRegister@reg(COMRAM[1]), ReadRegister@status(COMRAM[1]), WriteRegisters@writeBuffer(COMRAM[2]), WriteRegisters@status(COMRAM[1]), 
		 -> WriteRegister32@writeBuffer(COMRAM[5]), WriteRegister32@status(COMRAM[1]), WriteRegister16@writeBuffer(COMRAM[3]), WriteRegister16@status(COMRAM[1]), 
		 -> WriteRegister@writeBuffer(COMRAM[2]), WriteRegister@status(COMRAM[1]), 

    p_i2c1_current.pbuffer	PTR unsigned char  size(2) Largest target is 6
		 -> VL53L0X_StaticInit@refSpadMap(COMRAM[6]), ReadRegisters@writeBuffer(COMRAM[2]), ReadRegisters@status(COMRAM[1]), ReadRegister16@regValueL(COMRAM[1]), 
		 -> ReadRegister16@regValueH(COMRAM[1]), ReadRegister16@reg(COMRAM[1]), ReadRegister16@status(COMRAM[1]), ReadRegister@regValue(COMRAM[1]), 
		 -> ReadRegister@reg(COMRAM[1]), ReadRegister@status(COMRAM[1]), WriteRegisters@writeBuffer(COMRAM[2]), WriteRegisters@status(COMRAM[1]), 
		 -> WriteRegister32@writeBuffer(COMRAM[5]), WriteRegister32@status(COMRAM[1]), WriteRegister16@writeBuffer(COMRAM[3]), WriteRegister16@status(COMRAM[1]), 
		 -> WriteRegister@writeBuffer(COMRAM[2]), WriteRegister@status(COMRAM[1]), 

    S1782$pTrFlag	PTR enum E11606 size(2) Largest target is 6
		 -> VL53L0X_StaticInit@refSpadMap(COMRAM[6]), ReadRegisters@writeBuffer(COMRAM[2]), ReadRegisters@status(COMRAM[1]), ReadRegister16@regValueL(COMRAM[1]), 
		 -> ReadRegister16@regValueH(COMRAM[1]), ReadRegister16@reg(COMRAM[1]), ReadRegister16@status(COMRAM[1]), ReadRegister@regValue(COMRAM[1]), 
		 -> ReadRegister@reg(COMRAM[1]), ReadRegister@status(COMRAM[1]), WriteRegisters@writeBuffer(COMRAM[2]), WriteRegisters@status(COMRAM[1]), 
		 -> WriteRegister32@writeBuffer(COMRAM[5]), WriteRegister32@status(COMRAM[1]), WriteRegister16@writeBuffer(COMRAM[3]), WriteRegister16@status(COMRAM[1]), 
		 -> WriteRegister@writeBuffer(COMRAM[2]), WriteRegister@status(COMRAM[1]), 

    p_i2c1_current.pTrFlag	PTR enum E11606 size(2) Largest target is 6
		 -> VL53L0X_StaticInit@refSpadMap(COMRAM[6]), ReadRegisters@writeBuffer(COMRAM[2]), ReadRegisters@status(COMRAM[1]), ReadRegister16@regValueL(COMRAM[1]), 
		 -> ReadRegister16@regValueH(COMRAM[1]), ReadRegister16@reg(COMRAM[1]), ReadRegister16@status(COMRAM[1]), ReadRegister@regValue(COMRAM[1]), 
		 -> ReadRegister@reg(COMRAM[1]), ReadRegister@status(COMRAM[1]), WriteRegisters@writeBuffer(COMRAM[2]), WriteRegisters@status(COMRAM[1]), 
		 -> WriteRegister32@writeBuffer(COMRAM[5]), WriteRegister32@status(COMRAM[1]), WriteRegister16@writeBuffer(COMRAM[3]), WriteRegister16@status(COMRAM[1]), 
		 -> WriteRegister@writeBuffer(COMRAM[2]), WriteRegister@status(COMRAM[1]), 

    S1782$ptrb_list	PTR struct . size(2) Largest target is 18
		 -> I2C1_MasterRead@trBlock(BANK0[5]), I2C1_MasterWrite@trBlock(BANK0[5]), ReadRegisters@readTRB(COMRAM[10]), ReadRegister16@readTRB(COMRAM[15]), 
		 -> ReadRegister@readTRB(COMRAM[10]), WriteRegisters@writeTRB(COMRAM[10]), WriteRegister32@writeTRB(COMRAM[5]), WriteRegister16@writeTRB(COMRAM[5]), 
		 -> WriteRegister@writeTRB(COMRAM[5]), 

    p_i2c1_current.ptrb_list	PTR struct . size(2) Largest target is 18
		 -> I2C1_MasterRead@trBlock(BANK0[5]), I2C1_MasterWrite@trBlock(BANK0[5]), ReadRegisters@readTRB(COMRAM[10]), ReadRegister16@readTRB(COMRAM[15]), 
		 -> ReadRegister@readTRB(COMRAM[10]), WriteRegisters@writeTRB(COMRAM[10]), WriteRegister32@writeTRB(COMRAM[5]), WriteRegister16@writeTRB(COMRAM[5]), 
		 -> WriteRegister@writeTRB(COMRAM[5]), 

    p_i2c1_current	PTR volatile struct . size(2) Largest target is 7
		 -> i2c1_tr_queue(BANK0[5]), NULL(NULL[0]), 

    S1793$pTrHead	PTR struct . size(2) Largest target is 7
		 -> i2c1_tr_queue(BANK0[5]), 

    i2c1_object.pTrHead	PTR struct . size(2) Largest target is 7
		 -> i2c1_tr_queue(BANK0[5]), 

    S1793$pTrTail	PTR struct . size(2) Largest target is 7
		 -> i2c1_tr_queue(BANK0[5]), 

    i2c1_object.pTrTail	PTR struct . size(2) Largest target is 7
		 -> i2c1_tr_queue(BANK0[5]), 

    IOCCF0_SetInterruptHandler@InterruptHandler	PTR FTN()void  size(3) Largest target is 1
		 -> IOCCF0_DefaultInterruptHandler(), 

    IOCCF0_InterruptHandler	PTR FTN()void  size(3) Largest target is 1
		 -> Absolute function(), IOCCF0_DefaultInterruptHandler(), 

    IOCAF7_SetInterruptHandler@InterruptHandler	PTR FTN()void  size(3) Largest target is 1
		 -> IOCAF7_DefaultInterruptHandler(), 

    IOCAF7_InterruptHandler	PTR FTN()void  size(3) Largest target is 1
		 -> Absolute function(), IOCAF7_DefaultInterruptHandler(), 

    IOCAF6_SetInterruptHandler@InterruptHandler	PTR FTN()void  size(3) Largest target is 1
		 -> IOCAF6_DefaultInterruptHandler(), 

    IOCAF6_InterruptHandler	PTR FTN()void  size(3) Largest target is 1
		 -> Absolute function(), IOCAF6_DefaultInterruptHandler(), 

    IOCAF5_SetInterruptHandler@InterruptHandler	PTR FTN()void  size(3) Largest target is 1
		 -> IOCAF5_DefaultInterruptHandler(), 

    IOCAF5_InterruptHandler	PTR FTN()void  size(3) Largest target is 1
		 -> Absolute function(), IOCAF5_DefaultInterruptHandler(), 

    printLCD@t	PTR unsigned char  size(2) Largest target is 17
		 -> STR_4(CODE[4]), STR_3(CODE[4]), STR_2(CODE[17]), STR_1(CODE[17]), 


Critical Paths under _main in COMRAM

    None.

Critical Paths under _INTERRUPT_InterruptManager in COMRAM

    _TMR4_ISR->_TMR4_DefaultInterruptHandler
    _TMR4_DefaultInterruptHandler->___fltol
    ___fltol->___fladd
    ___flmul->___xxtofl
    ___fladd->___flmul
    _TMR3_ISR->_TMR3_WriteTimer
    _TMR3_DefaultInterruptHandler->_TMR3_WriteTimer
    _TMR1_ISR->_TMR1_WriteTimer
    _TMR1_DefaultInterruptHandler->_TMR1_WriteTimer
    _IOCCF0_DefaultInterruptHandler->___aldiv
    _IOCAF6_ISR->_IOCAF6_DefaultInterruptHandler
    _IOCAF5_DefaultInterruptHandler->___aldiv
    ___aldiv->_TMR1_ReadTimer
    ___aldiv->_TMR3_ReadTimer
    _I2C1_ISR->_I2C1_Stop

Critical Paths under _main in BANK0

    None.

Critical Paths under _INTERRUPT_InterruptManager in BANK0

    None.

Critical Paths under _main in BANK1

    _main->_initLCD
    _printLCD->_writeLCD
    _initLCD->_clearLCD
    _clearLCD->_writeLCD
    _gotoLCD->_writeLCD
    _writeLCD->_lcdNibble
    _SYSTEM_Initialize->_TMR0_Initialize
    _SYSTEM_Initialize->_TMR1_Initialize
    _SYSTEM_Initialize->_TMR3_Initialize
    _TMR4_Initialize->_TMR4_SetInterruptHandler
    _TMR3_Initialize->_TMR3_SetInterruptHandler
    _TMR1_Initialize->_TMR1_SetInterruptHandler
    _TMR0_Initialize->_TMR0_SetInterruptHandler
    _PIN_MANAGER_Initialize->_IOCAF5_SetInterruptHandler
    _PIN_MANAGER_Initialize->_IOCAF6_SetInterruptHandler
    _PIN_MANAGER_Initialize->_IOCAF7_SetInterruptHandler
    _PIN_MANAGER_Initialize->_IOCCF0_SetInterruptHandler
    _EUSART1_Initialize->_EUSART1_SetErrorHandler
    _EUSART1_Initialize->_EUSART1_SetFramingErrorHandler
    _EUSART1_Initialize->_EUSART1_SetOverrunErrorHandler
    _EUSART1_Initialize->_EUSART1_SetRxInterruptHandler
    _EUSART1_Initialize->_EUSART1_SetTxInterruptHandler

Critical Paths under _INTERRUPT_InterruptManager in BANK1

    None.

Critical Paths under _main in BANK2

    None.

Critical Paths under _INTERRUPT_InterruptManager in BANK2

    None.

Critical Paths under _main in BANK3

    None.

Critical Paths under _INTERRUPT_InterruptManager in BANK3

    None.

Critical Paths under _main in BANK4

    None.

Critical Paths under _INTERRUPT_InterruptManager in BANK4

    None.

Critical Paths under _main in BANK5

    None.

Critical Paths under _INTERRUPT_InterruptManager in BANK5

    None.

Critical Paths under _main in BANK6

    None.

Critical Paths under _INTERRUPT_InterruptManager in BANK6

    None.

Critical Paths under _main in BANK7

    None.

Critical Paths under _INTERRUPT_InterruptManager in BANK7

    None.

Critical Paths under _main in BANK8

    None.

Critical Paths under _INTERRUPT_InterruptManager in BANK8

    None.

Critical Paths under _main in BANK9

    None.

Critical Paths under _INTERRUPT_InterruptManager in BANK9

    None.

Critical Paths under _main in BANK10

    None.

Critical Paths under _INTERRUPT_InterruptManager in BANK10

    None.

Critical Paths under _main in BANK11

    None.

Critical Paths under _INTERRUPT_InterruptManager in BANK11

    None.

Critical Paths under _main in BANK12

    None.

Critical Paths under _INTERRUPT_InterruptManager in BANK12

    None.

Critical Paths under _main in BANK13

    None.

Critical Paths under _INTERRUPT_InterruptManager in BANK13

    None.

Critical Paths under _main in BANK14

    None.

Critical Paths under _INTERRUPT_InterruptManager in BANK14

    None.

Call Graph Tables:

 ---------------------------------------------------------------------------------
 (Depth) Function   	        Calls       Base Space   Used Autos Params    Refs
 ---------------------------------------------------------------------------------
 (0) _main                                                 8     8      0   18974
                                              7 BANK1      8     8      0
                       _BP_selection
             _Ecrit_Valeur_selection
                                _LED
                             _Motors
                  _SYSTEM_Initialize
                       _Speed_Motors
                           _clearLCD
                            _gotoLCD
                            _initLCD
                           _printLCD
                           _retroLCD
 ---------------------------------------------------------------------------------
 (1) _retroLCD                                             1     1      0      31
                                              0 BANK1      1     1      0
 ---------------------------------------------------------------------------------
 (1) _printLCD                                             2     0      2    3432
                                              4 BANK1      2     0      2
                           _writeLCD
 ---------------------------------------------------------------------------------
 (1) _initLCD                                              2     2      0    6138
                                              5 BANK1      2     2      0
                           _clearLCD
                          _lcdNibble
                           _writeLCD
 ---------------------------------------------------------------------------------
 (2) _clearLCD                                             1     1      0    3007
                                              4 BANK1      1     1      0
                           _writeLCD
 ---------------------------------------------------------------------------------
 (1) _gotoLCD                                              2     1      1    3280
                                              4 BANK1      2     1      1
                           _writeLCD
 ---------------------------------------------------------------------------------
 (2) _writeLCD                                             2     1      1    3007
                                              2 BANK1      2     1      1
                          _lcdNibble
 ---------------------------------------------------------------------------------
 (3) _lcdNibble                                            2     2      0     124
                                              0 BANK1      2     2      0
 ---------------------------------------------------------------------------------
 (1) _Speed_Motors                                         4     0      4     602
                                              0 BANK1      4     0      4
 ---------------------------------------------------------------------------------
 (1) _SYSTEM_Initialize                                    0     0      0    1573
                    _ADCC_Initialize
                 _EUSART1_Initialize
                    _I2C1_Initialize
               _INTERRUPT_Initialize
              _OSCILLATOR_Initialize
             _PIN_MANAGER_Initialize
                     _PMD_Initialize
                    _PWM1_Initialize
                    _PWM2_Initialize
                    _TMR0_Initialize
                    _TMR1_Initialize
                    _TMR2_Initialize
                    _TMR3_Initialize
                    _TMR4_Initialize
 ---------------------------------------------------------------------------------
 (2) _TMR4_Initialize                                      0     0      0     121
           _TMR4_SetInterruptHandler
 ---------------------------------------------------------------------------------
 (3) _TMR4_SetInterruptHandler                             3     0      3     121
                                              0 BANK1      3     0      3
 ---------------------------------------------------------------------------------
 (2) _TMR3_Initialize                                      2     2      0     121
                                              3 BANK1      2     2      0
           _TMR3_SetInterruptHandler
 ---------------------------------------------------------------------------------
 (3) _TMR3_SetInterruptHandler                             3     0      3     121
                                              0 BANK1      3     0      3
 ---------------------------------------------------------------------------------
 (2) _TMR2_Initialize                                      0     0      0       0
 ---------------------------------------------------------------------------------
 (2) _TMR1_Initialize                                      2     2      0     121
                                              3 BANK1      2     2      0
           _TMR1_SetInterruptHandler
 ---------------------------------------------------------------------------------
 (3) _TMR1_SetInterruptHandler                             3     0      3     121
                                              0 BANK1      3     0      3
 ---------------------------------------------------------------------------------
 (2) _TMR0_Initialize                                      2     2      0     121
                                              3 BANK1      2     2      0
           _TMR0_SetInterruptHandler
 ---------------------------------------------------------------------------------
 (3) _TMR0_SetInterruptHandler                             3     0      3     121
                                              0 BANK1      3     0      3
 ---------------------------------------------------------------------------------
 (2) _PWM2_Initialize                                      0     0      0       0
 ---------------------------------------------------------------------------------
 (2) _PWM1_Initialize                                      0     0      0       0
 ---------------------------------------------------------------------------------
 (2) _PMD_Initialize                                       0     0      0       0
 ---------------------------------------------------------------------------------
 (2) _PIN_MANAGER_Initialize                               0     0      0     484
         _IOCAF5_SetInterruptHandler
         _IOCAF6_SetInterruptHandler
         _IOCAF7_SetInterruptHandler
         _IOCCF0_SetInterruptHandler
 ---------------------------------------------------------------------------------
 (3) _IOCCF0_SetInterruptHandler                           3     0      3     121
                                              0 BANK1      3     0      3
 ---------------------------------------------------------------------------------
 (3) _IOCAF7_SetInterruptHandler                           3     0      3     121
                                              0 BANK1      3     0      3
 ---------------------------------------------------------------------------------
 (3) _IOCAF6_SetInterruptHandler                           3     0      3     121
                                              0 BANK1      3     0      3
 ---------------------------------------------------------------------------------
 (3) _IOCAF5_SetInterruptHandler                           3     0      3     121
                                              0 BANK1      3     0      3
 ---------------------------------------------------------------------------------
 (2) _OSCILLATOR_Initialize                                0     0      0       0
 ---------------------------------------------------------------------------------
 (2) _INTERRUPT_Initialize                                 0     0      0       0
 ---------------------------------------------------------------------------------
 (2) _I2C1_Initialize                                      0     0      0       0
 ---------------------------------------------------------------------------------
 (2) _EUSART1_Initialize                                   0     0      0     605
            _EUSART1_SetErrorHandler
     _EUSART1_SetFramingErrorHandler
     _EUSART1_SetOverrunErrorHandler
      _EUSART1_SetRxInterruptHandler
      _EUSART1_SetTxInterruptHandler
 ---------------------------------------------------------------------------------
 (3) _EUSART1_SetTxInterruptHandler                        3     0      3     121
                                              0 BANK1      3     0      3
 ---------------------------------------------------------------------------------
 (3) _EUSART1_SetRxInterruptHandler                        3     0      3     121
                                              0 BANK1      3     0      3
 ---------------------------------------------------------------------------------
 (3) _EUSART1_SetOverrunErrorHandler                       3     0      3     121
                                              0 BANK1      3     0      3
 ---------------------------------------------------------------------------------
 (3) _EUSART1_SetFramingErrorHandler                       3     0      3     121
                                              0 BANK1      3     0      3
 ---------------------------------------------------------------------------------
 (3) _EUSART1_SetErrorHandler                              3     0      3     121
                                              0 BANK1      3     0      3
 ---------------------------------------------------------------------------------
 (2) _ADCC_Initialize                                      0     0      0       0
 ---------------------------------------------------------------------------------
 (1) _Motors                                               1     1      0      31
                                              0 BANK1      1     1      0
 ---------------------------------------------------------------------------------
 (1) _LED                                                  2     1      1     633
                                              0 BANK1      2     1      1
 ---------------------------------------------------------------------------------
 (1) _Ecrit_Valeur_selection                               2     0      2     121
                                              0 BANK1      2     0      2
 ---------------------------------------------------------------------------------
 (1) _BP_selection                                         0     0      0       0
 ---------------------------------------------------------------------------------
 Estimated maximum stack depth 3
 ---------------------------------------------------------------------------------
 (Depth) Function   	        Calls       Base Space   Used Autos Params    Refs
 ---------------------------------------------------------------------------------
 (5) _INTERRUPT_InterruptManager                          18    18      0   10529
                                              0 BANK0     18    18      0
                   Absolute function *
                _EUSART1_Receive_ISR *
               _EUSART1_Transmit_ISR *
               _I2C1_BusCollisionISR
                           _I2C1_ISR
                    _PIN_MANAGER_IOC
                           _TMR0_ISR
                           _TMR1_ISR
                           _TMR3_ISR
                           _TMR4_ISR
 ---------------------------------------------------------------------------------
 (6) _TMR4_ISR                                             0     0      0    6809
                   Absolute function *
       _TMR4_DefaultInterruptHandler *
 ---------------------------------------------------------------------------------
 (7) _TMR4_DefaultInterruptHandler                         6     6      0    6809
                                             69 COMRAM     6     6      0
                 _PWM1_LoadDutyValue
                 _PWM2_LoadDutyValue
                            ___fladd
                            ___flmul
                            ___fltol
                           ___xxtofl
 ---------------------------------------------------------------------------------
 (8) ___xxtofl                                            14    10      4     778
                                              0 COMRAM    14    10      4
 ---------------------------------------------------------------------------------
 (8) ___fltol                                             10     6      4     457
                                             59 COMRAM    10     6      4
                            ___fladd (ARG)
                            ___flmul (ARG)
                           ___xxtofl (ARG)
 ---------------------------------------------------------------------------------
 (8) ___flmul                                             25    17      8    2352
                                             14 COMRAM    25    17      8
                           ___xxtofl (ARG)
 ---------------------------------------------------------------------------------
 (8) ___fladd                                             20    12      8    2844
                                             39 COMRAM    20    12      8
                            ___flmul (ARG)
                           ___xxtofl (ARG)
 ---------------------------------------------------------------------------------
 (8) _PWM2_LoadDutyValue                                   2     0      2     166
                                              0 COMRAM     2     0      2
 ---------------------------------------------------------------------------------
 (8) _PWM1_LoadDutyValue                                   2     0      2     166
                                              0 COMRAM     2     0      2
 ---------------------------------------------------------------------------------
 (6) _TMR3_ISR                                             0     0      0     784
                   Absolute function *
       _TMR3_DefaultInterruptHandler *
                    _TMR3_WriteTimer
 ---------------------------------------------------------------------------------
 (7) _TMR3_DefaultInterruptHandler                         0     0      0     392
                     _TMR3_StopTimer
                    _TMR3_WriteTimer
 ---------------------------------------------------------------------------------
 (6) _TMR1_ISR                                             0     0      0     784
                   Absolute function *
       _TMR1_DefaultInterruptHandler *
                    _TMR1_WriteTimer
 ---------------------------------------------------------------------------------
 (7) _TMR1_DefaultInterruptHandler                         0     0      0     392
                     _TMR1_StopTimer
                    _TMR1_WriteTimer
 ---------------------------------------------------------------------------------
 (6) _TMR0_ISR                                             0     0      0       0
                   Absolute function *
       _TMR0_DefaultInterruptHandler *
 ---------------------------------------------------------------------------------
 (7) _TMR0_DefaultInterruptHandler                         0     0      0       0
 ---------------------------------------------------------------------------------
 (6) _PIN_MANAGER_IOC                                      0     0      0    2130
                         _IOCAF5_ISR
                         _IOCAF6_ISR
                         _IOCAF7_ISR
                         _IOCCF0_ISR
 ---------------------------------------------------------------------------------
 (7) _IOCCF0_ISR                                           0     0      0    1065
                   Absolute function *
     _IOCCF0_DefaultInterruptHandler *
 ---------------------------------------------------------------------------------
 (8) _IOCCF0_DefaultInterruptHandler                       0     0      0    1065
                     _TMR3_ReadTimer
                    _TMR3_StartTimer
                     _TMR3_StopTimer
                    _TMR3_WriteTimer
                            ___aldiv
 ---------------------------------------------------------------------------------
 (7) _TMR3_WriteTimer                                      2     0      2     392
                                              0 COMRAM     2     0      2
 ---------------------------------------------------------------------------------
 (8) _TMR3_StopTimer                                       0     0      0       0
 ---------------------------------------------------------------------------------
 (9) _TMR3_StartTimer                                      0     0      0       0
 ---------------------------------------------------------------------------------
 (9) _TMR3_ReadTimer                                       8     6      2      69
                                              0 COMRAM     8     6      2
 ---------------------------------------------------------------------------------
 (7) _IOCAF7_ISR                                           0     0      0       0
                   Absolute function *
     _IOCAF7_DefaultInterruptHandler *
 ---------------------------------------------------------------------------------
 (8) _IOCAF7_DefaultInterruptHandler                       0     0      0       0
 ---------------------------------------------------------------------------------
 (7) _IOCAF6_ISR                                           0     0      0       0
                   Absolute function *
     _IOCAF6_DefaultInterruptHandler *
 ---------------------------------------------------------------------------------
 (8) _IOCAF6_DefaultInterruptHandler                       1     1      0       0
                                              0 COMRAM     1     1      0
 ---------------------------------------------------------------------------------
 (7) _IOCAF5_ISR                                           0     0      0    1065
                   Absolute function *
     _IOCAF5_DefaultInterruptHandler *
 ---------------------------------------------------------------------------------
 (8) _IOCAF5_DefaultInterruptHandler                       0     0      0    1065
                     _TMR1_ReadTimer
                    _TMR1_StartTimer
                     _TMR1_StopTimer
                    _TMR1_WriteTimer
                            ___aldiv
 ---------------------------------------------------------------------------------
 (9) ___aldiv                                             14     6      8     604
                                              8 COMRAM    14     6      8
                     _TMR1_ReadTimer (ARG)
                     _TMR3_ReadTimer (ARG)
 ---------------------------------------------------------------------------------
 (7) _TMR1_WriteTimer                                      2     0      2     392
                                              0 COMRAM     2     0      2
 ---------------------------------------------------------------------------------
 (8) _TMR1_StopTimer                                       0     0      0       0
 ---------------------------------------------------------------------------------
 (9) _TMR1_StartTimer                                      0     0      0       0
 ---------------------------------------------------------------------------------
 (9) _TMR1_ReadTimer                                       8     6      2      69
                                              0 COMRAM     8     6      2
 ---------------------------------------------------------------------------------
 (6) _I2C1_ISR                                             2     2      0      22
                                              3 COMRAM     2     2      0
              _I2C1_FunctionComplete
                          _I2C1_Stop
 ---------------------------------------------------------------------------------
 (7) _I2C1_Stop                                            3     3      0      22
                                              0 COMRAM     3     3      0
 ---------------------------------------------------------------------------------
 (7) _I2C1_FunctionComplete                                0     0      0       0
 ---------------------------------------------------------------------------------
 (6) _I2C1_BusCollisionISR                                 0     0      0       0
 ---------------------------------------------------------------------------------
 (6) _EUSART1_Transmit_ISR                                 0     0      0       0
 ---------------------------------------------------------------------------------
 (6) _EUSART1_Receive_ISR                                  0     0      0       0
                   Absolute function *
        _EUSART1_DefaultErrorHandler *
 _EUSART1_DefaultFramingErrorHandler *
 _EUSART1_DefaultOverrunErrorHandler *
              _EUSART1_RxDataHandler
 ---------------------------------------------------------------------------------
 (7) _EUSART1_DefaultOverrunErrorHandler                   0     0      0       0
 ---------------------------------------------------------------------------------
 (7) _EUSART1_DefaultFramingErrorHandler                   0     0      0       0
 ---------------------------------------------------------------------------------
 (7) _EUSART1_DefaultErrorHandler                          0     0      0       0
              _EUSART1_RxDataHandler
 ---------------------------------------------------------------------------------
 (7) _EUSART1_RxDataHandler                                0     0      0       0
 ---------------------------------------------------------------------------------
 (7) Absolute function(Fake)                               0     0      0       0
 ---------------------------------------------------------------------------------
 Estimated maximum stack depth 9
 ---------------------------------------------------------------------------------

 Call Graph Graphs:

 _main (ROOT)
   _BP_selection
   _Ecrit_Valeur_selection
   _LED
   _Motors
   _SYSTEM_Initialize
     _ADCC_Initialize
     _EUSART1_Initialize
       _EUSART1_SetErrorHandler
       _EUSART1_SetFramingErrorHandler
       _EUSART1_SetOverrunErrorHandler
       _EUSART1_SetRxInterruptHandler
       _EUSART1_SetTxInterruptHandler
     _I2C1_Initialize
     _INTERRUPT_Initialize
     _OSCILLATOR_Initialize
     _PIN_MANAGER_Initialize
       _IOCAF5_SetInterruptHandler
       _IOCAF6_SetInterruptHandler
       _IOCAF7_SetInterruptHandler
       _IOCCF0_SetInterruptHandler
     _PMD_Initialize
     _PWM1_Initialize
     _PWM2_Initialize
     _TMR0_Initialize
       _TMR0_SetInterruptHandler
     _TMR1_Initialize
       _TMR1_SetInterruptHandler
     _TMR2_Initialize
     _TMR3_Initialize
       _TMR3_SetInterruptHandler
     _TMR4_Initialize
       _TMR4_SetInterruptHandler
   _Speed_Motors
   _clearLCD
     _writeLCD
       _lcdNibble
   _gotoLCD
     _writeLCD
       _lcdNibble
   _initLCD
     _clearLCD
       _writeLCD
         _lcdNibble
     _lcdNibble
     _writeLCD
       _lcdNibble
   _printLCD
     _writeLCD
       _lcdNibble
   _retroLCD

 _INTERRUPT_InterruptManager (ROOT)
   Absolute function(Fake) *
   _EUSART1_Receive_ISR *
     Absolute function(Fake) *
     _EUSART1_DefaultErrorHandler *
       _EUSART1_RxDataHandler
     _EUSART1_DefaultFramingErrorHandler *
     _EUSART1_DefaultOverrunErrorHandler *
     _EUSART1_RxDataHandler *
   _EUSART1_Transmit_ISR *
   _I2C1_BusCollisionISR *
   _I2C1_ISR *
     _I2C1_FunctionComplete
     _I2C1_Stop
   _PIN_MANAGER_IOC *
     _IOCAF5_ISR
       Absolute function(Fake) *
       _IOCAF5_DefaultInterruptHandler *
         _TMR1_ReadTimer
         _TMR1_StartTimer
         _TMR1_StopTimer
         _TMR1_WriteTimer
         ___aldiv
           _TMR1_ReadTimer (ARG)
           _TMR3_ReadTimer (ARG)
     _IOCAF6_ISR
       Absolute function(Fake) *
       _IOCAF6_DefaultInterruptHandler *
     _IOCAF7_ISR
       Absolute function(Fake) *
       _IOCAF7_DefaultInterruptHandler *
     _IOCCF0_ISR
       Absolute function(Fake) *
       _IOCCF0_DefaultInterruptHandler *
         _TMR3_ReadTimer
         _TMR3_StartTimer
         _TMR3_StopTimer
         _TMR3_WriteTimer
         ___aldiv
           _TMR1_ReadTimer (ARG)
           _TMR3_ReadTimer (ARG)
   _TMR0_ISR *
     Absolute function(Fake) *
     _TMR0_DefaultInterruptHandler *
   _TMR1_ISR *
     Absolute function(Fake) *
     _TMR1_DefaultInterruptHandler *
       _TMR1_StopTimer
       _TMR1_WriteTimer
     _TMR1_WriteTimer *
   _TMR3_ISR *
     Absolute function(Fake) *
     _TMR3_DefaultInterruptHandler *
       _TMR3_StopTimer
       _TMR3_WriteTimer
     _TMR3_WriteTimer *
   _TMR4_ISR *
     Absolute function(Fake) *
     _TMR4_DefaultInterruptHandler *
       _PWM1_LoadDutyValue
       _PWM2_LoadDutyValue
       ___fladd
         ___flmul (ARG)
           ___xxtofl (ARG)
         ___xxtofl (ARG)
       ___flmul
         ___xxtofl (ARG)
       ___fltol
         ___fladd (ARG)
           ___flmul (ARG)
             ___xxtofl (ARG)
           ___xxtofl (ARG)
         ___flmul (ARG)
           ___xxtofl (ARG)
         ___xxtofl (ARG)
       ___xxtofl

 Address spaces:
Name               Size   Autos  Total    Cost      Usage
BIGRAM             E87      0       0      35        0.0%
EEDATA             400      0       0       0        0.0%
BITBANK13          100      0       0      31        0.0%
BANK13             100      0       0      32        0.0%
BITBANK12          100      0       0      29        0.0%
BANK12             100      0       0      30        0.0%
BITBANK11          100      0       0      27        0.0%
BANK11             100      0       0      28        0.0%
BITBANK10          100      0       0      25        0.0%
BANK10             100      0       0      26        0.0%
BITBANK9           100      0       0      23        0.0%
BANK9              100      0       0      24        0.0%
BITBANK8           100      0       0      21        0.0%
BANK8              100      0       0      22        0.0%
BITBANK7           100      0       0      19        0.0%
BANK7              100      0       0      20        0.0%
BITBANK6           100      0       0      17        0.0%
BANK6              100      0       0      18        0.0%
BITBANK5           100      0       0      15        0.0%
BANK5              100      0       0      16        0.0%
BITBANK4           100      0       0      13        0.0%
BANK4              100      0       0      14        0.0%
BITBANK3           100      0       0      11        0.0%
BANK3              100      0       0      12        0.0%
BITBANK2           100      0       0       9        0.0%
BANK2              100      0       0      10        0.0%
BITBANK1           100      0       0       7        0.0%
BANK1              100      F      9B       8       60.5%
BITBANK0            A0      0       0       4        0.0%
BANK0               A0     12      90       5       90.0%
BITBANK14           88      0       0      33        0.0%
BANK14              88      0       0      34        0.0%
BITCOMRAM           5E      0       0       0        0.0%
COMRAM              5E     4B      5B       1       96.8%
BITSFR_2             0      0       0     200        0.0%
SFR_2                0      0       0     200        0.0%
BITSFR_1             0      0       0     200        0.0%
SFR_1                0      0       0     200        0.0%
BITSFR               0      0       0     200        0.0%
SFR                  0      0       0     200        0.0%
STACK                0      0       0       2        0.0%
NULL                 0      0       0       0        0.0%
ABS                  0      0     186       6        0.0%
DATA                 0      0     186       3        0.0%
CODE                 0      0       0       0        0.0%


Microchip Technology PIC18 Macro Assembler V1.45 build -152302408 
Symbol Table                                                                                   Fri Jan 23 14:05:19 2026

                      _eusart1TxBufferRemaining 00D2                ??_IOCAF7_DefaultInterruptHandler 0001  
               ?_IOCAF7_DefaultInterruptHandler 0001                                     __CFG_CP$OFF 000000  
                                            _R0 0083                                              _R1 007F  
                                           l382 26B2                                             l374 285C  
                                           l383 26B4                                             l387 2616  
                                           l388 25F6                                             l399 2B54  
                                           _DMD 0077                                             _DMG 007B  
                                           _GIE 007F97                                             _LED 270E  
                                           _PR2 000FBC                                             _PR4 000FB6  
                                  __CFG_CPD$OFF 000000                                 _timer1ReloadVal 00CE  
                       __size_of_PMD_Initialize 001C                                 _TMR2_Initialize 2A3E  
                                           prod 000FF3                                             tosl 000FFD  
                                           wreg 000FE8                                 lcdNibble@nibble 018D  
                                  ___flmul@aexp 0020              __end_of_IOCAF5_SetInterruptHandler 2C02  
                    _IOCAF5_SetInterruptHandler 2BF4                                    ___flmul@bexp 0021  
            __end_of_IOCCF0_SetInterruptHandler 2BD8                      _IOCCF0_SetInterruptHandler 2BCA  
                                  ___flmul@sign 001B                                    ___flmul@temp 0026  
                                  ___flmul@prod 0022                                  gotoLCD@colonne 0190  
                                  __CFG_LVP$OFF 000000                                            ?_LED 018C  
                                  __CFG_ZCD$OFF 000000                                __end_of_I2C1_ISR 1AD0  
                                  ___fltol@exp1 0045                                 _timer3ReloadVal 00CC  
                                          l1802 2732                                            l1803 2714  
                                          l1804 2720                                            l1807 2724  
                                          l1808 272E                                            l1690 1BA8  
                                          l1692 1CA8                                            l1693 1BCC  
                                          l1695 1C26                                            l1792 2B68  
                                          l1689 1C82                                            STR_1 0F01  
                                          STR_2 0F12                                            STR_3 0F27  
                                          STR_4 0F23                         __end_of_PWM1_Initialize 2B44  
                                          _LATA 000F83                                            _LATB 000F84  
                                          _LATC 000F85                                            _LATD 000F86  
                                          _LATE 000F87                                            _T2PR 000FBC  
                                   main@counter 0199                                            _T4PR 000FB6  
                                          u6110 232A                                            u6130 2348  
                                          u6108 2312                                            _PMD0 000EE1  
                                          _PMD1 000EE2                                            u6150 2362  
                                          _PMD2 000EE3                                            _PMD3 000EE4  
                                          u6240 2C50                                            u6128 232E  
                                          _PMD4 000EE5                                            _PMD5 000EE6  
                                          u6090 230E                                            u6148 234C  
                                          u6260 1C0A                                            u6270 1C66  
                                          u6168 2366                                            u6507 1F5A  
                                          u6517 1F72                                            u6607 2384  
                                          u6527 1F8A                                            u6537 1FA8  
                                          u6457 1B26                                            u6547 1FC6  
                                          u6467 1B72                                            u6557 1FDC  
                                          u6477 1CB4                                            u6567 1FFA  
                                          u6487 1F26                                            u6577 29F2  
                                          u6497 1F42                                            u6587 26B6  
                                          u6597 2374                                            _TMR2 000FBB  
                                          _TMR4 000FB5                                            _WPUA 000F10  
                                          _WPUB 000F18                                            _WPUC 000F20  
                                          _WPUD 000F25                                            _WPUE 000F2D  
                                 __CFG_FCMEN$ON 000000                                            _main 1AD0  
                                          fsr0h 000FEA                                            fsr1h 000FE2  
                                          fsr2h 000FDA                                            fsr0l 000FE9  
                                          indf2 000FDF                                            fsr1l 000FE1  
                                          fsr2l 000FD9                                            btemp 005C  
                            _ancien_dutyValue_D 00E8                              _ancien_dutyValue_G 00EA  
                                          prodh 000FF4                                            prodl 000FF3  
                                          start 0132                                 _TMR3_Initialize 2392  
                    ??_TMR1_SetInterruptHandler 018F                                   __CFG_CSWEN$ON 000000  
                    ??_TMR4_SetInterruptHandler 018F                                    ___param_bank 000000  
                                 __CFG_SCANE$ON 000000                                           ??_LED 018D  
                       __end_of_PWM2_Initialize 2B2E                         __end_of_TMR0_Initialize 25B4  
                                         LED@io 018D                                      _i2c1_state 0059  
                ??_TMR0_DefaultInterruptHandler 0001                  __size_of_OSCILLATOR_Initialize 0018  
                           __size_of_IOCAF5_ISR 002A                             __size_of_IOCAF6_ISR 002A  
                           __size_of_IOCAF7_ISR 002A                   __end_of_OSCILLATOR_Initialize 2B00  
                           __size_of_IOCCF0_ISR 002A                           _eusart1RxStatusBuffer 0060  
                                 ___fltol@sign1 0044                                 __end_of___aldiv 21B4  
                                         _ADACQ 000F5C                                           _ADCAP 000F5D  
                                         _ADACT 000F56                                 __end_of___fladd 15B8  
                                         ?_main 0001                                           _ADCLK 000F57  
                                         _ADCNT 000F67                                           _ADPCH 000F5F  
                                         _ADREF 000F58                               __end_of_I2C1_Stop 25F4  
                                         _ADPRE 000F5E                                   __CFG_WDTE$OFF 000000  
                                         _ADRPT 000F66                                 __end_of___flmul 127C  
                               __end_of___fltol 20E8                                 _TMR1_StartTimer 2C8C  
                                         _T1CLK 000FD2                                           _T1CON 000FCF  
                                         _T3CLK 000FCC                                           _T2CON 000FBD  
                                         _T3CON 000FC9                                           _T4CON 000FB7  
                                         _T2HLT 000FBE                                           _T4HLT 000FB8  
                                __CFG_DEBUG$OFF 000000                                           _T2TMR 000FBB  
                                         _T2RST 000FC0                                           _T4TMR 000FB5  
                                         _T4RST 000FBA                                           i2l701 194C  
                                         i2l630 2470                                           i2l703 1952  
                                         i2l607 2684                                           i2l712 19D8  
                                         i2l704 1962                                           i2l721 1A28  
                                         i2l609 2692                                           i2l730 1A7E  
                                         i2l722 1A3A                                           i2l714 19DE  
                                         i2l706 1990                                           i2l715 19F0  
                                         i2l724 1A42                                           i2l708 19CA  
                                         i2l733 2B12                                           i2l725 1A4A  
                                         i2l717 1A14                                           i2l726 1A6C  
                                         i2l718 1A0C                                           i2l830 006C  
                                         i2l727 1A72                                           i2l728 1A76  
                                         i2l841 00D0                                           i2l833 007C  
                                         i2l738 25EE                                           i2l691 1A8A  
                                         i2l843 00DC                                           i2l835 0088  
                                         i2l692 18B8                                           i2l596 24C0  
                                         i2l828 0060                                           i2l845 00E6  
                                         i2l837 00A4                                           i2l694 1904  
                                         i2l695 1914                                           i2l839 00C4  
                                         i2l697 191C                                           i2l698 1924  
                                         i2l699 1934                                           _OSCEN 000EDC  
                                         _TMR0H 000FD4                                           _TMR1H 000FCE  
                                         _TMR0L 000FD3                                           _TMR1L 000FCD  
                                         _TMR3H 000FC8                                           _TMR3L 000FC7  
                                         _TRISA 000F88                                           _TRISB 000F89  
                                         _TRISC 000F8A                                           _TRISD 000F8B  
                                         _TRISE 000F8C                       TMR3_ReadTimer@readValHigh 0007  
             __size_of_TMR0_SetInterruptHandler 000E                    __end_of_I2C1_BusCollisionISR 2C70  
                                 __CFG_WRT0$OFF 000000                                 _TMR4_Initialize 27AC  
                                 __CFG_WRT1$OFF 000000                                   __CFG_WRT2$OFF 000000  
             __size_of_TMR3_SetInterruptHandler 000E                       ?_TMR0_SetInterruptHandler 018C  
                                 __CFG_WRT3$OFF 000000                                   __CFG_WRT4$OFF 000000  
                                 __CFG_WRT5$OFF 000000                                   __CFG_WRT6$OFF 000000  
                                 __CFG_WRT7$OFF 000000                            _EUSART1_Transmit_ISR 27DE  
                     ?_TMR3_SetInterruptHandler 018C                                  __CFG_EBTR0$OFF 000000  
                                __CFG_EBTR1$OFF 000000                                  __CFG_EBTR2$OFF 000000  
                                __CFG_EBTR3$OFF 000000                               ??_I2C1_Initialize 018C  
                                __CFG_EBTR4$OFF 000000                                  __CFG_EBTR5$OFF 000000  
                                __CFG_EBTR6$OFF 000000                                __end_of_TMR0_ISR 2840  
                                __CFG_EBTR7$OFF 000000                                __end_of_TMR1_ISR 27AC  
                                 __CFG_WRTB$OFF 000000                                __end_of_TMR3_ISR 2778  
                                 __CFG_WRTC$OFF 000000                                __end_of_TMR4_ISR 2994  
                                 __CFG_WRTD$OFF 000000                                 __end_of_initLCD 200C  
                                __CFG_EBTRB$OFF 000000                                 __end_of_gotoLCD 286C  
                ??_TMR3_DefaultInterruptHandler 0003                         __end_of_PIN_MANAGER_IOC 29DE  
                            __CFG_MCLRE$EXTMCLR 000000                         __end_of_TMR1_Initialize 2432  
                                         pclath 000FFA                                           tablat 000FF5  
                                         status 000FD8                                           wtemp6 005D  
               __size_of_Ecrit_Valeur_selection 000A      __end_of_EUSART1_DefaultFramingErrorHandler 2C94  
   __size_of_EUSART1_DefaultFramingErrorHandler 0002            ??_EUSART1_DefaultFramingErrorHandler 0001  
           ?_EUSART1_DefaultFramingErrorHandler 0001              _EUSART1_DefaultFramingErrorHandler 2C92  
                               _TMR1_WriteTimer 2ACC                                 __initialization 24D2  
                    __end_of_EUSART1_Initialize 22FE                                    __end_of_main 1CC4  
                    Speed_Motors@Cons_Vit_Mot_D 018E                      Speed_Motors@Cons_Vit_Mot_G 018C  
                       __end_of_TMR2_Initialize 2A5C                     ?_INTERRUPT_InterruptManager 0001  
                                   _i2c1_object 0070                                          ??_main 0193  
                               _TMR3_StartTimer 2C84                                   __activetblptr 000003  
                         _TMR3_InterruptHandler 00B4                           ?_EUSART1_Transmit_ISR 0001  
                                        _ADACCH 000F71                                          _ADACCL 000F70  
                  ??_IOCAF6_SetInterruptHandler 018F                                          _ADCON0 000F60  
                                        _ADCON1 000F59                                          _ADCON2 000F5A  
                                        _ADCON3 000F5B                                          _ADERRH 000F6F  
                                        _ADERRL 000F6E                                          _ADLTHH 000F6B  
                                        _ADLTHL 000F6A                                          _ADRESH 000F64  
                                        _ADRESL 000F63                                          _CCPR1H 000FAB  
                                        _CCPR2H 000FA7                                          _CCPR1L 000FAA  
                                        _CCPR2L 000FA6                                          _ADSTAT 000F65  
                                        _ADUTHH 000F6D                                          _ADUTHL 000F6C  
                                        _ANSELA 000F11                                          _ANSELB 000F19  
                                        _ANSELC 000F21                                          _ANSELD 000F26  
                                        _ANSELE 000F2E                                          _T0CON0 000FD5  
                                        _T0CON1 000FD6                                          _T1GATE 000FD1  
                                        _T1GCON 000FD0                                          _T3GATE 000FCB  
                                        _T3GCON 000FCA                                          _RC1REG 000F99  
                                        _RC1PPS 000EF8                                          _RC1STA 000F9D  
                                        _RC2PPS 000EF9                                          _RC3PPS 000EFA  
                       TMR1_WriteTimer@timerVal 0001                                          _RC4PPS 000EFB  
                              ?_PWM1_Initialize 0001                                          _ODCONA 000F0F  
                                        _ODCONB 000F17                                          _ODCONC 000F1F  
                                        _RC6PPS 000EFD                                          _ODCOND 000F24  
                                        _ODCONE 000F2C                         __end_of_TMR3_Initialize 23E2  
                                        i2l1240 2806                                          i2l1252 29B6  
                                        i2l2300 1526                                          i2l2061 202A  
                                        i2l2070 20AE                                          i2l1247 225E  
                                        i2l1239 280A                                          i2l2303 156C  
                                        i2l2063 2096                                          i2l2072 20D6  
                                        i2l2064 2086                                  __CFG_WDTCCS$SC 000000  
                                        i2l2307 1592                                          i2l1508 288E  
                                        i2l2308 159A                                          i2l2260 12AC  
                                        i2l2309 159C                                          i2l2261 12A8  
                                        i2l2069 20BA                                          i2l1470 185C  
                                        i2l2351 0F5C                                          i2l1624 2AC2  
                                        i2l2272 13CC                                          i2l2352 0F58  
                                        i2l2273 13AA                                          i2l2265 12F4  
                                        i2l2353 0F6C                                          i2l1465 16FA  
                                        i2l2282 1414                                          i2l2274 13B8  
                                        i2l2266 12F0                                          i2l2362 118A  
                                        i2l2291 14E6                                          i2l2283 1418  
                                        i2l2275 13BC                                          i2l2371 1206  
                                        i2l2363 116C                                          i2l2355 0F9C  
                                        i2l1467 1706                                          i2l2268 1350  
                                        i2l2372 1224                                          i2l2356 0F98  
                                        i2l2380 1D12                                          i2l1468 1850  
                                        i2l2293 14FC                                          i2l2269 1314  
                                        i2l2357 0FAC                                          i2l2381 1D30  
                                        i2l1558 2ADE                                          i2l2286 14B2  
                                        i2l2278 142A                                          i2l2374 1248  
                                        i2l2358 0FCA                                          i2l2390 1DA6  
                                        i2l1487 28BA                                          i2l2295 1506  
                                        i2l2279 13F0                                          i2l2375 1266  
                                        i2l2383 1D42                                          i2l2288 14C2  
                                        i2l2384 1D36                                          i2l2369 11C2  
                                        i2l2394 1DD0                                          i2l2386 1D80  
                                        i2l2395 1E02                                          i2l2387 1D68  
                                        i2l2379 1D02                                          i2l2389 1DB2  
                                        i2l1890 214A                                          i2l1891 213E  
                                        i2l1894 217E                                          i2l1895 218C  
                                        i2l1887 2104                                          i2l1896 21A2  
                                        i2l1888 211C                                          _INLVLA 000F0D  
                                        _INLVLB 000F15                                          _INLVLC 000F1D  
                                        _INLVLD 000F22                                          _INLVLE 000F2A  
                                        i2l6487 1904                                          _OSCFRQ 000EDE  
                                        _NVMDAT 000F80                                          _RX1PPS 000EB5  
                                        _TX1REG 000F9A                                          _TX1STA 000F9E  
                              __end_of___xxtofl 1E14                                __end_of_clearLCD 29FE  
                               _TMR3_WriteTimer 2AB0                                  __CFG_PWRTE$OFF 000000  
                                __CFG_XINST$OFF 000000                                  _laserAddresses 00E5  
          __end_of_TMR1_DefaultInterruptHandler 2AB0           __size_of_TMR1_DefaultInterruptHandler 001C  
                  _TMR1_DefaultInterruptHandler 2A94                                          _Motors 2B58  
              _Ancienne_Erreur_Vitesse_Moteur_D 008B                _Ancienne_Erreur_Vitesse_Moteur_G 008F  
                                _p_i2c1_current 0099                         __end_of_TMR1_StartTimer 2C90  
                                     ??___aldiv 0011                                       ??___fladd 0030  
                                __CFG_STVREN$ON 000000                                       ??___flmul 0017  
                                     ??___fltol 0040                        ?_EUSART1_SetErrorHandler 018C  
                              ?_TMR0_Initialize 0001                                ?_PWM2_Initialize 0001  
                       __end_of_TMR4_Initialize 27DE                                       ?_I2C1_ISR 0001  
                                        clear_0 24F8                                          clear_1 2504  
                                        clear_2 2510                ??_EUSART1_SetOverrunErrorHandler 018F  
               ?_EUSART1_SetOverrunErrorHandler 018C             __size_of_IOCAF6_SetInterruptHandler 000E  
                        _Ecrit_Valeur_selection 2C60                                       ??_initLCD 0191  
                                     ??_gotoLCD 0191                                 _ADCC_Initialize 2520  
          __end_of_TMR4_DefaultInterruptHandler 187E           __size_of_TMR4_DefaultInterruptHandler 02C6  
                  _TMR4_DefaultInterruptHandler 15B8                                  _PMD_Initialize 2A5C  
                              __end_of_retroLCD 2B58                                __end_of_printLCD 262E  
                                  __mediumconst 0000                                          tblptrh 000FF7  
                                        tblptrl 000FF6                                          tblptru 000FF8  
      TMR3_SetInterruptHandler@InterruptHandler 018C        TMR1_SetInterruptHandler@InterruptHandler 018C  
      TMR4_SetInterruptHandler@InterruptHandler 018C        TMR0_SetInterruptHandler@InterruptHandler 018C  
    IOCCF0_SetInterruptHandler@InterruptHandler 018C      IOCAF7_SetInterruptHandler@InterruptHandler 018C  
    IOCAF6_SetInterruptHandler@InterruptHandler 018C      IOCAF5_SetInterruptHandler@InterruptHandler 018C  
                              ?_PIN_MANAGER_IOC 0001                         __end_of_TMR1_WriteTimer 2AE8  
                               _eusart1RxBuffer 0100                                    ??_IOCAF5_ISR 0017  
                                  ??_IOCAF6_ISR 0002                                    ??_IOCAF7_ISR 0001  
                              __end_of_writeLCD 26D8                                    ??_IOCCF0_ISR 0017  
                 __size_of_INTERRUPT_Initialize 0004                                 _eusart1TxBuffer 0068  
                              ?_TMR1_Initialize 0001                                    ___xxtofl@arg 000B  
                                  ___xxtofl@exp 000A                               _SYSTEM_Initialize 262E  
                                  ___xxtofl@val 0001                                      __accesstop 0060  
                       __end_of__initialization 2516                              ?_SYSTEM_Initialize 0001  
                    __end_of_PWM2_LoadDutyValue 2898                                   ___rparam_used 000001  
                                    ___fltol@f1 003C                                    gotoLCD@ligne 0191  
                                     LED@on_off 018C                                  _i2c1_trb_count 0058  
                   PWM1_LoadDutyValue@dutyValue 0001                  __size_of_EUSART1_RxDataHandler 0026  
                 __end_of_EUSART1_RxDataHandler 29BA                           _I2C1_FunctionComplete 2B00  
                          _I2C1_BusCollisionISR 2C6A                                  __pcstackCOMRAM 0001  
                                  __pidataBANK0 2C54                             ??_SYSTEM_Initialize 0191  
                       __end_of_TMR3_StartTimer 2C88                                       ?_TMR0_ISR 0001  
                                     ?_TMR1_ISR 0001                   ?_TMR1_DefaultInterruptHandler 0001  
                                     ?_TMR3_ISR 0001                                       ?_TMR4_ISR 0001  
                            _PWM1_LoadDutyValue 2898                                   ?_BP_selection 0001  
                                    ??_I2C1_ISR 0004                                ?_TMR2_Initialize 0001  
                        __end_of_PMD_Initialize 2A78                              __end_of_IOCAF5_ISR 296C  
                            __end_of_IOCAF6_ISR 2942                              __end_of_IOCAF7_ISR 2918  
                            __end_of_IOCCF0_ISR 28EE                          ??_EUSART1_Transmit_ISR 0001  
                            __size_of_lcdNibble 0094                             ?_PWM1_LoadDutyValue 0001  
                       __size_of_TMR1_ReadTimer 0020                     __end_of_EUSART1_Receive_ISR 2264  
                 ?_TMR4_DefaultInterruptHandler 0001                     ?_IOCAF5_SetInterruptHandler 018C  
        __end_of_IOCAF7_DefaultInterruptHandler 2C92         __size_of_IOCAF7_DefaultInterruptHandler 0002  
                _IOCAF7_DefaultInterruptHandler 2C90                     ?_IOCCF0_SetInterruptHandler 018C  
                     __end_of_SYSTEM_Initialize 2668                         __end_of_TMR3_WriteTimer 2ACC  
                                 _eusart1RxHead 00A2                                   _eusart1TxHead 00A4  
                                 _eusart1RxTail 0055                                      __pbssBANK0 0060  
                                    __pbssBANK1 0100                                   _eusart1TxTail 00A3  
             _EUSART1_TxDefaultInterruptHandler 0189                 ??_EUSART1_SetRxInterruptHandler 018F  
                              ?_TMR3_Initialize 0001                           _TMR4_InterruptHandler 00BA  
              ??_IOCAF5_DefaultInterruptHandler 0017                 ?_IOCAF5_DefaultInterruptHandler 0001  
                                    _vl53l0xDev 0108                            ??_PWM1_LoadDutyValue 0003  
                       _IOCAF5_InterruptHandler 00C9                           ?_I2C1_BusCollisionISR 0001  
                       __size_of_TMR3_ReadTimer 0020                 __end_of_EUSART1_SetErrorHandler 2C48  
                                       ?_Motors 0001                __end_of_TMR0_SetInterruptHandler 2BCA  
              __end_of_TMR3_SetInterruptHandler 2BAE                                ?_TMR1_StartTimer 0001  
                                    ??_TMR0_ISR 0001                                      ??_TMR1_ISR 0003  
                               __CFG_PPS1WAY$ON 000000                                      ??_TMR3_ISR 0003  
                                    ??_TMR4_ISR 004C                         __end_of_ADCC_Initialize 256C  
                                ??_BP_selection 018C                                 _I2C1_Initialize 26D8  
                                       _CCP1CON 000FAC                                         _CCP2CON 000FA8  
                                       _ADFLTRH 000F73                                         _ADFLTRL 000F72  
                                       _ADPREVH 000F62                                         _ADPREVL 000F61  
                              ?_TMR4_Initialize 0001                ??_IOCCF0_DefaultInterruptHandler 0017  
               ?_IOCCF0_DefaultInterruptHandler 0001                                         _ADSTPTH 000F69  
                                       _ADSTPTL 000F68                                 ?_PMD_Initialize 0001  
        __end_of_EUSART1_SetFramingErrorHandler 2C3A         __size_of_EUSART1_SetFramingErrorHandler 000E  
                _EUSART1_SetFramingErrorHandler 2C2C                         __size_of_TMR1_StopTimer 0004  
                                     ?___xxtofl 0001                    ?_EUSART1_DefaultErrorHandler 0001  
                                     ?_clearLCD 0001                                         _SP1BRGH 000F9C  
                                       _SP1BRGL 000F9B                                   ?_Speed_Motors 018C  
                                       _OSCCON1 000ED8                                         _OSCCON3 000EDA  
            __end_of_IOCAF6_SetInterruptHandler 2BF4                      _IOCAF6_SetInterruptHandler 2BE6  
                                     _I2C1_Stop 25B4                                         _NVMADRH 000F7F  
                                       _NVMADRL 000F7E                                         _OSCTUNE 000EDD  
                                       _NVMCON2 000F82                                         _SSP1ADD 000F93  
                                       _SLRCONA 000F0E                                         _SLRCONB 000F16  
                                       _SLRCONC 000F1E                                         _SLRCOND 000F23  
                                       _SLRCONE 000F2B                                         _SSP1BUF 000F92  
                              ?_TMR1_WriteTimer 0001                         __size_of_TMR3_StopTimer 0004  
                             __end_of_lcdNibble 2392                          ?_I2C1_FunctionComplete 0001  
                                       __Hparam 0000                         _Erreur_Vitesse_Moteur_D 008D  
                       _Erreur_Vitesse_Moteur_G 0091                                         __Lparam 0000  
                                retroLCD@on_off 018C                                       ?_retroLCD 0001  
                    __CFG_RSTOSC$HFINTOSC_64MHZ 000000                              _p_i2c1_trb_current 0050  
                                     ?_printLCD 0190                                 __size_of_Motors 0014  
                                       ___aldiv 20E8                                         ___fladd 127C  
                                       ___flmul 0F2C                                ?_TMR3_StartTimer 0001  
                                       ___fltol 200C                                    __psmallconst 0F00  
                                       __pcinit 24D2                                    writeLCD@byte 018F  
                                       __ramtop 0F00                        TMR1_ReadTimer@readValLow 0008  
                                     ?_writeLCD 018E                                    writeLCD@type 018E  
                                       __ptext0 1AD0                                         __ptext1 2B44  
                                       __ptext2 25F4                                         __ptext3 1F16  
                                       __ptext4 29DE                                         __ptext5 2840  
                                       __ptext6 26A2                                         __ptext7 22FE  
                                       __ptext8 2B80                                         __ptext9 262E  
                ??_TMR1_DefaultInterruptHandler 0003                                    __size_of_LED 0036  
                     TMR1_ReadTimer@readValHigh 0007                                         _initLCD 1F16  
                                     _T1CONbits 000FCF                                         _gotoLCD 2840  
                         _OSCILLATOR_Initialize 2AE8                                       _T2CONbits 000FBD  
                                ??_Speed_Motors 0190                                      ??___xxtofl 0005  
                                     _T3CONbits 000FC9                                      ??_clearLCD 0190  
             __size_of_TMR1_SetInterruptHandler 000E                                ___aldiv@dividend 0009  
                                     _T4CONbits 000FB7                              _EUSART1_Initialize 2264  
                      ??_PIN_MANAGER_Initialize 018F               __size_of_TMR4_SetInterruptHandler 000E  
                     ?_TMR1_SetInterruptHandler 018C                                       _T2HLTbits 000FBE  
                                     _IOCAFbits 000F0A                                       _IOCCFbits 000F1A  
                     ?_TMR4_SetInterruptHandler 018C                                      ?_I2C1_Stop 0001  
                                     _IOCANbits 000F0B                                       _IOCAPbits 000F0C  
                                     _IOCCNbits 000F1B                                       _IOCCPbits 000F1C  
                                     _T4HLTbits 000FB8                   ??_EUSART1_DefaultErrorHandler 0001  
                    __size_of_SYSTEM_Initialize 003A                            I2C1_ISR@pi2c_buf_ptr 0097  
                          end_of_initialization 2516                                ?_TMR3_WriteTimer 0001  
                 _Sigma_Erreur_Vitesse_Moteur_D 00EC                   _Sigma_Erreur_Vitesse_Moteur_G 00EE  
                                     _T2RSTbits 000FC0                  ??_TMR4_DefaultInterruptHandler 0046  
                           ?_EUSART1_Initialize 0001                                       _T4RSTbits 000FBA  
                   _EUSART1_OverrunErrorHandler 0180                          ??_I2C1_BusCollisionISR 0001  
                       __end_of_I2C1_Initialize 270E           __end_of_EUSART1_SetRxInterruptHandler 2C1E  
        __size_of_EUSART1_SetRxInterruptHandler 000E                   _EUSART1_SetRxInterruptHandler 2C10  
                                    ??_retroLCD 018C                           TMR3_ReadTimer@readVal 0005  
                                    ??_printLCD 0192                                ___aldiv@quotient 0013  
                                       postdec1 000FE5                                         postdec2 000FDD  
                                       postinc0 000FEE                                         postinc2 000FDE  
                              ?_ADCC_Initialize 0001                         ?_Ecrit_Valeur_selection 018C  
                          ??_EUSART1_Initialize 018F                           __CFG_WDTCPS$WDTCPS_31 000000  
                                    ??_writeLCD 018F                        _TMR0_SetInterruptHandler 2BBC  
                                     _PORTAbits 000F8D                                       _PORTBbits 000F8E  
                                     _PORTDbits 000F90                                       _PORTEbits 000F91  
                      _TMR3_SetInterruptHandler 2BA0                               __size_of_I2C1_ISR 0252  
                                   ___fladd@grs 003B                         _IOCAF6_InterruptHandler 00C6  
                                _TMR1_ReadTimer 2A1E                                   ___xxtofl@sign 0009  
                  ??_IOCAF7_SetInterruptHandler 018F                __size_of_EUSART1_SetErrorHandler 000E  
                              __CFG_FEXTOSC$OFF 000000               I2C1_ISR@i2c_10bit_address_restart 0056  
                          __end_of_BP_selection 2C54                                     ___flmul@grs 001C  
                                   _CCP1CONbits 000FAC                                     _CCP2CONbits 000FA8  
                                _TMR3_ReadTimer 29FE            __size_of_EUSART1_DefaultErrorHandler 0006  
                      __size_of_PWM1_Initialize 0016                            _timer0ReloadVal16bit 00D0  
                __end_of_Ecrit_Valeur_selection 2C6A                                  __end_of_Motors 2B6C  
                  __end_of_INTERRUPT_Initialize 2C80                         I2C1_MasterWrite@trBlock 00AA  
                             __size_of_TMR0_ISR 0030                               __size_of_TMR1_ISR 0034  
                      I2C1_Stop@completion_code 0003                               __size_of_TMR3_ISR 0034  
                            _PWM2_LoadDutyValue 286C                               __size_of_TMR4_ISR 0028  
                                _TMR1_StopTimer 2C88             __size_of_IOCAF7_SetInterruptHandler 000E  
                        ?_OSCILLATOR_Initialize 0001                          __end_of_TMR1_ReadTimer 2A3E  
                           start_initialization 24D2                                     __end_of_LED 2744  
                                   ??_I2C1_Stop 0001                        __size_of_PWM2_Initialize 0016  
                      __size_of_TMR0_Initialize 0048                             ?_PWM2_LoadDutyValue 0001  
               __size_of_PIN_MANAGER_Initialize 0102   EUSART1_SetRxInterruptHandler@interruptHandler 018C  
 EUSART1_SetTxInterruptHandler@interruptHandler 018C                                  _TMR3_StopTimer 2C80  
                        __end_of_TMR3_ReadTimer 2A1E                        __size_of_PIN_MANAGER_IOC 0024  
                              ?_I2C1_Initialize 0001                            __end_of_Speed_Motors 2B92  
                              __CFG_LPBOREN$OFF 000000                            ??_PWM2_LoadDutyValue 0003  
                      __size_of_TMR1_Initialize 0050                                        ??_Motors 018C  
                   PWM2_LoadDutyValue@dutyValue 0001                                ??_PMD_Initialize 018C  
                         _EUSART1_RxDataHandler 2994                                     _CCPTMRSbits 000FAE  
                ?_EUSART1_SetRxInterruptHandler 018C                          __end_of_TMR1_StopTimer 2C8C  
                                   __pdataBANK0 00E5          __end_of_IOCAF5_DefaultInterruptHandler 24D2  
       __size_of_IOCAF5_DefaultInterruptHandler 0050                  _IOCAF5_DefaultInterruptHandler 2482  
                               ?_TMR1_ReadTimer 0001                                  _eusart1RxCount 0054  
                                     ___fladd@a 002C                                       ___fladd@b 0028  
                                     ___flmul@a 0013                                       ___flmul@b 000F  
                                   __pbssCOMRAM 004C               _EUSART1_RxDefaultInterruptHandler 0186  
                 __size_of_EUSART1_Transmit_ISR 0032                                   __pcstackBANK0 00D3  
                                 __pcstackBANK1 018C                        __size_of_TMR2_Initialize 001E  
                   ?_IOCAF6_SetInterruptHandler 018C                                   _i2c1_tr_queue 00AF  
                             __size_of___xxtofl 0150                               __size_of_clearLCD 0020  
        __end_of_IOCCF0_DefaultInterruptHandler 2482         __size_of_IOCCF0_DefaultInterruptHandler 0050  
                _IOCCF0_DefaultInterruptHandler 2432                          __end_of_TMR3_StopTimer 2C84  
               ??_EUSART1_SetTxInterruptHandler 018F                ??_EUSART1_SetFramingErrorHandler 018F  
               ?_EUSART1_SetFramingErrorHandler 018C                         ??_I2C1_FunctionComplete 0001  
                  __size_of_EUSART1_Receive_ISR 00B0                                 ?_TMR3_ReadTimer 0001  
                         _TMR0_InterruptHandler 00BD                                       __pnvBANK0 00B4  
                                     __pnvBANK1 017D                         _IOCAF7_InterruptHandler 00C3  
                   __size_of_PWM1_LoadDutyValue 002C                          _PIN_MANAGER_Initialize 1E14  
              ??_IOCAF6_DefaultInterruptHandler 0001                 ?_IOCAF6_DefaultInterruptHandler 0001  
                      __size_of_TMR3_Initialize 0050                                       __pintcode 0008  
              __end_of_TMR1_SetInterruptHandler 2BBC                                       _lcdNibble 22FE  
                                      ?___aldiv 0009                                        ?___fladd 0028  
              __end_of_TMR4_SetInterruptHandler 2BA0                                        ?___flmul 000F  
                                      ?___fltol 003C                               __size_of_retroLCD 0014  
                               ?_TMR1_StopTimer 0001                               __size_of_printLCD 003A  
                                      _I2C1_ISR 187E                               ??_PWM1_Initialize 018C  
                  ??_INTERRUPT_InterruptManager 00D3                                        _BAUD1CON 000F9F  
                                      ?_initLCD 0001                                        ?_gotoLCD 0190  
                                   __smallconst 0F00                        __size_of_TMR1_StartTimer 0004  
    __end_of_EUSART1_DefaultOverrunErrorHandler 2C76     __size_of_EUSART1_DefaultOverrunErrorHandler 0006  
          ??_EUSART1_DefaultOverrunErrorHandler 0001             ?_EUSART1_DefaultOverrunErrorHandler 0001  
            _EUSART1_DefaultOverrunErrorHandler 2C70                               __size_of_writeLCD 0036  
                          _EUSART1_ErrorHandler 017D                           __size_of_BP_selection 000C  
            __end_of_IOCAF7_SetInterruptHandler 2BE6                      _IOCAF7_SetInterruptHandler 2BD8  
                       _EUSART1_SetErrorHandler 2C3A                        __size_of_TMR4_Initialize 0032  
                                      _T2CLKCON 000FBF                                        _T4CLKCON 000FB9  
                          _INTERRUPT_Initialize 2C7C                                 ?_TMR3_StopTimer 0001  
                     _Consigne_Vitesse_Moteur_D 0093                       _Consigne_Vitesse_Moteur_G 0095  
                               ___aldiv@divisor 000D                          I2C1_MasterRead@trBlock 00A5  
                             ??_TMR0_Initialize 018F                               ??_PWM2_Initialize 018C  
                               ___aldiv@counter 0011                                        _LATAbits 000F83  
       EUSART1_SetErrorHandler@interruptHandler 018C                                        _LATBbits 000F84  
                                      _LATCbits 000F85                                        _LATDbits 000F86  
                                      _LATEbits 000F87                                        _PIE0bits 000EC2  
                               _millisec_32bits 0087                                        _PIE3bits 000EC5  
                                      _PIE4bits 000EC6                             __CFG_BORV$VBOR_2P45 000000  
                                     _selection 009B                        __size_of_TMR1_WriteTimer 001C  
           __size_of_INTERRUPT_InterruptManager 012A                                        i2u413_40 1578  
                                      i2u405_40 150A                      ??_TMR0_SetInterruptHandler 018F  
                                      i2u430_40 11BE                                        _PIR0bits 000ECA  
                                      i2u408_40 1522                                        i2u424_40 0FB8  
                                      i2u329_40 214E                                        i2u520_48 2798  
                                      i2u433_40 1214                                        i2u425_40 112E  
                                      i2u441_40 20C0                                        i2u425_45 1124  
                                      i2u434_40 1232                                        i2u514_48 282C  
                                      i2u524_48 21E4                                        i2u437_40 2048  
                                      i2u516_48 2980                                        i2u524_49 21FA  
                                      _PIR3bits 000ECD                                        i2u437_45 203E  
                                      i2u526_48 2216                                        i2u518_48 2764  
                                      i2u526_49 222C                                        _PIR4bits 000ECE  
                                      i2u375_45 287A                                        i2u392_40 13D4  
                    ??_TMR3_SetInterruptHandler 018F                                        i2u528_48 2248  
                                      i2u449_40 1DBC                                        i2u560_48 0092  
                                      i2u377_45 28A6                                        i2u473_48 2952  
                                      i2u473_49 2966                                        i2u387_40 1380  
                                      i2u475_48 2928                                        i2u388_40 1390  
                                      i2u563_48 00AE                                        i2u475_49 293C  
                                      i2u389_40 1392                                        i2u661_47 266E  
                                      i2u477_48 28FE                                        i2u477_49 2912  
                                      i2u662_47 2698                                        i2u479_48 28D4  
                                      i2u479_49 28E8                          ?_EUSART1_RxDataHandler 0001  
                                    ?_lcdNibble 0001                                        _SSP1CON1 000F96  
                                      _SSP1CON3 000F98                                        _TMR0_ISR 2810  
                                      _TMR1_ISR 2778                                        _TMR3_ISR 2744  
                                      _TMR4_ISR 296C                                        _SSP1STAT 000F95  
                             ??_PIN_MANAGER_IOC 0017                                    _BP_selection 2C48  
                             ??_TMR1_Initialize 018F                        TMR3_ReadTimer@readValLow 0008  
                                    _ADCON0bits 000F60                                      _ADCON1bits 000F59  
                                    _ADCON2bits 000F5A                                      _ADCON3bits 000F5B  
                      __size_of_TMR3_StartTimer 0004                                       main@state 0197  
                                     copy_data0 24E6                           ?_INTERRUPT_Initialize 0001  
                                  Motors@on_off 018C                           __size_of_Speed_Motors 0012  
                             ??_TMR2_Initialize 018C                                      _ADSTATbits 000F65  
         __end_of_EUSART1_SetTxInterruptHandler 2C10          __size_of_EUSART1_SetTxInterruptHandler 000E  
                 _EUSART1_SetTxInterruptHandler 2C02                                        __Hrparam 0000  
                      __size_of_TMR3_WriteTimer 001C                   __size_of_I2C1_BusCollisionISR 0006  
                                      __Lrparam 0000                              __CFG_BOREN$SBORDIS 000000  
                         TMR1_ReadTimer@readVal 0005                          I2C1_ISR@i2c_bytes_left 0057  
                       ??_OSCILLATOR_Initialize 018C                                __size_of___aldiv 00CC  
                              __size_of___fladd 033C                                __size_of___flmul 0350  
                              __size_of___fltol 00DC                     __size_of_EUSART1_Initialize 009A  
                             ??_TMR3_Initialize 018F                        _TMR1_SetInterruptHandler 2BAE  
                      _TMR4_SetInterruptHandler 2B92                           _TMR1_InterruptHandler 00B7  
                     ??_EUSART1_SetErrorHandler 018F             __end_of_EUSART1_DefaultErrorHandler 2C7C  
                   _EUSART1_DefaultErrorHandler 2C76                           main@calibration_state 0195  
                              __size_of_initLCD 00F6                         _IOCCF0_InterruptHandler 00C0  
                                      ___xxtofl 1CC4                                __size_of_gotoLCD 002C  
                                    _T0CON0bits 000FD5                        __size_of_ADCC_Initialize 004C  
                                      _clearLCD 29DE                                    _Speed_Motors 2B80  
                           I2C1_ISR@i2c_address 005A                                        __ptext10 27AC  
                                      __ptext11 2B92                                        __ptext20 2B2E  
                                      __ptext12 2392                                        __ptext21 2A5C  
                                      __ptext13 2BA0                                      _T1GCONbits 000FD0  
                                      __ptext30 2264                                        __ptext22 1E14  
                                      __ptext14 2A3E                                        __ptext31 2C02  
                                      __ptext23 2BCA                                        __ptext15 23E2  
                                      __ptext40 2C48                                        __ptext32 2C10  
                                      __ptext24 2BD8                                        __ptext16 2BAE  
                                      __ptext33 2C1E                                        __ptext25 2BE6  
                                      __ptext17 256C                                        __ptext50 2744  
                                      __ptext42 296C                                        __ptext34 2C2C  
                                      __ptext26 2BF4                                        __ptext18 2BBC  
                                      __ptext51 2A78                                        __ptext43 15B8  
                                      __ptext35 2C3A                                        __ptext27 2AE8  
                                      __ptext19 2B18                                        __ptext60 2C80  
                                      __ptext52 2778                                        __ptext44 1CC4  
                                      __ptext36 2520                                        __ptext28 2C7C  
                                      __ptext61 2C84                                        __ptext53 2A94  
                                      __ptext45 200C                                        __ptext37 2B58  
                                      __ptext29 26D8                                        __ptext70 2ACC  
                                      __ptext62 29FE                                        __ptext54 2810  
                                      __ptext46 0F2C                                        __ptext38 270E  
                                      __ptext71 2C88                                        __ptext63 28EE  
                                      __ptext55 2B6C                                        __ptext47 127C  
                                      __ptext39 2C60                                        __ptext80 2C70  
                                      __ptext72 2C8C                                        __ptext64 2C90  
                                      __ptext56 29BA                                        __ptext48 286C  
                                      __ptext81 2C92                                        __ptext73 2A1E  
                                      __ptext65 2918                                        __ptext57 28C4  
                                      __ptext49 2898                                        __ptext82 2C76  
                                      __ptext74 187E                                        __ptext66 2668  
                                      __ptext58 2432                                        __ptext83 2994  
                                      __ptext75 25B4                                        __ptext67 2942  
                                      __ptext59 2AB0                                        __ptext84 0000  
                                      __ptext76 2B00                                        __ptext68 2482  
                                      __ptext77 2C6A                                        __ptext69 20E8  
                                      __ptext78 27DE                                        __ptext79 21B4  
                  ??_IOCAF5_SetInterruptHandler 018F                                    _SSP1CON1bits 000F96  
                                  _SSP1CON2bits 000F97                    ??_IOCCF0_SetInterruptHandler 018F  
                             ??_TMR1_StartTimer 0001                                      _IOCAF5_ISR 2942  
                                   _dutyValue_D 004C                                     _dutyValue_G 004E  
                                    _IOCAF6_ISR 2918                                      _IOCAF7_ISR 28EE  
                                    _T3GCONbits 000FCA                                      _IOCCF0_ISR 28C4  
                       TMR3_WriteTimer@timerVal 0001                               ??_TMR4_Initialize 018F  
                                 __size_of_main 01F4                                        _millisec 0052  
          __end_of_TMR0_DefaultInterruptHandler 2B80           __size_of_TMR0_DefaultInterruptHandler 0014  
                  _TMR0_DefaultInterruptHandler 2B6C                            __CFG_WDTCWS$WDTCWS_7 000000  
                                    _RC1STAbits 000F9D                                        _retroLCD 2B44  
EUSART1_SetOverrunErrorHandler@interruptHandler 018C                                       printLCD@t 0190  
                                      _printLCD 25F4                                     ??_lcdNibble 018C  
                              ??_TMR1_ReadTimer 0003               _TMR4_DefaultInterruptHandler$5370 0048  
                                      int$flags 005C              __end_of_INTERRUPT_InterruptManager 0132  
                    _INTERRUPT_InterruptManager 0008                               ??_TMR1_WriteTimer 0003  
          __end_of_TMR3_DefaultInterruptHandler 2A94           __size_of_TMR3_DefaultInterruptHandler 001C  
                  _TMR3_DefaultInterruptHandler 2A78                     _EUSART1_FramingErrorHandler 0183  
                                      _writeLCD 26A2                             _EUSART1_Receive_ISR 21B4  
           __size_of_IOCAF5_SetInterruptHandler 000E             __size_of_IOCCF0_SetInterruptHandler 000E  
                                    _INTCONbits 000FF2                                     _NVMCON1bits 000F81  
                 Ecrit_Valeur_selection@Val_sel 018C                          ??_INTERRUPT_Initialize 018C  
                              ??_TMR3_ReadTimer 0003                               ??_TMR3_StartTimer 0001  
                                      intlevel2 0000                            ?_EUSART1_Receive_ISR 0001  
                       ?_PIN_MANAGER_Initialize 0001                               __CFG_CLKOUTEN$OFF 000000  
                __size_of_I2C1_FunctionComplete 0018          __end_of_EUSART1_SetOverrunErrorHandler 2C2C  
       __size_of_EUSART1_SetOverrunErrorHandler 000E                  _EUSART1_SetOverrunErrorHandler 2C1E  
                 __end_of_I2C1_FunctionComplete 2B18                    __end_of_EUSART1_Transmit_ISR 2810  
                               _PWM1_Initialize 2B2E                                ??_TMR1_StopTimer 0001  
                 ?_TMR0_DefaultInterruptHandler 0001                     __size_of_PWM2_LoadDutyValue 002C  
EUSART1_SetFramingErrorHandler@interruptHandler 018C                  ?_EUSART1_SetTxInterruptHandler 018C  
                             ??_TMR3_WriteTimer 0003                        __size_of_I2C1_Initialize 0036  
                            _eusart1RxLastError 00A1                   ?_TMR3_DefaultInterruptHandler 0001  
                                    _SSP1DATPPS 000EB8                                      _SSP1CLKPPS 000EB7  
        __end_of_IOCAF6_DefaultInterruptHandler 26A2         __size_of_IOCAF6_DefaultInterruptHandler 003A  
                _IOCAF6_DefaultInterruptHandler 2668                                 _TMR0_Initialize 256C  
                               _PWM2_Initialize 2B18                                ??_TMR3_StopTimer 0001  
                                  ___aldiv@sign 0012                     ?_IOCAF7_SetInterruptHandler 018C  
                                    _TX1STAbits 000F9E                                   ___fladd@signs 0038  
                                   ?_IOCAF5_ISR 0001                                     ?_IOCAF6_ISR 0001  
                                   ?_IOCAF7_ISR 0001                                     ?_IOCCF0_ISR 0001  
                         ??_EUSART1_Receive_ISR 0001                  __end_of_PIN_MANAGER_Initialize 1F16  
                             ??_ADCC_Initialize 018C                                _Vitesse_Moteur_D 009D  
                              _Vitesse_Moteur_G 009F                                    ___fladd@aexp 0039  
                                  ___fladd@bexp 003A                              __size_of_I2C1_Stop 0040  
                    __end_of_PWM1_LoadDutyValue 28C4                        ??_Ecrit_Valeur_selection 018E  
                               _PIN_MANAGER_IOC 29BA                         ??_EUSART1_RxDataHandler 0001  
                               _TMR1_Initialize 23E2  
